Archive member included to satisfy reference by file (symbol)

c:/vsarm/armcc/102021~1.10/bin/../lib/gcc/arm-none-eabi/10.3.1/thumb/v6-m/nofp\libgcc.a(_dvmd_tls.o)
                              CMakeFiles/nano_http_client.dir/C_/Users/yoyom/Desktop/Pico/pico-sdk/src/rp2_common/pico_divider/divider_hardware.S.obj (__aeabi_idiv0)
c:/vsarm/armcc/102021~1.10/bin/../lib/gcc/arm-none-eabi/10.3.1/../../../../arm-none-eabi/lib/thumb/v6-m/nofp\libg.a(lib_a-atoi.o)
                              CMakeFiles/nano_http_client.dir/C_/Users/yoyom/Desktop/Pico/pico-sdk/lib/lwip/src/core/netif.c.obj (atoi)
c:/vsarm/armcc/102021~1.10/bin/../lib/gcc/arm-none-eabi/10.3.1/../../../../arm-none-eabi/lib/thumb/v6-m/nofp\libg.a(lib_a-calloc.o)
                              CMakeFiles/nano_http_client.dir/C_/Users/yoyom/Desktop/Pico/pico-sdk/src/rp2_common/pico_malloc/malloc.c.obj (calloc)
c:/vsarm/armcc/102021~1.10/bin/../lib/gcc/arm-none-eabi/10.3.1/../../../../arm-none-eabi/lib/thumb/v6-m/nofp\libg.a(lib_a-callocr.o)
                              c:/vsarm/armcc/102021~1.10/bin/../lib/gcc/arm-none-eabi/10.3.1/../../../../arm-none-eabi/lib/thumb/v6-m/nofp\libg.a(lib_a-calloc.o) (_calloc_r)
c:/vsarm/armcc/102021~1.10/bin/../lib/gcc/arm-none-eabi/10.3.1/../../../../arm-none-eabi/lib/thumb/v6-m/nofp\libg.a(lib_a-ctype_.o)
                              CMakeFiles/nano_http_client.dir/C_/Users/yoyom/Desktop/Pico/pico-sdk/lib/lwip/src/core/dns.c.obj (_ctype_)
c:/vsarm/armcc/102021~1.10/bin/../lib/gcc/arm-none-eabi/10.3.1/../../../../arm-none-eabi/lib/thumb/v6-m/nofp\libg.a(lib_a-errno.o)
                              c:/vsarm/armcc/102021~1.10/bin/../lib/gcc/arm-none-eabi/10.3.1/../../../../arm-none-eabi/lib/thumb/v6-m/nofp\libg.a(lib_a-callocr.o) (__errno)
c:/vsarm/armcc/102021~1.10/bin/../lib/gcc/arm-none-eabi/10.3.1/../../../../arm-none-eabi/lib/thumb/v6-m/nofp\libg.a(lib_a-impure.o)
                              c:/vsarm/armcc/102021~1.10/bin/../lib/gcc/arm-none-eabi/10.3.1/../../../../arm-none-eabi/lib/thumb/v6-m/nofp\libg.a(lib_a-calloc.o) (_impure_ptr)
c:/vsarm/armcc/102021~1.10/bin/../lib/gcc/arm-none-eabi/10.3.1/../../../../arm-none-eabi/lib/thumb/v6-m/nofp\libg.a(lib_a-init.o)
                              c:/vsarm/armcc/102021~1.10/bin/../lib/gcc/arm-none-eabi/10.3.1/../../../../arm-none-eabi/lib/thumb/v6-m/nofp/crt0.o (__libc_init_array)
c:/vsarm/armcc/102021~1.10/bin/../lib/gcc/arm-none-eabi/10.3.1/../../../../arm-none-eabi/lib/thumb/v6-m/nofp\libg.a(lib_a-lcltime_r.o)
                              CMakeFiles/nano_http_client.dir/C_/Users/yoyom/Desktop/Pico/pico-sdk/src/common/pico_util/datetime.c.obj (localtime_r)
c:/vsarm/armcc/102021~1.10/bin/../lib/gcc/arm-none-eabi/10.3.1/../../../../arm-none-eabi/lib/thumb/v6-m/nofp\libg.a(lib_a-malloc.o)
                              CMakeFiles/nano_http_client.dir/C_/Users/yoyom/Desktop/Pico/pico-sdk/src/rp2_common/pico_malloc/malloc.c.obj (malloc)
c:/vsarm/armcc/102021~1.10/bin/../lib/gcc/arm-none-eabi/10.3.1/../../../../arm-none-eabi/lib/thumb/v6-m/nofp\libg.a(lib_a-mallocr.o)
                              c:/vsarm/armcc/102021~1.10/bin/../lib/gcc/arm-none-eabi/10.3.1/../../../../arm-none-eabi/lib/thumb/v6-m/nofp\libg.a(lib_a-callocr.o) (_malloc_r)
c:/vsarm/armcc/102021~1.10/bin/../lib/gcc/arm-none-eabi/10.3.1/../../../../arm-none-eabi/lib/thumb/v6-m/nofp\libg.a(lib_a-memcmp.o)
                              CMakeFiles/nano_http_client.dir/C_/Users/yoyom/Desktop/Pico/pico-sdk/src/rp2_common/pico_atomic/atomic.c.obj (memcmp)
c:/vsarm/armcc/102021~1.10/bin/../lib/gcc/arm-none-eabi/10.3.1/../../../../arm-none-eabi/lib/thumb/v6-m/nofp\libg.a(lib_a-memmove.o)
                              CMakeFiles/nano_http_client.dir/C_/Users/yoyom/Desktop/Pico/pico-sdk/lib/lwip/src/core/def.c.obj (memmove)
c:/vsarm/armcc/102021~1.10/bin/../lib/gcc/arm-none-eabi/10.3.1/../../../../arm-none-eabi/lib/thumb/v6-m/nofp\libg.a(lib_a-mktime.o)
                              CMakeFiles/nano_http_client.dir/C_/Users/yoyom/Desktop/Pico/pico-sdk/src/common/pico_util/datetime.c.obj (mktime)
c:/vsarm/armcc/102021~1.10/bin/../lib/gcc/arm-none-eabi/10.3.1/../../../../arm-none-eabi/lib/thumb/v6-m/nofp\libg.a(lib_a-mlock.o)
                              c:/vsarm/armcc/102021~1.10/bin/../lib/gcc/arm-none-eabi/10.3.1/../../../../arm-none-eabi/lib/thumb/v6-m/nofp\libg.a(lib_a-mallocr.o) (__malloc_lock)
c:/vsarm/armcc/102021~1.10/bin/../lib/gcc/arm-none-eabi/10.3.1/../../../../arm-none-eabi/lib/thumb/v6-m/nofp\libg.a(lib_a-month_lengths.o)
                              c:/vsarm/armcc/102021~1.10/bin/../lib/gcc/arm-none-eabi/10.3.1/../../../../arm-none-eabi/lib/thumb/v6-m/nofp\libg.a(lib_a-lcltime_r.o) (__month_lengths)
c:/vsarm/armcc/102021~1.10/bin/../lib/gcc/arm-none-eabi/10.3.1/../../../../arm-none-eabi/lib/thumb/v6-m/nofp\libg.a(lib_a-realloc.o)
                              CMakeFiles/nano_http_client.dir/C_/Users/yoyom/Desktop/Pico/pico-sdk/src/rp2_common/pico_malloc/malloc.c.obj (realloc)
c:/vsarm/armcc/102021~1.10/bin/../lib/gcc/arm-none-eabi/10.3.1/../../../../arm-none-eabi/lib/thumb/v6-m/nofp\libg.a(lib_a-reallocr.o)
                              c:/vsarm/armcc/102021~1.10/bin/../lib/gcc/arm-none-eabi/10.3.1/../../../../arm-none-eabi/lib/thumb/v6-m/nofp\libg.a(lib_a-realloc.o) (_realloc_r)
c:/vsarm/armcc/102021~1.10/bin/../lib/gcc/arm-none-eabi/10.3.1/../../../../arm-none-eabi/lib/thumb/v6-m/nofp\libg.a(lib_a-sbrkr.o)
                              c:/vsarm/armcc/102021~1.10/bin/../lib/gcc/arm-none-eabi/10.3.1/../../../../arm-none-eabi/lib/thumb/v6-m/nofp\libg.a(lib_a-mallocr.o) (_sbrk_r)
c:/vsarm/armcc/102021~1.10/bin/../lib/gcc/arm-none-eabi/10.3.1/../../../../arm-none-eabi/lib/thumb/v6-m/nofp\libg.a(lib_a-strlen-stub.o)
                              CMakeFiles/nano_http_client.dir/main.c.obj (strlen)
c:/vsarm/armcc/102021~1.10/bin/../lib/gcc/arm-none-eabi/10.3.1/../../../../arm-none-eabi/lib/thumb/v6-m/nofp\libg.a(lib_a-strncmp.o)
                              CMakeFiles/nano_http_client.dir/C_/Users/yoyom/Desktop/Pico/pico-sdk/lib/lwip/src/core/def.c.obj (strncmp)
c:/vsarm/armcc/102021~1.10/bin/../lib/gcc/arm-none-eabi/10.3.1/../../../../arm-none-eabi/lib/thumb/v6-m/nofp\libg.a(lib_a-strtol.o)
                              c:/vsarm/armcc/102021~1.10/bin/../lib/gcc/arm-none-eabi/10.3.1/../../../../arm-none-eabi/lib/thumb/v6-m/nofp\libg.a(lib_a-atoi.o) (_strtol_r)
c:/vsarm/armcc/102021~1.10/bin/../lib/gcc/arm-none-eabi/10.3.1/../../../../arm-none-eabi/lib/thumb/v6-m/nofp\libg.a(lib_a-tzcalc_limits.o)
                              c:/vsarm/armcc/102021~1.10/bin/../lib/gcc/arm-none-eabi/10.3.1/../../../../arm-none-eabi/lib/thumb/v6-m/nofp\libg.a(lib_a-lcltime_r.o) (__tzcalc_limits)
c:/vsarm/armcc/102021~1.10/bin/../lib/gcc/arm-none-eabi/10.3.1/../../../../arm-none-eabi/lib/thumb/v6-m/nofp\libg.a(lib_a-tzlock.o)
                              c:/vsarm/armcc/102021~1.10/bin/../lib/gcc/arm-none-eabi/10.3.1/../../../../arm-none-eabi/lib/thumb/v6-m/nofp\libg.a(lib_a-lcltime_r.o) (__tz_lock)
c:/vsarm/armcc/102021~1.10/bin/../lib/gcc/arm-none-eabi/10.3.1/../../../../arm-none-eabi/lib/thumb/v6-m/nofp\libg.a(lib_a-tzset.o)
                              c:/vsarm/armcc/102021~1.10/bin/../lib/gcc/arm-none-eabi/10.3.1/../../../../arm-none-eabi/lib/thumb/v6-m/nofp\libg.a(lib_a-lcltime_r.o) (_tzset_unlocked)
c:/vsarm/armcc/102021~1.10/bin/../lib/gcc/arm-none-eabi/10.3.1/../../../../arm-none-eabi/lib/thumb/v6-m/nofp\libg.a(lib_a-tzset_r.o)
                              c:/vsarm/armcc/102021~1.10/bin/../lib/gcc/arm-none-eabi/10.3.1/../../../../arm-none-eabi/lib/thumb/v6-m/nofp\libg.a(lib_a-tzset.o) (_tzset_unlocked_r)
c:/vsarm/armcc/102021~1.10/bin/../lib/gcc/arm-none-eabi/10.3.1/../../../../arm-none-eabi/lib/thumb/v6-m/nofp\libg.a(lib_a-tzvars.o)
                              c:/vsarm/armcc/102021~1.10/bin/../lib/gcc/arm-none-eabi/10.3.1/../../../../arm-none-eabi/lib/thumb/v6-m/nofp\libg.a(lib_a-tzset_r.o) (_timezone)
c:/vsarm/armcc/102021~1.10/bin/../lib/gcc/arm-none-eabi/10.3.1/../../../../arm-none-eabi/lib/thumb/v6-m/nofp\libg.a(lib_a-div.o)
                              c:/vsarm/armcc/102021~1.10/bin/../lib/gcc/arm-none-eabi/10.3.1/../../../../arm-none-eabi/lib/thumb/v6-m/nofp\libg.a(lib_a-mktime.o) (div)
c:/vsarm/armcc/102021~1.10/bin/../lib/gcc/arm-none-eabi/10.3.1/../../../../arm-none-eabi/lib/thumb/v6-m/nofp\libg.a(lib_a-freer.o)
                              c:/vsarm/armcc/102021~1.10/bin/../lib/gcc/arm-none-eabi/10.3.1/../../../../arm-none-eabi/lib/thumb/v6-m/nofp\libg.a(lib_a-malloc.o) (_free_r)
c:/vsarm/armcc/102021~1.10/bin/../lib/gcc/arm-none-eabi/10.3.1/../../../../arm-none-eabi/lib/thumb/v6-m/nofp\libg.a(lib_a-getenv_r.o)
                              c:/vsarm/armcc/102021~1.10/bin/../lib/gcc/arm-none-eabi/10.3.1/../../../../arm-none-eabi/lib/thumb/v6-m/nofp\libg.a(lib_a-tzset_r.o) (_getenv_r)
c:/vsarm/armcc/102021~1.10/bin/../lib/gcc/arm-none-eabi/10.3.1/../../../../arm-none-eabi/lib/thumb/v6-m/nofp\libg.a(lib_a-gettzinfo.o)
                              c:/vsarm/armcc/102021~1.10/bin/../lib/gcc/arm-none-eabi/10.3.1/../../../../arm-none-eabi/lib/thumb/v6-m/nofp\libg.a(lib_a-lcltime_r.o) (__gettzinfo)
c:/vsarm/armcc/102021~1.10/bin/../lib/gcc/arm-none-eabi/10.3.1/../../../../arm-none-eabi/lib/thumb/v6-m/nofp\libg.a(lib_a-gmtime_r.o)
                              c:/vsarm/armcc/102021~1.10/bin/../lib/gcc/arm-none-eabi/10.3.1/../../../../arm-none-eabi/lib/thumb/v6-m/nofp\libg.a(lib_a-lcltime_r.o) (gmtime_r)
c:/vsarm/armcc/102021~1.10/bin/../lib/gcc/arm-none-eabi/10.3.1/../../../../arm-none-eabi/lib/thumb/v6-m/nofp\libg.a(lib_a-lock.o)
                              c:/vsarm/armcc/102021~1.10/bin/../lib/gcc/arm-none-eabi/10.3.1/../../../../arm-none-eabi/lib/thumb/v6-m/nofp\libg.a(lib_a-tzlock.o) (__retarget_lock_acquire)
c:/vsarm/armcc/102021~1.10/bin/../lib/gcc/arm-none-eabi/10.3.1/../../../../arm-none-eabi/lib/thumb/v6-m/nofp\libg.a(lib_a-reent.o)
                              c:/vsarm/armcc/102021~1.10/bin/../lib/gcc/arm-none-eabi/10.3.1/../../../../arm-none-eabi/lib/thumb/v6-m/nofp\libg.a(lib_a-sbrkr.o) (errno)
c:/vsarm/armcc/102021~1.10/bin/../lib/gcc/arm-none-eabi/10.3.1/../../../../arm-none-eabi/lib/thumb/v6-m/nofp\libg.a(lib_a-siscanf.o)
                              c:/vsarm/armcc/102021~1.10/bin/../lib/gcc/arm-none-eabi/10.3.1/../../../../arm-none-eabi/lib/thumb/v6-m/nofp\libg.a(lib_a-tzset_r.o) (siscanf)
c:/vsarm/armcc/102021~1.10/bin/../lib/gcc/arm-none-eabi/10.3.1/../../../../arm-none-eabi/lib/thumb/v6-m/nofp\libg.a(lib_a-stdio.o)
                              c:/vsarm/armcc/102021~1.10/bin/../lib/gcc/arm-none-eabi/10.3.1/../../../../arm-none-eabi/lib/thumb/v6-m/nofp\libg.a(lib_a-siscanf.o) (__seofread)
c:/vsarm/armcc/102021~1.10/bin/../lib/gcc/arm-none-eabi/10.3.1/../../../../arm-none-eabi/lib/thumb/v6-m/nofp\libg.a(lib_a-strcmp.o)
                              c:/vsarm/armcc/102021~1.10/bin/../lib/gcc/arm-none-eabi/10.3.1/../../../../arm-none-eabi/lib/thumb/v6-m/nofp\libg.a(lib_a-tzset_r.o) (strcmp)
c:/vsarm/armcc/102021~1.10/bin/../lib/gcc/arm-none-eabi/10.3.1/../../../../arm-none-eabi/lib/thumb/v6-m/nofp\libg.a(lib_a-strcpy.o)
                              c:/vsarm/armcc/102021~1.10/bin/../lib/gcc/arm-none-eabi/10.3.1/../../../../arm-none-eabi/lib/thumb/v6-m/nofp\libg.a(lib_a-tzset_r.o) (strcpy)
c:/vsarm/armcc/102021~1.10/bin/../lib/gcc/arm-none-eabi/10.3.1/../../../../arm-none-eabi/lib/thumb/v6-m/nofp\libg.a(lib_a-strtoul.o)
                              c:/vsarm/armcc/102021~1.10/bin/../lib/gcc/arm-none-eabi/10.3.1/../../../../arm-none-eabi/lib/thumb/v6-m/nofp\libg.a(lib_a-tzset_r.o) (strtoul)
c:/vsarm/armcc/102021~1.10/bin/../lib/gcc/arm-none-eabi/10.3.1/../../../../arm-none-eabi/lib/thumb/v6-m/nofp\libg.a(lib_a-svfiscanf.o)
                              c:/vsarm/armcc/102021~1.10/bin/../lib/gcc/arm-none-eabi/10.3.1/../../../../arm-none-eabi/lib/thumb/v6-m/nofp\libg.a(lib_a-siscanf.o) (__ssvfiscanf_r)
c:/vsarm/armcc/102021~1.10/bin/../lib/gcc/arm-none-eabi/10.3.1/../../../../arm-none-eabi/lib/thumb/v6-m/nofp\libg.a(lib_a-ungetc.o)
                              c:/vsarm/armcc/102021~1.10/bin/../lib/gcc/arm-none-eabi/10.3.1/../../../../arm-none-eabi/lib/thumb/v6-m/nofp\libg.a(lib_a-svfiscanf.o) (__submore)
c:/vsarm/armcc/102021~1.10/bin/../lib/gcc/arm-none-eabi/10.3.1/../../../../arm-none-eabi/lib/thumb/v6-m/nofp\libg.a(lib_a-writer.o)
                              c:/vsarm/armcc/102021~1.10/bin/../lib/gcc/arm-none-eabi/10.3.1/../../../../arm-none-eabi/lib/thumb/v6-m/nofp\libg.a(lib_a-stdio.o) (_write_r)
c:/vsarm/armcc/102021~1.10/bin/../lib/gcc/arm-none-eabi/10.3.1/../../../../arm-none-eabi/lib/thumb/v6-m/nofp\libg.a(lib_a-closer.o)
                              c:/vsarm/armcc/102021~1.10/bin/../lib/gcc/arm-none-eabi/10.3.1/../../../../arm-none-eabi/lib/thumb/v6-m/nofp\libg.a(lib_a-stdio.o) (_close_r)
c:/vsarm/armcc/102021~1.10/bin/../lib/gcc/arm-none-eabi/10.3.1/../../../../arm-none-eabi/lib/thumb/v6-m/nofp\libg.a(lib_a-environ.o)
                              c:/vsarm/armcc/102021~1.10/bin/../lib/gcc/arm-none-eabi/10.3.1/../../../../arm-none-eabi/lib/thumb/v6-m/nofp\libg.a(lib_a-getenv_r.o) (environ)
c:/vsarm/armcc/102021~1.10/bin/../lib/gcc/arm-none-eabi/10.3.1/../../../../arm-none-eabi/lib/thumb/v6-m/nofp\libg.a(lib_a-envlock.o)
                              c:/vsarm/armcc/102021~1.10/bin/../lib/gcc/arm-none-eabi/10.3.1/../../../../arm-none-eabi/lib/thumb/v6-m/nofp\libg.a(lib_a-getenv_r.o) (__env_lock)
c:/vsarm/armcc/102021~1.10/bin/../lib/gcc/arm-none-eabi/10.3.1/../../../../arm-none-eabi/lib/thumb/v6-m/nofp\libg.a(lib_a-fflush.o)
                              c:/vsarm/armcc/102021~1.10/bin/../lib/gcc/arm-none-eabi/10.3.1/../../../../arm-none-eabi/lib/thumb/v6-m/nofp\libg.a(lib_a-ungetc.o) (_fflush_r)
c:/vsarm/armcc/102021~1.10/bin/../lib/gcc/arm-none-eabi/10.3.1/../../../../arm-none-eabi/lib/thumb/v6-m/nofp\libg.a(lib_a-findfp.o)
                              c:/vsarm/armcc/102021~1.10/bin/../lib/gcc/arm-none-eabi/10.3.1/../../../../arm-none-eabi/lib/thumb/v6-m/nofp\libg.a(lib_a-ungetc.o) (__sinit)
c:/vsarm/armcc/102021~1.10/bin/../lib/gcc/arm-none-eabi/10.3.1/../../../../arm-none-eabi/lib/thumb/v6-m/nofp\libg.a(lib_a-fwalk.o)
                              c:/vsarm/armcc/102021~1.10/bin/../lib/gcc/arm-none-eabi/10.3.1/../../../../arm-none-eabi/lib/thumb/v6-m/nofp\libg.a(lib_a-findfp.o) (_fwalk)
c:/vsarm/armcc/102021~1.10/bin/../lib/gcc/arm-none-eabi/10.3.1/../../../../arm-none-eabi/lib/thumb/v6-m/nofp\libg.a(lib_a-iswspace.o)
                              c:/vsarm/armcc/102021~1.10/bin/../lib/gcc/arm-none-eabi/10.3.1/../../../../arm-none-eabi/lib/thumb/v6-m/nofp\libg.a(lib_a-svfiscanf.o) (iswspace)
c:/vsarm/armcc/102021~1.10/bin/../lib/gcc/arm-none-eabi/10.3.1/../../../../arm-none-eabi/lib/thumb/v6-m/nofp\libg.a(lib_a-iswspace_l.o)
                              c:/vsarm/armcc/102021~1.10/bin/../lib/gcc/arm-none-eabi/10.3.1/../../../../arm-none-eabi/lib/thumb/v6-m/nofp\libg.a(lib_a-iswspace.o) (iswspace_l)
c:/vsarm/armcc/102021~1.10/bin/../lib/gcc/arm-none-eabi/10.3.1/../../../../arm-none-eabi/lib/thumb/v6-m/nofp\libg.a(lib_a-locale.o)
                              c:/vsarm/armcc/102021~1.10/bin/../lib/gcc/arm-none-eabi/10.3.1/../../../../arm-none-eabi/lib/thumb/v6-m/nofp\libg.a(lib_a-svfiscanf.o) (__locale_mb_cur_max)
c:/vsarm/armcc/102021~1.10/bin/../lib/gcc/arm-none-eabi/10.3.1/../../../../arm-none-eabi/lib/thumb/v6-m/nofp\libg.a(lib_a-lseekr.o)
                              c:/vsarm/armcc/102021~1.10/bin/../lib/gcc/arm-none-eabi/10.3.1/../../../../arm-none-eabi/lib/thumb/v6-m/nofp\libg.a(lib_a-stdio.o) (_lseek_r)
c:/vsarm/armcc/102021~1.10/bin/../lib/gcc/arm-none-eabi/10.3.1/../../../../arm-none-eabi/lib/thumb/v6-m/nofp\libg.a(lib_a-mbrtowc.o)
                              c:/vsarm/armcc/102021~1.10/bin/../lib/gcc/arm-none-eabi/10.3.1/../../../../arm-none-eabi/lib/thumb/v6-m/nofp\libg.a(lib_a-svfiscanf.o) (_mbrtowc_r)
c:/vsarm/armcc/102021~1.10/bin/../lib/gcc/arm-none-eabi/10.3.1/../../../../arm-none-eabi/lib/thumb/v6-m/nofp\libg.a(lib_a-mbtowc_r.o)
                              c:/vsarm/armcc/102021~1.10/bin/../lib/gcc/arm-none-eabi/10.3.1/../../../../arm-none-eabi/lib/thumb/v6-m/nofp\libg.a(lib_a-locale.o) (__ascii_mbtowc)
c:/vsarm/armcc/102021~1.10/bin/../lib/gcc/arm-none-eabi/10.3.1/../../../../arm-none-eabi/lib/thumb/v6-m/nofp\libg.a(lib_a-readr.o)
                              c:/vsarm/armcc/102021~1.10/bin/../lib/gcc/arm-none-eabi/10.3.1/../../../../arm-none-eabi/lib/thumb/v6-m/nofp\libg.a(lib_a-stdio.o) (_read_r)
c:/vsarm/armcc/102021~1.10/bin/../lib/gcc/arm-none-eabi/10.3.1/../../../../arm-none-eabi/lib/thumb/v6-m/nofp\libg.a(lib_a-sccl.o)
                              c:/vsarm/armcc/102021~1.10/bin/../lib/gcc/arm-none-eabi/10.3.1/../../../../arm-none-eabi/lib/thumb/v6-m/nofp\libg.a(lib_a-svfiscanf.o) (__sccl)
c:/vsarm/armcc/102021~1.10/bin/../lib/gcc/arm-none-eabi/10.3.1/../../../../arm-none-eabi/lib/thumb/v6-m/nofp\libg.a(lib_a-strtoll.o)
                              c:/vsarm/armcc/102021~1.10/bin/../lib/gcc/arm-none-eabi/10.3.1/../../../../arm-none-eabi/lib/thumb/v6-m/nofp\libg.a(lib_a-svfiscanf.o) (_strtoll_r)
c:/vsarm/armcc/102021~1.10/bin/../lib/gcc/arm-none-eabi/10.3.1/../../../../arm-none-eabi/lib/thumb/v6-m/nofp\libg.a(lib_a-strtoull.o)
                              c:/vsarm/armcc/102021~1.10/bin/../lib/gcc/arm-none-eabi/10.3.1/../../../../arm-none-eabi/lib/thumb/v6-m/nofp\libg.a(lib_a-svfiscanf.o) (_strtoull_r)
c:/vsarm/armcc/102021~1.10/bin/../lib/gcc/arm-none-eabi/10.3.1/../../../../arm-none-eabi/lib/thumb/v6-m/nofp\libg.a(lib_a-wctomb_r.o)
                              c:/vsarm/armcc/102021~1.10/bin/../lib/gcc/arm-none-eabi/10.3.1/../../../../arm-none-eabi/lib/thumb/v6-m/nofp\libg.a(lib_a-locale.o) (__ascii_wctomb)
c:/vsarm/armcc/102021~1.10/bin/../lib/gcc/arm-none-eabi/10.3.1/../../../../arm-none-eabi/lib/thumb/v6-m/nofp\libg.a(lib_a-fclose.o)
                              c:/vsarm/armcc/102021~1.10/bin/../lib/gcc/arm-none-eabi/10.3.1/../../../../arm-none-eabi/lib/thumb/v6-m/nofp\libg.a(lib_a-findfp.o) (_fclose_r)

Discarded input sections

 .text          0x00000000        0x0 c:/vsarm/armcc/102021~1.10/bin/../lib/gcc/arm-none-eabi/10.3.1/thumb/v6-m/nofp/crti.o
 .data          0x00000000        0x0 c:/vsarm/armcc/102021~1.10/bin/../lib/gcc/arm-none-eabi/10.3.1/thumb/v6-m/nofp/crti.o
 .bss           0x00000000        0x0 c:/vsarm/armcc/102021~1.10/bin/../lib/gcc/arm-none-eabi/10.3.1/thumb/v6-m/nofp/crti.o
 .data          0x00000000        0x4 c:/vsarm/armcc/102021~1.10/bin/../lib/gcc/arm-none-eabi/10.3.1/thumb/v6-m/nofp/crtbegin.o
 .rodata        0x00000000       0x24 c:/vsarm/armcc/102021~1.10/bin/../lib/gcc/arm-none-eabi/10.3.1/thumb/v6-m/nofp/crtbegin.o
 .fini_array    0x00000000        0x4 c:/vsarm/armcc/102021~1.10/bin/../lib/gcc/arm-none-eabi/10.3.1/thumb/v6-m/nofp/crtbegin.o
 .text          0x00000000       0x80 c:/vsarm/armcc/102021~1.10/bin/../lib/gcc/arm-none-eabi/10.3.1/../../../../arm-none-eabi/lib/thumb/v6-m/nofp/crt0.o
 .data          0x00000000        0x0 c:/vsarm/armcc/102021~1.10/bin/../lib/gcc/arm-none-eabi/10.3.1/../../../../arm-none-eabi/lib/thumb/v6-m/nofp/crt0.o
 .bss           0x00000000        0x0 c:/vsarm/armcc/102021~1.10/bin/../lib/gcc/arm-none-eabi/10.3.1/../../../../arm-none-eabi/lib/thumb/v6-m/nofp/crt0.o
 .ARM.extab     0x00000000        0x0 c:/vsarm/armcc/102021~1.10/bin/../lib/gcc/arm-none-eabi/10.3.1/../../../../arm-none-eabi/lib/thumb/v6-m/nofp/crt0.o
 .ARM.exidx     0x00000000       0x10 c:/vsarm/armcc/102021~1.10/bin/../lib/gcc/arm-none-eabi/10.3.1/../../../../arm-none-eabi/lib/thumb/v6-m/nofp/crt0.o
 .ARM.attributes
                0x00000000       0x1b c:/vsarm/armcc/102021~1.10/bin/../lib/gcc/arm-none-eabi/10.3.1/../../../../arm-none-eabi/lib/thumb/v6-m/nofp/crt0.o
 .text          0x00000000        0x0 CMakeFiles/nano_http_client.dir/main.c.obj
 .data          0x00000000        0x0 CMakeFiles/nano_http_client.dir/main.c.obj
 .bss           0x00000000        0x0 CMakeFiles/nano_http_client.dir/main.c.obj
 .text.send_http_request
                0x00000000       0xb0 CMakeFiles/nano_http_client.dir/main.c.obj
 .text          0x00000000        0x0 CMakeFiles/nano_http_client.dir/C_/Users/yoyom/Desktop/Pico/pico-sdk/src/rp2_common/pico_stdlib/stdlib.c.obj
 .data          0x00000000        0x0 CMakeFiles/nano_http_client.dir/C_/Users/yoyom/Desktop/Pico/pico-sdk/src/rp2_common/pico_stdlib/stdlib.c.obj
 .bss           0x00000000        0x0 CMakeFiles/nano_http_client.dir/C_/Users/yoyom/Desktop/Pico/pico-sdk/src/rp2_common/pico_stdlib/stdlib.c.obj
 .text.setup_default_uart
                0x00000000       0x2c CMakeFiles/nano_http_client.dir/C_/Users/yoyom/Desktop/Pico/pico-sdk/src/rp2_common/pico_stdlib/stdlib.c.obj
 .binary_info.__bi_ptr24
                0x00000000        0x4 CMakeFiles/nano_http_client.dir/C_/Users/yoyom/Desktop/Pico/pico-sdk/src/rp2_common/pico_stdlib/stdlib.c.obj
 .rodata.__bi_24.0
                0x00000000        0x8 CMakeFiles/nano_http_client.dir/C_/Users/yoyom/Desktop/Pico/pico-sdk/src/rp2_common/pico_stdlib/stdlib.c.obj
 .debug_info    0x00000000      0x374 CMakeFiles/nano_http_client.dir/C_/Users/yoyom/Desktop/Pico/pico-sdk/src/rp2_common/pico_stdlib/stdlib.c.obj
 .debug_abbrev  0x00000000      0x15e CMakeFiles/nano_http_client.dir/C_/Users/yoyom/Desktop/Pico/pico-sdk/src/rp2_common/pico_stdlib/stdlib.c.obj
 .debug_aranges
                0x00000000       0x20 CMakeFiles/nano_http_client.dir/C_/Users/yoyom/Desktop/Pico/pico-sdk/src/rp2_common/pico_stdlib/stdlib.c.obj
 .debug_ranges  0x00000000       0x10 CMakeFiles/nano_http_client.dir/C_/Users/yoyom/Desktop/Pico/pico-sdk/src/rp2_common/pico_stdlib/stdlib.c.obj
 .debug_line    0x00000000      0x3e7 CMakeFiles/nano_http_client.dir/C_/Users/yoyom/Desktop/Pico/pico-sdk/src/rp2_common/pico_stdlib/stdlib.c.obj
 .debug_str     0x00000000      0x3a7 CMakeFiles/nano_http_client.dir/C_/Users/yoyom/Desktop/Pico/pico-sdk/src/rp2_common/pico_stdlib/stdlib.c.obj
 .comment       0x00000000       0x4a CMakeFiles/nano_http_client.dir/C_/Users/yoyom/Desktop/Pico/pico-sdk/src/rp2_common/pico_stdlib/stdlib.c.obj
 .debug_frame   0x00000000       0x28 CMakeFiles/nano_http_client.dir/C_/Users/yoyom/Desktop/Pico/pico-sdk/src/rp2_common/pico_stdlib/stdlib.c.obj
 .ARM.attributes
                0x00000000       0x2c CMakeFiles/nano_http_client.dir/C_/Users/yoyom/Desktop/Pico/pico-sdk/src/rp2_common/pico_stdlib/stdlib.c.obj
 .text          0x00000000        0x0 CMakeFiles/nano_http_client.dir/C_/Users/yoyom/Desktop/Pico/pico-sdk/src/rp2_common/hardware_gpio/gpio.c.obj
 .data          0x00000000        0x0 CMakeFiles/nano_http_client.dir/C_/Users/yoyom/Desktop/Pico/pico-sdk/src/rp2_common/hardware_gpio/gpio.c.obj
 .bss           0x00000000        0x0 CMakeFiles/nano_http_client.dir/C_/Users/yoyom/Desktop/Pico/pico-sdk/src/rp2_common/hardware_gpio/gpio.c.obj
 .text.gpio_default_irq_handler
                0x00000000      0x270 CMakeFiles/nano_http_client.dir/C_/Users/yoyom/Desktop/Pico/pico-sdk/src/rp2_common/hardware_gpio/gpio.c.obj
 .text.gpio_get_pad
                0x00000000       0x20 CMakeFiles/nano_http_client.dir/C_/Users/yoyom/Desktop/Pico/pico-sdk/src/rp2_common/hardware_gpio/gpio.c.obj
 .text.gpio_set_function
                0x00000000       0x34 CMakeFiles/nano_http_client.dir/C_/Users/yoyom/Desktop/Pico/pico-sdk/src/rp2_common/hardware_gpio/gpio.c.obj
 .text.gpio_get_function
                0x00000000       0x14 CMakeFiles/nano_http_client.dir/C_/Users/yoyom/Desktop/Pico/pico-sdk/src/rp2_common/hardware_gpio/gpio.c.obj
 .text.gpio_set_pulls
                0x00000000       0x34 CMakeFiles/nano_http_client.dir/C_/Users/yoyom/Desktop/Pico/pico-sdk/src/rp2_common/hardware_gpio/gpio.c.obj
 .text.gpio_set_irqover
                0x00000000       0x24 CMakeFiles/nano_http_client.dir/C_/Users/yoyom/Desktop/Pico/pico-sdk/src/rp2_common/hardware_gpio/gpio.c.obj
 .text.gpio_set_inover
                0x00000000       0x24 CMakeFiles/nano_http_client.dir/C_/Users/yoyom/Desktop/Pico/pico-sdk/src/rp2_common/hardware_gpio/gpio.c.obj
 .text.gpio_set_outover
                0x00000000       0x24 CMakeFiles/nano_http_client.dir/C_/Users/yoyom/Desktop/Pico/pico-sdk/src/rp2_common/hardware_gpio/gpio.c.obj
 .text.gpio_set_oeover
                0x00000000       0x24 CMakeFiles/nano_http_client.dir/C_/Users/yoyom/Desktop/Pico/pico-sdk/src/rp2_common/hardware_gpio/gpio.c.obj
 .text.gpio_set_input_hysteresis_enabled
                0x00000000       0x28 CMakeFiles/nano_http_client.dir/C_/Users/yoyom/Desktop/Pico/pico-sdk/src/rp2_common/hardware_gpio/gpio.c.obj
 .text.gpio_is_input_hysteresis_enabled
                0x00000000       0x14 CMakeFiles/nano_http_client.dir/C_/Users/yoyom/Desktop/Pico/pico-sdk/src/rp2_common/hardware_gpio/gpio.c.obj
 .text.gpio_set_slew_rate
                0x00000000       0x20 CMakeFiles/nano_http_client.dir/C_/Users/yoyom/Desktop/Pico/pico-sdk/src/rp2_common/hardware_gpio/gpio.c.obj
 .text.gpio_get_slew_rate
                0x00000000       0x14 CMakeFiles/nano_http_client.dir/C_/Users/yoyom/Desktop/Pico/pico-sdk/src/rp2_common/hardware_gpio/gpio.c.obj
 .text.gpio_set_drive_strength
                0x00000000       0x24 CMakeFiles/nano_http_client.dir/C_/Users/yoyom/Desktop/Pico/pico-sdk/src/rp2_common/hardware_gpio/gpio.c.obj
 .text.gpio_get_drive_strength
                0x00000000       0x14 CMakeFiles/nano_http_client.dir/C_/Users/yoyom/Desktop/Pico/pico-sdk/src/rp2_common/hardware_gpio/gpio.c.obj
 .text.gpio_set_irq_enabled
                0x00000000       0x58 CMakeFiles/nano_http_client.dir/C_/Users/yoyom/Desktop/Pico/pico-sdk/src/rp2_common/hardware_gpio/gpio.c.obj
 .text.gpio_set_irq_enabled_with_callback
                0x00000000       0xd0 CMakeFiles/nano_http_client.dir/C_/Users/yoyom/Desktop/Pico/pico-sdk/src/rp2_common/hardware_gpio/gpio.c.obj
 .text.gpio_set_irq_callback
                0x00000000       0x40 CMakeFiles/nano_http_client.dir/C_/Users/yoyom/Desktop/Pico/pico-sdk/src/rp2_common/hardware_gpio/gpio.c.obj
 .text.gpio_add_raw_irq_handler_with_order_priority_masked
                0x00000000       0x44 CMakeFiles/nano_http_client.dir/C_/Users/yoyom/Desktop/Pico/pico-sdk/src/rp2_common/hardware_gpio/gpio.c.obj
 .text.gpio_add_raw_irq_handler_with_order_priority_masked64
                0x00000000       0x54 CMakeFiles/nano_http_client.dir/C_/Users/yoyom/Desktop/Pico/pico-sdk/src/rp2_common/hardware_gpio/gpio.c.obj
 .text.gpio_add_raw_irq_handler_masked
                0x00000000       0x38 CMakeFiles/nano_http_client.dir/C_/Users/yoyom/Desktop/Pico/pico-sdk/src/rp2_common/hardware_gpio/gpio.c.obj
 .text.gpio_add_raw_irq_handler_masked64
                0x00000000       0x44 CMakeFiles/nano_http_client.dir/C_/Users/yoyom/Desktop/Pico/pico-sdk/src/rp2_common/hardware_gpio/gpio.c.obj
 .text.gpio_remove_raw_irq_handler_masked
                0x00000000       0x20 CMakeFiles/nano_http_client.dir/C_/Users/yoyom/Desktop/Pico/pico-sdk/src/rp2_common/hardware_gpio/gpio.c.obj
 .text.gpio_remove_raw_irq_handler_masked64
                0x00000000       0x24 CMakeFiles/nano_http_client.dir/C_/Users/yoyom/Desktop/Pico/pico-sdk/src/rp2_common/hardware_gpio/gpio.c.obj
 .text.gpio_set_dormant_irq_enabled
                0x00000000       0x40 CMakeFiles/nano_http_client.dir/C_/Users/yoyom/Desktop/Pico/pico-sdk/src/rp2_common/hardware_gpio/gpio.c.obj
 .text.gpio_acknowledge_irq
                0x00000000       0x1c CMakeFiles/nano_http_client.dir/C_/Users/yoyom/Desktop/Pico/pico-sdk/src/rp2_common/hardware_gpio/gpio.c.obj
 .text.gpio_debug_pins_init
                0x00000000       0x74 CMakeFiles/nano_http_client.dir/C_/Users/yoyom/Desktop/Pico/pico-sdk/src/rp2_common/hardware_gpio/gpio.c.obj
 .text.gpio_set_input_enabled
                0x00000000       0x28 CMakeFiles/nano_http_client.dir/C_/Users/yoyom/Desktop/Pico/pico-sdk/src/rp2_common/hardware_gpio/gpio.c.obj
 .text.gpio_init
                0x00000000       0x40 CMakeFiles/nano_http_client.dir/C_/Users/yoyom/Desktop/Pico/pico-sdk/src/rp2_common/hardware_gpio/gpio.c.obj
 .text.gpio_deinit
                0x00000000       0x34 CMakeFiles/nano_http_client.dir/C_/Users/yoyom/Desktop/Pico/pico-sdk/src/rp2_common/hardware_gpio/gpio.c.obj
 .text.gpio_init_mask
                0x00000000       0x64 CMakeFiles/nano_http_client.dir/C_/Users/yoyom/Desktop/Pico/pico-sdk/src/rp2_common/hardware_gpio/gpio.c.obj
 .text.gpio_set_function_masked
                0x00000000       0x48 CMakeFiles/nano_http_client.dir/C_/Users/yoyom/Desktop/Pico/pico-sdk/src/rp2_common/hardware_gpio/gpio.c.obj
 .text.gpio_set_function_masked64
                0x00000000       0x5c CMakeFiles/nano_http_client.dir/C_/Users/yoyom/Desktop/Pico/pico-sdk/src/rp2_common/hardware_gpio/gpio.c.obj
 .bss.callbacks
                0x00000000        0x8 CMakeFiles/nano_http_client.dir/C_/Users/yoyom/Desktop/Pico/pico-sdk/src/rp2_common/hardware_gpio/gpio.c.obj
 .bss.raw_irq_mask
                0x00000000        0x8 CMakeFiles/nano_http_client.dir/C_/Users/yoyom/Desktop/Pico/pico-sdk/src/rp2_common/hardware_gpio/gpio.c.obj
 .debug_info    0x00000000     0x2504 CMakeFiles/nano_http_client.dir/C_/Users/yoyom/Desktop/Pico/pico-sdk/src/rp2_common/hardware_gpio/gpio.c.obj
 .debug_abbrev  0x00000000      0x4b6 CMakeFiles/nano_http_client.dir/C_/Users/yoyom/Desktop/Pico/pico-sdk/src/rp2_common/hardware_gpio/gpio.c.obj
 .debug_loc     0x00000000     0x2956 CMakeFiles/nano_http_client.dir/C_/Users/yoyom/Desktop/Pico/pico-sdk/src/rp2_common/hardware_gpio/gpio.c.obj
 .debug_aranges
                0x00000000      0x120 CMakeFiles/nano_http_client.dir/C_/Users/yoyom/Desktop/Pico/pico-sdk/src/rp2_common/hardware_gpio/gpio.c.obj
 .debug_ranges  0x00000000      0xd28 CMakeFiles/nano_http_client.dir/C_/Users/yoyom/Desktop/Pico/pico-sdk/src/rp2_common/hardware_gpio/gpio.c.obj
 .debug_line    0x00000000     0x1cd6 CMakeFiles/nano_http_client.dir/C_/Users/yoyom/Desktop/Pico/pico-sdk/src/rp2_common/hardware_gpio/gpio.c.obj
 .debug_str     0x00000000      0xc7e CMakeFiles/nano_http_client.dir/C_/Users/yoyom/Desktop/Pico/pico-sdk/src/rp2_common/hardware_gpio/gpio.c.obj
 .comment       0x00000000       0x4a CMakeFiles/nano_http_client.dir/C_/Users/yoyom/Desktop/Pico/pico-sdk/src/rp2_common/hardware_gpio/gpio.c.obj
 .debug_frame   0x00000000      0x330 CMakeFiles/nano_http_client.dir/C_/Users/yoyom/Desktop/Pico/pico-sdk/src/rp2_common/hardware_gpio/gpio.c.obj
 .ARM.attributes
                0x00000000       0x2c CMakeFiles/nano_http_client.dir/C_/Users/yoyom/Desktop/Pico/pico-sdk/src/rp2_common/hardware_gpio/gpio.c.obj
 .text          0x00000000        0x0 CMakeFiles/nano_http_client.dir/C_/Users/yoyom/Desktop/Pico/pico-sdk/src/rp2040/pico_platform/platform.c.obj
 .data          0x00000000        0x0 CMakeFiles/nano_http_client.dir/C_/Users/yoyom/Desktop/Pico/pico-sdk/src/rp2040/pico_platform/platform.c.obj
 .bss           0x00000000        0x0 CMakeFiles/nano_http_client.dir/C_/Users/yoyom/Desktop/Pico/pico-sdk/src/rp2040/pico_platform/platform.c.obj
 .text          0x00000000        0x0 CMakeFiles/nano_http_client.dir/C_/Users/yoyom/Desktop/Pico/pico-sdk/src/rp2_common/pico_platform_panic/panic.c.obj
 .data          0x00000000        0x0 CMakeFiles/nano_http_client.dir/C_/Users/yoyom/Desktop/Pico/pico-sdk/src/rp2_common/pico_platform_panic/panic.c.obj
 .bss           0x00000000        0x0 CMakeFiles/nano_http_client.dir/C_/Users/yoyom/Desktop/Pico/pico-sdk/src/rp2_common/pico_platform_panic/panic.c.obj
 .rodata.panic_unsupported.str1.4
                0x00000000        0xe CMakeFiles/nano_http_client.dir/C_/Users/yoyom/Desktop/Pico/pico-sdk/src/rp2_common/pico_platform_panic/panic.c.obj
 .text.panic_unsupported
                0x00000000        0xc CMakeFiles/nano_http_client.dir/C_/Users/yoyom/Desktop/Pico/pico-sdk/src/rp2_common/pico_platform_panic/panic.c.obj
 .text          0x00000000        0x0 CMakeFiles/nano_http_client.dir/C_/Users/yoyom/Desktop/Pico/pico-sdk/src/common/hardware_claim/claim.c.obj
 .data          0x00000000        0x0 CMakeFiles/nano_http_client.dir/C_/Users/yoyom/Desktop/Pico/pico-sdk/src/common/hardware_claim/claim.c.obj
 .bss           0x00000000        0x0 CMakeFiles/nano_http_client.dir/C_/Users/yoyom/Desktop/Pico/pico-sdk/src/common/hardware_claim/claim.c.obj
 .text.hw_claim_lock
                0x00000000       0x18 CMakeFiles/nano_http_client.dir/C_/Users/yoyom/Desktop/Pico/pico-sdk/src/common/hardware_claim/claim.c.obj
 .text.hw_claim_unlock
                0x00000000       0x14 CMakeFiles/nano_http_client.dir/C_/Users/yoyom/Desktop/Pico/pico-sdk/src/common/hardware_claim/claim.c.obj
 .text.hw_is_claimed
                0x00000000       0x18 CMakeFiles/nano_http_client.dir/C_/Users/yoyom/Desktop/Pico/pico-sdk/src/common/hardware_claim/claim.c.obj
 .text.hw_claim_clear
                0x00000000       0x38 CMakeFiles/nano_http_client.dir/C_/Users/yoyom/Desktop/Pico/pico-sdk/src/common/hardware_claim/claim.c.obj
 .text          0x00000000        0x0 CMakeFiles/nano_http_client.dir/C_/Users/yoyom/Desktop/Pico/pico-sdk/src/rp2_common/hardware_sync/sync.c.obj
 .data          0x00000000        0x0 CMakeFiles/nano_http_client.dir/C_/Users/yoyom/Desktop/Pico/pico-sdk/src/rp2_common/hardware_sync/sync.c.obj
 .bss           0x00000000        0x0 CMakeFiles/nano_http_client.dir/C_/Users/yoyom/Desktop/Pico/pico-sdk/src/rp2_common/hardware_sync/sync.c.obj
 .rodata.spin_lock_claim.str1.4
                0x00000000       0x1f CMakeFiles/nano_http_client.dir/C_/Users/yoyom/Desktop/Pico/pico-sdk/src/rp2_common/hardware_sync/sync.c.obj
 .text.spin_lock_claim
                0x00000000       0x18 CMakeFiles/nano_http_client.dir/C_/Users/yoyom/Desktop/Pico/pico-sdk/src/rp2_common/hardware_sync/sync.c.obj
 .text.spin_lock_claim_mask
                0x00000000       0x40 CMakeFiles/nano_http_client.dir/C_/Users/yoyom/Desktop/Pico/pico-sdk/src/rp2_common/hardware_sync/sync.c.obj
 .text.spin_lock_unclaim
                0x00000000       0x24 CMakeFiles/nano_http_client.dir/C_/Users/yoyom/Desktop/Pico/pico-sdk/src/rp2_common/hardware_sync/sync.c.obj
 .text.spin_lock_is_claimed
                0x00000000       0x10 CMakeFiles/nano_http_client.dir/C_/Users/yoyom/Desktop/Pico/pico-sdk/src/rp2_common/hardware_sync/sync.c.obj
 .text          0x00000000        0x0 CMakeFiles/nano_http_client.dir/C_/Users/yoyom/Desktop/Pico/pico-sdk/src/rp2_common/hardware_sync_spin_lock/sync_spin_lock.c.obj
 .data          0x00000000        0x0 CMakeFiles/nano_http_client.dir/C_/Users/yoyom/Desktop/Pico/pico-sdk/src/rp2_common/hardware_sync_spin_lock/sync_spin_lock.c.obj
 .bss           0x00000000        0x0 CMakeFiles/nano_http_client.dir/C_/Users/yoyom/Desktop/Pico/pico-sdk/src/rp2_common/hardware_sync_spin_lock/sync_spin_lock.c.obj
 .text.spin_lock_init
                0x00000000       0x18 CMakeFiles/nano_http_client.dir/C_/Users/yoyom/Desktop/Pico/pico-sdk/src/rp2_common/hardware_sync_spin_lock/sync_spin_lock.c.obj
 .text          0x00000000        0x0 CMakeFiles/nano_http_client.dir/C_/Users/yoyom/Desktop/Pico/pico-sdk/src/rp2_common/hardware_irq/irq.c.obj
 .data          0x00000000        0x0 CMakeFiles/nano_http_client.dir/C_/Users/yoyom/Desktop/Pico/pico-sdk/src/rp2_common/hardware_irq/irq.c.obj
 .bss           0x00000000        0x0 CMakeFiles/nano_http_client.dir/C_/Users/yoyom/Desktop/Pico/pico-sdk/src/rp2_common/hardware_irq/irq.c.obj
 .text.irq_set_mask_enabled
                0x00000000       0x1c CMakeFiles/nano_http_client.dir/C_/Users/yoyom/Desktop/Pico/pico-sdk/src/rp2_common/hardware_irq/irq.c.obj
 .text.irq_set_mask_n_enabled
                0x00000000       0x1c CMakeFiles/nano_http_client.dir/C_/Users/yoyom/Desktop/Pico/pico-sdk/src/rp2_common/hardware_irq/irq.c.obj
 .text.irq_get_vtable_handler
                0x00000000       0x10 CMakeFiles/nano_http_client.dir/C_/Users/yoyom/Desktop/Pico/pico-sdk/src/rp2_common/hardware_irq/irq.c.obj
 .text.irq_get_exclusive_handler
                0x00000000       0x50 CMakeFiles/nano_http_client.dir/C_/Users/yoyom/Desktop/Pico/pico-sdk/src/rp2_common/hardware_irq/irq.c.obj
 .text.irq_remove_handler
                0x00000000      0x1c4 CMakeFiles/nano_http_client.dir/C_/Users/yoyom/Desktop/Pico/pico-sdk/src/rp2_common/hardware_irq/irq.c.obj
 .text.irq_set_priority
                0x00000000       0x28 CMakeFiles/nano_http_client.dir/C_/Users/yoyom/Desktop/Pico/pico-sdk/src/rp2_common/hardware_irq/irq.c.obj
 .text.irq_get_priority
                0x00000000       0x20 CMakeFiles/nano_http_client.dir/C_/Users/yoyom/Desktop/Pico/pico-sdk/src/rp2_common/hardware_irq/irq.c.obj
 .rodata.user_irq_claim.str1.4
                0x00000000       0x1c CMakeFiles/nano_http_client.dir/C_/Users/yoyom/Desktop/Pico/pico-sdk/src/rp2_common/hardware_irq/irq.c.obj
 .text.user_irq_claim
                0x00000000       0x18 CMakeFiles/nano_http_client.dir/C_/Users/yoyom/Desktop/Pico/pico-sdk/src/rp2_common/hardware_irq/irq.c.obj
 .text.user_irq_unclaim
                0x00000000       0x14 CMakeFiles/nano_http_client.dir/C_/Users/yoyom/Desktop/Pico/pico-sdk/src/rp2_common/hardware_irq/irq.c.obj
 .text.user_irq_is_claimed
                0x00000000       0x14 CMakeFiles/nano_http_client.dir/C_/Users/yoyom/Desktop/Pico/pico-sdk/src/rp2_common/hardware_irq/irq.c.obj
 .text          0x00000000        0x0 CMakeFiles/nano_http_client.dir/C_/Users/yoyom/Desktop/Pico/pico-sdk/src/rp2_common/hardware_irq/irq_handler_chain.S.obj
 .bss           0x00000000        0x0 CMakeFiles/nano_http_client.dir/C_/Users/yoyom/Desktop/Pico/pico-sdk/src/rp2_common/hardware_irq/irq_handler_chain.S.obj
 .text          0x00000000        0x0 CMakeFiles/nano_http_client.dir/C_/Users/yoyom/Desktop/Pico/pico-sdk/src/common/pico_sync/sem.c.obj
 .data          0x00000000        0x0 CMakeFiles/nano_http_client.dir/C_/Users/yoyom/Desktop/Pico/pico-sdk/src/common/pico_sync/sem.c.obj
 .bss           0x00000000        0x0 CMakeFiles/nano_http_client.dir/C_/Users/yoyom/Desktop/Pico/pico-sdk/src/common/pico_sync/sem.c.obj
 .text.sem_init
                0x00000000       0x20 CMakeFiles/nano_http_client.dir/C_/Users/yoyom/Desktop/Pico/pico-sdk/src/common/pico_sync/sem.c.obj
 .time_critical.sem_available
                0x00000000        0x8 CMakeFiles/nano_http_client.dir/C_/Users/yoyom/Desktop/Pico/pico-sdk/src/common/pico_sync/sem.c.obj
 .time_critical.sem_acquire_blocking
                0x00000000       0x44 CMakeFiles/nano_http_client.dir/C_/Users/yoyom/Desktop/Pico/pico-sdk/src/common/pico_sync/sem.c.obj
 .time_critical.sem_acquire_timeout_ms
                0x00000000       0x80 CMakeFiles/nano_http_client.dir/C_/Users/yoyom/Desktop/Pico/pico-sdk/src/common/pico_sync/sem.c.obj
 .time_critical.sem_acquire_timeout_us
                0x00000000       0x74 CMakeFiles/nano_http_client.dir/C_/Users/yoyom/Desktop/Pico/pico-sdk/src/common/pico_sync/sem.c.obj
 .time_critical.sem_acquire_block_until
                0x00000000       0x68 CMakeFiles/nano_http_client.dir/C_/Users/yoyom/Desktop/Pico/pico-sdk/src/common/pico_sync/sem.c.obj
 .time_critical.sem_try_acquire
                0x00000000       0x44 CMakeFiles/nano_http_client.dir/C_/Users/yoyom/Desktop/Pico/pico-sdk/src/common/pico_sync/sem.c.obj
 .time_critical.sem_release
                0x00000000       0x4c CMakeFiles/nano_http_client.dir/C_/Users/yoyom/Desktop/Pico/pico-sdk/src/common/pico_sync/sem.c.obj
 .time_critical.sem_reset
                0x00000000       0x40 CMakeFiles/nano_http_client.dir/C_/Users/yoyom/Desktop/Pico/pico-sdk/src/common/pico_sync/sem.c.obj
 .debug_info    0x00000000     0x1653 CMakeFiles/nano_http_client.dir/C_/Users/yoyom/Desktop/Pico/pico-sdk/src/common/pico_sync/sem.c.obj
 .debug_abbrev  0x00000000      0x308 CMakeFiles/nano_http_client.dir/C_/Users/yoyom/Desktop/Pico/pico-sdk/src/common/pico_sync/sem.c.obj
 .debug_loc     0x00000000      0xd89 CMakeFiles/nano_http_client.dir/C_/Users/yoyom/Desktop/Pico/pico-sdk/src/common/pico_sync/sem.c.obj
 .debug_aranges
                0x00000000       0x60 CMakeFiles/nano_http_client.dir/C_/Users/yoyom/Desktop/Pico/pico-sdk/src/common/pico_sync/sem.c.obj
 .debug_ranges  0x00000000      0xa00 CMakeFiles/nano_http_client.dir/C_/Users/yoyom/Desktop/Pico/pico-sdk/src/common/pico_sync/sem.c.obj
 .debug_line    0x00000000      0xe73 CMakeFiles/nano_http_client.dir/C_/Users/yoyom/Desktop/Pico/pico-sdk/src/common/pico_sync/sem.c.obj
 .debug_str     0x00000000      0x508 CMakeFiles/nano_http_client.dir/C_/Users/yoyom/Desktop/Pico/pico-sdk/src/common/pico_sync/sem.c.obj
 .comment       0x00000000       0x4a CMakeFiles/nano_http_client.dir/C_/Users/yoyom/Desktop/Pico/pico-sdk/src/common/pico_sync/sem.c.obj
 .debug_frame   0x00000000       0xf4 CMakeFiles/nano_http_client.dir/C_/Users/yoyom/Desktop/Pico/pico-sdk/src/common/pico_sync/sem.c.obj
 .ARM.attributes
                0x00000000       0x2c CMakeFiles/nano_http_client.dir/C_/Users/yoyom/Desktop/Pico/pico-sdk/src/common/pico_sync/sem.c.obj
 .text          0x00000000        0x0 CMakeFiles/nano_http_client.dir/C_/Users/yoyom/Desktop/Pico/pico-sdk/src/common/pico_sync/lock_core.c.obj
 .data          0x00000000        0x0 CMakeFiles/nano_http_client.dir/C_/Users/yoyom/Desktop/Pico/pico-sdk/src/common/pico_sync/lock_core.c.obj
 .bss           0x00000000        0x0 CMakeFiles/nano_http_client.dir/C_/Users/yoyom/Desktop/Pico/pico-sdk/src/common/pico_sync/lock_core.c.obj
 .text          0x00000000        0x0 CMakeFiles/nano_http_client.dir/C_/Users/yoyom/Desktop/Pico/pico-sdk/src/common/pico_sync/mutex.c.obj
 .data          0x00000000        0x0 CMakeFiles/nano_http_client.dir/C_/Users/yoyom/Desktop/Pico/pico-sdk/src/common/pico_sync/mutex.c.obj
 .bss           0x00000000        0x0 CMakeFiles/nano_http_client.dir/C_/Users/yoyom/Desktop/Pico/pico-sdk/src/common/pico_sync/mutex.c.obj
 .text.recursive_mutex_init
                0x00000000       0x1c CMakeFiles/nano_http_client.dir/C_/Users/yoyom/Desktop/Pico/pico-sdk/src/common/pico_sync/mutex.c.obj
 .time_critical.mutex_enter_blocking
                0x00000000       0x48 CMakeFiles/nano_http_client.dir/C_/Users/yoyom/Desktop/Pico/pico-sdk/src/common/pico_sync/mutex.c.obj
 .time_critical.recursive_mutex_enter_blocking
                0x00000000       0x54 CMakeFiles/nano_http_client.dir/C_/Users/yoyom/Desktop/Pico/pico-sdk/src/common/pico_sync/mutex.c.obj
 .time_critical.recursive_mutex_try_enter
                0x00000000       0x54 CMakeFiles/nano_http_client.dir/C_/Users/yoyom/Desktop/Pico/pico-sdk/src/common/pico_sync/mutex.c.obj
 .time_critical.recursive_mutex_enter_timeout_ms
                0x00000000       0x9c CMakeFiles/nano_http_client.dir/C_/Users/yoyom/Desktop/Pico/pico-sdk/src/common/pico_sync/mutex.c.obj
 .time_critical.mutex_enter_timeout_us
                0x00000000       0x80 CMakeFiles/nano_http_client.dir/C_/Users/yoyom/Desktop/Pico/pico-sdk/src/common/pico_sync/mutex.c.obj
 .time_critical.recursive_mutex_enter_timeout_us
                0x00000000       0x90 CMakeFiles/nano_http_client.dir/C_/Users/yoyom/Desktop/Pico/pico-sdk/src/common/pico_sync/mutex.c.obj
 .time_critical.mutex_enter_block_until
                0x00000000       0x74 CMakeFiles/nano_http_client.dir/C_/Users/yoyom/Desktop/Pico/pico-sdk/src/common/pico_sync/mutex.c.obj
 .time_critical.recursive_mutex_enter_block_until
                0x00000000       0x80 CMakeFiles/nano_http_client.dir/C_/Users/yoyom/Desktop/Pico/pico-sdk/src/common/pico_sync/mutex.c.obj
 .time_critical.recursive_mutex_exit
                0x00000000       0x44 CMakeFiles/nano_http_client.dir/C_/Users/yoyom/Desktop/Pico/pico-sdk/src/common/pico_sync/mutex.c.obj
 .text          0x00000000        0x0 CMakeFiles/nano_http_client.dir/C_/Users/yoyom/Desktop/Pico/pico-sdk/src/common/pico_sync/critical_section.c.obj
 .data          0x00000000        0x0 CMakeFiles/nano_http_client.dir/C_/Users/yoyom/Desktop/Pico/pico-sdk/src/common/pico_sync/critical_section.c.obj
 .bss           0x00000000        0x0 CMakeFiles/nano_http_client.dir/C_/Users/yoyom/Desktop/Pico/pico-sdk/src/common/pico_sync/critical_section.c.obj
 .text.critical_section_deinit
                0x00000000       0x1c CMakeFiles/nano_http_client.dir/C_/Users/yoyom/Desktop/Pico/pico-sdk/src/common/pico_sync/critical_section.c.obj
 .text          0x00000000        0x0 CMakeFiles/nano_http_client.dir/C_/Users/yoyom/Desktop/Pico/pico-sdk/src/common/pico_time/time.c.obj
 .data          0x00000000        0x0 CMakeFiles/nano_http_client.dir/C_/Users/yoyom/Desktop/Pico/pico-sdk/src/common/pico_time/time.c.obj
 .bss           0x00000000        0x0 CMakeFiles/nano_http_client.dir/C_/Users/yoyom/Desktop/Pico/pico-sdk/src/common/pico_time/time.c.obj
 .text.alarm_pool_init_default
                0x00000000        0x8 CMakeFiles/nano_http_client.dir/C_/Users/yoyom/Desktop/Pico/pico-sdk/src/common/pico_time/time.c.obj
 .text.alarm_pool_create_on_timer
                0x00000000       0xb4 CMakeFiles/nano_http_client.dir/C_/Users/yoyom/Desktop/Pico/pico-sdk/src/common/pico_time/time.c.obj
 .text.alarm_pool_create_on_timer_with_unused_hardware_alarm
                0x00000000       0xa8 CMakeFiles/nano_http_client.dir/C_/Users/yoyom/Desktop/Pico/pico-sdk/src/common/pico_time/time.c.obj
 .text.alarm_pool_destroy
                0x00000000       0x58 CMakeFiles/nano_http_client.dir/C_/Users/yoyom/Desktop/Pico/pico-sdk/src/common/pico_time/time.c.obj
 .text.alarm_pool_timer_alarm_num
                0x00000000        0x4 CMakeFiles/nano_http_client.dir/C_/Users/yoyom/Desktop/Pico/pico-sdk/src/common/pico_time/time.c.obj
 .text.sleep_us
                0x00000000       0x24 CMakeFiles/nano_http_client.dir/C_/Users/yoyom/Desktop/Pico/pico-sdk/src/common/pico_time/time.c.obj
 .text.alarm_pool_add_repeating_timer_us
                0x00000000      0x120 CMakeFiles/nano_http_client.dir/C_/Users/yoyom/Desktop/Pico/pico-sdk/src/common/pico_time/time.c.obj
 .text.cancel_repeating_timer
                0x00000000       0x8c CMakeFiles/nano_http_client.dir/C_/Users/yoyom/Desktop/Pico/pico-sdk/src/common/pico_time/time.c.obj
 .text.alarm_pool_timer_for_timer_num
                0x00000000        0x8 CMakeFiles/nano_http_client.dir/C_/Users/yoyom/Desktop/Pico/pico-sdk/src/common/pico_time/time.c.obj
 .text.alarm_pool_get_default_timer
                0x00000000        0x8 CMakeFiles/nano_http_client.dir/C_/Users/yoyom/Desktop/Pico/pico-sdk/src/common/pico_time/time.c.obj
 .text.alarm_pool_remaining_alarm_time_us
                0x00000000       0x90 CMakeFiles/nano_http_client.dir/C_/Users/yoyom/Desktop/Pico/pico-sdk/src/common/pico_time/time.c.obj
 .text.alarm_pool_remaining_alarm_time_ms
                0x00000000       0xd4 CMakeFiles/nano_http_client.dir/C_/Users/yoyom/Desktop/Pico/pico-sdk/src/common/pico_time/time.c.obj
 .text.remaining_alarm_time_us
                0x00000000       0x94 CMakeFiles/nano_http_client.dir/C_/Users/yoyom/Desktop/Pico/pico-sdk/src/common/pico_time/time.c.obj
 .text.remaining_alarm_time_ms
                0x00000000       0xd8 CMakeFiles/nano_http_client.dir/C_/Users/yoyom/Desktop/Pico/pico-sdk/src/common/pico_time/time.c.obj
 .rodata.at_the_end_of_time
                0x00000000        0x8 CMakeFiles/nano_http_client.dir/C_/Users/yoyom/Desktop/Pico/pico-sdk/src/common/pico_time/time.c.obj
 .rodata.nil_time
                0x00000000        0x8 CMakeFiles/nano_http_client.dir/C_/Users/yoyom/Desktop/Pico/pico-sdk/src/common/pico_time/time.c.obj
 .text          0x00000000        0x0 CMakeFiles/nano_http_client.dir/C_/Users/yoyom/Desktop/Pico/pico-sdk/src/common/pico_time/timeout_helper.c.obj
 .data          0x00000000        0x0 CMakeFiles/nano_http_client.dir/C_/Users/yoyom/Desktop/Pico/pico-sdk/src/common/pico_time/timeout_helper.c.obj
 .bss           0x00000000        0x0 CMakeFiles/nano_http_client.dir/C_/Users/yoyom/Desktop/Pico/pico-sdk/src/common/pico_time/timeout_helper.c.obj
 .text.check_single_timeout_us
                0x00000000       0x28 CMakeFiles/nano_http_client.dir/C_/Users/yoyom/Desktop/Pico/pico-sdk/src/common/pico_time/timeout_helper.c.obj
 .text.check_per_iteration_timeout_us
                0x00000000       0x58 CMakeFiles/nano_http_client.dir/C_/Users/yoyom/Desktop/Pico/pico-sdk/src/common/pico_time/timeout_helper.c.obj
 .text.init_single_timeout_until
                0x00000000        0xc CMakeFiles/nano_http_client.dir/C_/Users/yoyom/Desktop/Pico/pico-sdk/src/common/pico_time/timeout_helper.c.obj
 .text.init_per_iteration_timeout_us
                0x00000000       0x30 CMakeFiles/nano_http_client.dir/C_/Users/yoyom/Desktop/Pico/pico-sdk/src/common/pico_time/timeout_helper.c.obj
 .debug_info    0x00000000      0x6dd CMakeFiles/nano_http_client.dir/C_/Users/yoyom/Desktop/Pico/pico-sdk/src/common/pico_time/timeout_helper.c.obj
 .debug_abbrev  0x00000000      0x248 CMakeFiles/nano_http_client.dir/C_/Users/yoyom/Desktop/Pico/pico-sdk/src/common/pico_time/timeout_helper.c.obj
 .debug_loc     0x00000000      0x5b6 CMakeFiles/nano_http_client.dir/C_/Users/yoyom/Desktop/Pico/pico-sdk/src/common/pico_time/timeout_helper.c.obj
 .debug_aranges
                0x00000000       0x38 CMakeFiles/nano_http_client.dir/C_/Users/yoyom/Desktop/Pico/pico-sdk/src/common/pico_time/timeout_helper.c.obj
 .debug_ranges  0x00000000      0x228 CMakeFiles/nano_http_client.dir/C_/Users/yoyom/Desktop/Pico/pico-sdk/src/common/pico_time/timeout_helper.c.obj
 .debug_line    0x00000000      0x53b CMakeFiles/nano_http_client.dir/C_/Users/yoyom/Desktop/Pico/pico-sdk/src/common/pico_time/timeout_helper.c.obj
 .debug_str     0x00000000      0x3f5 CMakeFiles/nano_http_client.dir/C_/Users/yoyom/Desktop/Pico/pico-sdk/src/common/pico_time/timeout_helper.c.obj
 .comment       0x00000000       0x4a CMakeFiles/nano_http_client.dir/C_/Users/yoyom/Desktop/Pico/pico-sdk/src/common/pico_time/timeout_helper.c.obj
 .debug_frame   0x00000000       0x74 CMakeFiles/nano_http_client.dir/C_/Users/yoyom/Desktop/Pico/pico-sdk/src/common/pico_time/timeout_helper.c.obj
 .ARM.attributes
                0x00000000       0x2c CMakeFiles/nano_http_client.dir/C_/Users/yoyom/Desktop/Pico/pico-sdk/src/common/pico_time/timeout_helper.c.obj
 .text          0x00000000        0x0 CMakeFiles/nano_http_client.dir/C_/Users/yoyom/Desktop/Pico/pico-sdk/src/rp2_common/hardware_timer/timer.c.obj
 .data          0x00000000        0x0 CMakeFiles/nano_http_client.dir/C_/Users/yoyom/Desktop/Pico/pico-sdk/src/rp2_common/hardware_timer/timer.c.obj
 .bss           0x00000000        0x0 CMakeFiles/nano_http_client.dir/C_/Users/yoyom/Desktop/Pico/pico-sdk/src/rp2_common/hardware_timer/timer.c.obj
 .text.hardware_alarm_irq_handler
                0x00000000       0xc4 CMakeFiles/nano_http_client.dir/C_/Users/yoyom/Desktop/Pico/pico-sdk/src/rp2_common/hardware_timer/timer.c.obj
 .text.hardware_alarm_claim
                0x00000000       0x18 CMakeFiles/nano_http_client.dir/C_/Users/yoyom/Desktop/Pico/pico-sdk/src/rp2_common/hardware_timer/timer.c.obj
 .text.timer_hardware_alarm_unclaim
                0x00000000       0x10 CMakeFiles/nano_http_client.dir/C_/Users/yoyom/Desktop/Pico/pico-sdk/src/rp2_common/hardware_timer/timer.c.obj
 .text.hardware_alarm_unclaim
                0x00000000       0x10 CMakeFiles/nano_http_client.dir/C_/Users/yoyom/Desktop/Pico/pico-sdk/src/rp2_common/hardware_timer/timer.c.obj
 .text.timer_hardware_alarm_is_claimed
                0x00000000       0x10 CMakeFiles/nano_http_client.dir/C_/Users/yoyom/Desktop/Pico/pico-sdk/src/rp2_common/hardware_timer/timer.c.obj
 .text.hardware_alarm_is_claimed
                0x00000000       0x10 CMakeFiles/nano_http_client.dir/C_/Users/yoyom/Desktop/Pico/pico-sdk/src/rp2_common/hardware_timer/timer.c.obj
 .rodata.timer_hardware_alarm_claim_unused.str1.4
                0x00000000       0x14 CMakeFiles/nano_http_client.dir/C_/Users/yoyom/Desktop/Pico/pico-sdk/src/rp2_common/hardware_timer/timer.c.obj
 .text.timer_hardware_alarm_claim_unused
                0x00000000       0x20 CMakeFiles/nano_http_client.dir/C_/Users/yoyom/Desktop/Pico/pico-sdk/src/rp2_common/hardware_timer/timer.c.obj
 .text.hardware_alarm_claim_unused
                0x00000000       0x20 CMakeFiles/nano_http_client.dir/C_/Users/yoyom/Desktop/Pico/pico-sdk/src/rp2_common/hardware_timer/timer.c.obj
 .text.timer_busy_wait_us_32
                0x00000000       0x64 CMakeFiles/nano_http_client.dir/C_/Users/yoyom/Desktop/Pico/pico-sdk/src/rp2_common/hardware_timer/timer.c.obj
 .text.timer_busy_wait_us
                0x00000000       0x48 CMakeFiles/nano_http_client.dir/C_/Users/yoyom/Desktop/Pico/pico-sdk/src/rp2_common/hardware_timer/timer.c.obj
 .text.timer_busy_wait_ms
                0x00000000       0x80 CMakeFiles/nano_http_client.dir/C_/Users/yoyom/Desktop/Pico/pico-sdk/src/rp2_common/hardware_timer/timer.c.obj
 .text.timer_busy_wait_until
                0x00000000       0x1c CMakeFiles/nano_http_client.dir/C_/Users/yoyom/Desktop/Pico/pico-sdk/src/rp2_common/hardware_timer/timer.c.obj
 .text.busy_wait_us_32
                0x00000000       0x68 CMakeFiles/nano_http_client.dir/C_/Users/yoyom/Desktop/Pico/pico-sdk/src/rp2_common/hardware_timer/timer.c.obj
 .text.busy_wait_us
                0x00000000       0x54 CMakeFiles/nano_http_client.dir/C_/Users/yoyom/Desktop/Pico/pico-sdk/src/rp2_common/hardware_timer/timer.c.obj
 .text.busy_wait_ms
                0x00000000       0x88 CMakeFiles/nano_http_client.dir/C_/Users/yoyom/Desktop/Pico/pico-sdk/src/rp2_common/hardware_timer/timer.c.obj
 .text.timer_hardware_alarm_set_callback
                0x00000000       0x94 CMakeFiles/nano_http_client.dir/C_/Users/yoyom/Desktop/Pico/pico-sdk/src/rp2_common/hardware_timer/timer.c.obj
 .text.hardware_alarm_set_callback
                0x00000000       0x8c CMakeFiles/nano_http_client.dir/C_/Users/yoyom/Desktop/Pico/pico-sdk/src/rp2_common/hardware_timer/timer.c.obj
 .text.timer_hardware_alarm_set_target
                0x00000000       0xc8 CMakeFiles/nano_http_client.dir/C_/Users/yoyom/Desktop/Pico/pico-sdk/src/rp2_common/hardware_timer/timer.c.obj
 .text.hardware_alarm_set_target
                0x00000000       0xd4 CMakeFiles/nano_http_client.dir/C_/Users/yoyom/Desktop/Pico/pico-sdk/src/rp2_common/hardware_timer/timer.c.obj
 .text.timer_hardware_alarm_cancel
                0x00000000       0x38 CMakeFiles/nano_http_client.dir/C_/Users/yoyom/Desktop/Pico/pico-sdk/src/rp2_common/hardware_timer/timer.c.obj
 .text.hardware_alarm_cancel
                0x00000000       0x3c CMakeFiles/nano_http_client.dir/C_/Users/yoyom/Desktop/Pico/pico-sdk/src/rp2_common/hardware_timer/timer.c.obj
 .text.timer_hardware_alarm_force_irq
                0x00000000       0x44 CMakeFiles/nano_http_client.dir/C_/Users/yoyom/Desktop/Pico/pico-sdk/src/rp2_common/hardware_timer/timer.c.obj
 .text.hardware_alarm_force_irq
                0x00000000       0x3c CMakeFiles/nano_http_client.dir/C_/Users/yoyom/Desktop/Pico/pico-sdk/src/rp2_common/hardware_timer/timer.c.obj
 .bss.alarm_callbacks
                0x00000000       0x10 CMakeFiles/nano_http_client.dir/C_/Users/yoyom/Desktop/Pico/pico-sdk/src/rp2_common/hardware_timer/timer.c.obj
 .bss.target_hi
                0x00000000       0x10 CMakeFiles/nano_http_client.dir/C_/Users/yoyom/Desktop/Pico/pico-sdk/src/rp2_common/hardware_timer/timer.c.obj
 .bss.timer_callbacks_pending
                0x00000000        0x1 CMakeFiles/nano_http_client.dir/C_/Users/yoyom/Desktop/Pico/pico-sdk/src/rp2_common/hardware_timer/timer.c.obj
 .text          0x00000000        0x0 CMakeFiles/nano_http_client.dir/C_/Users/yoyom/Desktop/Pico/pico-sdk/src/common/pico_util/datetime.c.obj
 .data          0x00000000        0x0 CMakeFiles/nano_http_client.dir/C_/Users/yoyom/Desktop/Pico/pico-sdk/src/common/pico_util/datetime.c.obj
 .bss           0x00000000        0x0 CMakeFiles/nano_http_client.dir/C_/Users/yoyom/Desktop/Pico/pico-sdk/src/common/pico_util/datetime.c.obj
 .text.pico_localtime_r
                0x00000000        0x8 CMakeFiles/nano_http_client.dir/C_/Users/yoyom/Desktop/Pico/pico-sdk/src/common/pico_util/datetime.c.obj
 .text.pico_mktime
                0x00000000        0x8 CMakeFiles/nano_http_client.dir/C_/Users/yoyom/Desktop/Pico/pico-sdk/src/common/pico_util/datetime.c.obj
 .rodata.datetime_to_str.str1.4
                0x00000000       0x19 CMakeFiles/nano_http_client.dir/C_/Users/yoyom/Desktop/Pico/pico-sdk/src/common/pico_util/datetime.c.obj
 .text.datetime_to_str
                0x00000000       0x50 CMakeFiles/nano_http_client.dir/C_/Users/yoyom/Desktop/Pico/pico-sdk/src/common/pico_util/datetime.c.obj
 .text.datetime_to_tm
                0x00000000       0x34 CMakeFiles/nano_http_client.dir/C_/Users/yoyom/Desktop/Pico/pico-sdk/src/common/pico_util/datetime.c.obj
 .text.tm_to_datetime
                0x00000000       0x2c CMakeFiles/nano_http_client.dir/C_/Users/yoyom/Desktop/Pico/pico-sdk/src/common/pico_util/datetime.c.obj
 .text.time_to_datetime
                0x00000000       0x4c CMakeFiles/nano_http_client.dir/C_/Users/yoyom/Desktop/Pico/pico-sdk/src/common/pico_util/datetime.c.obj
 .text.datetime_to_time
                0x00000000       0x48 CMakeFiles/nano_http_client.dir/C_/Users/yoyom/Desktop/Pico/pico-sdk/src/common/pico_util/datetime.c.obj
 .text.timespec_to_ms
                0x00000000       0x2c CMakeFiles/nano_http_client.dir/C_/Users/yoyom/Desktop/Pico/pico-sdk/src/common/pico_util/datetime.c.obj
 .text.ms_to_timespec
                0x00000000       0x38 CMakeFiles/nano_http_client.dir/C_/Users/yoyom/Desktop/Pico/pico-sdk/src/common/pico_util/datetime.c.obj
 .text.timespec_to_us
                0x00000000       0x40 CMakeFiles/nano_http_client.dir/C_/Users/yoyom/Desktop/Pico/pico-sdk/src/common/pico_util/datetime.c.obj
 .text.us_to_timespec
                0x00000000       0x34 CMakeFiles/nano_http_client.dir/C_/Users/yoyom/Desktop/Pico/pico-sdk/src/common/pico_util/datetime.c.obj
 .rodata.str1.4
                0x00000000       0xad CMakeFiles/nano_http_client.dir/C_/Users/yoyom/Desktop/Pico/pico-sdk/src/common/pico_util/datetime.c.obj
 .rodata.DATETIME_DOWS
                0x00000000       0x1c CMakeFiles/nano_http_client.dir/C_/Users/yoyom/Desktop/Pico/pico-sdk/src/common/pico_util/datetime.c.obj
 .rodata.DATETIME_MONTHS
                0x00000000       0x30 CMakeFiles/nano_http_client.dir/C_/Users/yoyom/Desktop/Pico/pico-sdk/src/common/pico_util/datetime.c.obj
 .debug_info    0x00000000      0x6fe CMakeFiles/nano_http_client.dir/C_/Users/yoyom/Desktop/Pico/pico-sdk/src/common/pico_util/datetime.c.obj
 .debug_abbrev  0x00000000      0x203 CMakeFiles/nano_http_client.dir/C_/Users/yoyom/Desktop/Pico/pico-sdk/src/common/pico_util/datetime.c.obj
 .debug_loc     0x00000000      0x378 CMakeFiles/nano_http_client.dir/C_/Users/yoyom/Desktop/Pico/pico-sdk/src/common/pico_util/datetime.c.obj
 .debug_aranges
                0x00000000       0x70 CMakeFiles/nano_http_client.dir/C_/Users/yoyom/Desktop/Pico/pico-sdk/src/common/pico_util/datetime.c.obj
 .debug_ranges  0x00000000       0x90 CMakeFiles/nano_http_client.dir/C_/Users/yoyom/Desktop/Pico/pico-sdk/src/common/pico_util/datetime.c.obj
 .debug_line    0x00000000      0x551 CMakeFiles/nano_http_client.dir/C_/Users/yoyom/Desktop/Pico/pico-sdk/src/common/pico_util/datetime.c.obj
 .debug_str     0x00000000      0x3a2 CMakeFiles/nano_http_client.dir/C_/Users/yoyom/Desktop/Pico/pico-sdk/src/common/pico_util/datetime.c.obj
 .comment       0x00000000       0x4a CMakeFiles/nano_http_client.dir/C_/Users/yoyom/Desktop/Pico/pico-sdk/src/common/pico_util/datetime.c.obj
 .debug_frame   0x00000000      0x128 CMakeFiles/nano_http_client.dir/C_/Users/yoyom/Desktop/Pico/pico-sdk/src/common/pico_util/datetime.c.obj
 .ARM.attributes
                0x00000000       0x2c CMakeFiles/nano_http_client.dir/C_/Users/yoyom/Desktop/Pico/pico-sdk/src/common/pico_util/datetime.c.obj
 .text          0x00000000        0x0 CMakeFiles/nano_http_client.dir/C_/Users/yoyom/Desktop/Pico/pico-sdk/src/common/pico_util/pheap.c.obj
 .data          0x00000000        0x0 CMakeFiles/nano_http_client.dir/C_/Users/yoyom/Desktop/Pico/pico-sdk/src/common/pico_util/pheap.c.obj
 .bss           0x00000000        0x0 CMakeFiles/nano_http_client.dir/C_/Users/yoyom/Desktop/Pico/pico-sdk/src/common/pico_util/pheap.c.obj
 .rodata.ph_dump_node.str1.4
                0x00000000       0x15 CMakeFiles/nano_http_client.dir/C_/Users/yoyom/Desktop/Pico/pico-sdk/src/common/pico_util/pheap.c.obj
 .text.ph_dump_node
                0x00000000       0xb0 CMakeFiles/nano_http_client.dir/C_/Users/yoyom/Desktop/Pico/pico-sdk/src/common/pico_util/pheap.c.obj
 .text.ph_merge_nodes
                0x00000000       0x68 CMakeFiles/nano_http_client.dir/C_/Users/yoyom/Desktop/Pico/pico-sdk/src/common/pico_util/pheap.c.obj
 .text.ph_create
                0x00000000       0x60 CMakeFiles/nano_http_client.dir/C_/Users/yoyom/Desktop/Pico/pico-sdk/src/common/pico_util/pheap.c.obj
 .text.ph_post_alloc_init
                0x00000000       0x3c CMakeFiles/nano_http_client.dir/C_/Users/yoyom/Desktop/Pico/pico-sdk/src/common/pico_util/pheap.c.obj
 .text.ph_clear
                0x00000000       0x30 CMakeFiles/nano_http_client.dir/C_/Users/yoyom/Desktop/Pico/pico-sdk/src/common/pico_util/pheap.c.obj
 .text.ph_destroy
                0x00000000       0x14 CMakeFiles/nano_http_client.dir/C_/Users/yoyom/Desktop/Pico/pico-sdk/src/common/pico_util/pheap.c.obj
 .text.ph_merge_two_pass
                0x00000000       0x90 CMakeFiles/nano_http_client.dir/C_/Users/yoyom/Desktop/Pico/pico-sdk/src/common/pico_util/pheap.c.obj
 .text.ph_remove_any_head
                0x00000000      0x100 CMakeFiles/nano_http_client.dir/C_/Users/yoyom/Desktop/Pico/pico-sdk/src/common/pico_util/pheap.c.obj
 .text.ph_remove_head
                0x00000000      0x104 CMakeFiles/nano_http_client.dir/C_/Users/yoyom/Desktop/Pico/pico-sdk/src/common/pico_util/pheap.c.obj
 .text.ph_remove_and_free_node
                0x00000000       0x7c CMakeFiles/nano_http_client.dir/C_/Users/yoyom/Desktop/Pico/pico-sdk/src/common/pico_util/pheap.c.obj
 .rodata.ph_dump.str1.4
                0x00000000        0xf CMakeFiles/nano_http_client.dir/C_/Users/yoyom/Desktop/Pico/pico-sdk/src/common/pico_util/pheap.c.obj
 .text.ph_dump  0x00000000      0x38c CMakeFiles/nano_http_client.dir/C_/Users/yoyom/Desktop/Pico/pico-sdk/src/common/pico_util/pheap.c.obj
 .debug_info    0x00000000     0x1ff5 CMakeFiles/nano_http_client.dir/C_/Users/yoyom/Desktop/Pico/pico-sdk/src/common/pico_util/pheap.c.obj
 .debug_abbrev  0x00000000      0x30a CMakeFiles/nano_http_client.dir/C_/Users/yoyom/Desktop/Pico/pico-sdk/src/common/pico_util/pheap.c.obj
 .debug_loc     0x00000000     0x2bfa CMakeFiles/nano_http_client.dir/C_/Users/yoyom/Desktop/Pico/pico-sdk/src/common/pico_util/pheap.c.obj
 .debug_aranges
                0x00000000       0x70 CMakeFiles/nano_http_client.dir/C_/Users/yoyom/Desktop/Pico/pico-sdk/src/common/pico_util/pheap.c.obj
 .debug_ranges  0x00000000      0xa10 CMakeFiles/nano_http_client.dir/C_/Users/yoyom/Desktop/Pico/pico-sdk/src/common/pico_util/pheap.c.obj
 .debug_line    0x00000000     0x123d CMakeFiles/nano_http_client.dir/C_/Users/yoyom/Desktop/Pico/pico-sdk/src/common/pico_util/pheap.c.obj
 .debug_str     0x00000000      0x3eb CMakeFiles/nano_http_client.dir/C_/Users/yoyom/Desktop/Pico/pico-sdk/src/common/pico_util/pheap.c.obj
 .comment       0x00000000       0x4a CMakeFiles/nano_http_client.dir/C_/Users/yoyom/Desktop/Pico/pico-sdk/src/common/pico_util/pheap.c.obj
 .debug_frame   0x00000000      0x188 CMakeFiles/nano_http_client.dir/C_/Users/yoyom/Desktop/Pico/pico-sdk/src/common/pico_util/pheap.c.obj
 .ARM.attributes
                0x00000000       0x2c CMakeFiles/nano_http_client.dir/C_/Users/yoyom/Desktop/Pico/pico-sdk/src/common/pico_util/pheap.c.obj
 .text          0x00000000        0x0 CMakeFiles/nano_http_client.dir/C_/Users/yoyom/Desktop/Pico/pico-sdk/src/common/pico_util/queue.c.obj
 .data          0x00000000        0x0 CMakeFiles/nano_http_client.dir/C_/Users/yoyom/Desktop/Pico/pico-sdk/src/common/pico_util/queue.c.obj
 .bss           0x00000000        0x0 CMakeFiles/nano_http_client.dir/C_/Users/yoyom/Desktop/Pico/pico-sdk/src/common/pico_util/queue.c.obj
 .text.queue_init_with_spinlock
                0x00000000       0x24 CMakeFiles/nano_http_client.dir/C_/Users/yoyom/Desktop/Pico/pico-sdk/src/common/pico_util/queue.c.obj
 .text.queue_free
                0x00000000        0xc CMakeFiles/nano_http_client.dir/C_/Users/yoyom/Desktop/Pico/pico-sdk/src/common/pico_util/queue.c.obj
 .text.queue_try_add
                0x00000000       0x70 CMakeFiles/nano_http_client.dir/C_/Users/yoyom/Desktop/Pico/pico-sdk/src/common/pico_util/queue.c.obj
 .text.queue_try_remove
                0x00000000       0x74 CMakeFiles/nano_http_client.dir/C_/Users/yoyom/Desktop/Pico/pico-sdk/src/common/pico_util/queue.c.obj
 .text.queue_try_peek
                0x00000000       0x60 CMakeFiles/nano_http_client.dir/C_/Users/yoyom/Desktop/Pico/pico-sdk/src/common/pico_util/queue.c.obj
 .text.queue_add_blocking
                0x00000000       0x74 CMakeFiles/nano_http_client.dir/C_/Users/yoyom/Desktop/Pico/pico-sdk/src/common/pico_util/queue.c.obj
 .text.queue_remove_blocking
                0x00000000       0x78 CMakeFiles/nano_http_client.dir/C_/Users/yoyom/Desktop/Pico/pico-sdk/src/common/pico_util/queue.c.obj
 .text.queue_peek_blocking
                0x00000000       0x64 CMakeFiles/nano_http_client.dir/C_/Users/yoyom/Desktop/Pico/pico-sdk/src/common/pico_util/queue.c.obj
 .debug_info    0x00000000     0x17d9 CMakeFiles/nano_http_client.dir/C_/Users/yoyom/Desktop/Pico/pico-sdk/src/common/pico_util/queue.c.obj
 .debug_abbrev  0x00000000      0x2d3 CMakeFiles/nano_http_client.dir/C_/Users/yoyom/Desktop/Pico/pico-sdk/src/common/pico_util/queue.c.obj
 .debug_loc     0x00000000     0x10e3 CMakeFiles/nano_http_client.dir/C_/Users/yoyom/Desktop/Pico/pico-sdk/src/common/pico_util/queue.c.obj
 .debug_aranges
                0x00000000       0x58 CMakeFiles/nano_http_client.dir/C_/Users/yoyom/Desktop/Pico/pico-sdk/src/common/pico_util/queue.c.obj
 .debug_ranges  0x00000000      0x8b8 CMakeFiles/nano_http_client.dir/C_/Users/yoyom/Desktop/Pico/pico-sdk/src/common/pico_util/queue.c.obj
 .debug_line    0x00000000      0xee7 CMakeFiles/nano_http_client.dir/C_/Users/yoyom/Desktop/Pico/pico-sdk/src/common/pico_util/queue.c.obj
 .debug_str     0x00000000      0x48b CMakeFiles/nano_http_client.dir/C_/Users/yoyom/Desktop/Pico/pico-sdk/src/common/pico_util/queue.c.obj
 .comment       0x00000000       0x4a CMakeFiles/nano_http_client.dir/C_/Users/yoyom/Desktop/Pico/pico-sdk/src/common/pico_util/queue.c.obj
 .debug_frame   0x00000000       0xf0 CMakeFiles/nano_http_client.dir/C_/Users/yoyom/Desktop/Pico/pico-sdk/src/common/pico_util/queue.c.obj
 .ARM.attributes
                0x00000000       0x2c CMakeFiles/nano_http_client.dir/C_/Users/yoyom/Desktop/Pico/pico-sdk/src/common/pico_util/queue.c.obj
 .text          0x00000000        0x0 CMakeFiles/nano_http_client.dir/C_/Users/yoyom/Desktop/Pico/pico-sdk/src/rp2_common/hardware_uart/uart.c.obj
 .data          0x00000000        0x0 CMakeFiles/nano_http_client.dir/C_/Users/yoyom/Desktop/Pico/pico-sdk/src/rp2_common/hardware_uart/uart.c.obj
 .bss           0x00000000        0x0 CMakeFiles/nano_http_client.dir/C_/Users/yoyom/Desktop/Pico/pico-sdk/src/rp2_common/hardware_uart/uart.c.obj
 .text.uart_init
                0x00000000      0x11c CMakeFiles/nano_http_client.dir/C_/Users/yoyom/Desktop/Pico/pico-sdk/src/rp2_common/hardware_uart/uart.c.obj
 .text.uart_deinit
                0x00000000       0x24 CMakeFiles/nano_http_client.dir/C_/Users/yoyom/Desktop/Pico/pico-sdk/src/rp2_common/hardware_uart/uart.c.obj
 .text.uart_set_baudrate
                0x00000000       0xb4 CMakeFiles/nano_http_client.dir/C_/Users/yoyom/Desktop/Pico/pico-sdk/src/rp2_common/hardware_uart/uart.c.obj
 .text.uart_set_format
                0x00000000       0x78 CMakeFiles/nano_http_client.dir/C_/Users/yoyom/Desktop/Pico/pico-sdk/src/rp2_common/hardware_uart/uart.c.obj
 .text.uart_set_fifo_enabled
                0x00000000       0x60 CMakeFiles/nano_http_client.dir/C_/Users/yoyom/Desktop/Pico/pico-sdk/src/rp2_common/hardware_uart/uart.c.obj
 .text.uart_set_break
                0x00000000       0x5c CMakeFiles/nano_http_client.dir/C_/Users/yoyom/Desktop/Pico/pico-sdk/src/rp2_common/hardware_uart/uart.c.obj
 .text.uart_set_translate_crlf
                0x00000000       0x28 CMakeFiles/nano_http_client.dir/C_/Users/yoyom/Desktop/Pico/pico-sdk/src/rp2_common/hardware_uart/uart.c.obj
 .text.uart_is_readable_within_us
                0x00000000       0x24 CMakeFiles/nano_http_client.dir/C_/Users/yoyom/Desktop/Pico/pico-sdk/src/rp2_common/hardware_uart/uart.c.obj
 .bss.uart_char_to_line_feed
                0x00000000        0x4 CMakeFiles/nano_http_client.dir/C_/Users/yoyom/Desktop/Pico/pico-sdk/src/rp2_common/hardware_uart/uart.c.obj
 .debug_info    0x00000000     0x19dd CMakeFiles/nano_http_client.dir/C_/Users/yoyom/Desktop/Pico/pico-sdk/src/rp2_common/hardware_uart/uart.c.obj
 .debug_abbrev  0x00000000      0x315 CMakeFiles/nano_http_client.dir/C_/Users/yoyom/Desktop/Pico/pico-sdk/src/rp2_common/hardware_uart/uart.c.obj
 .debug_loc     0x00000000     0x1476 CMakeFiles/nano_http_client.dir/C_/Users/yoyom/Desktop/Pico/pico-sdk/src/rp2_common/hardware_uart/uart.c.obj
 .debug_aranges
                0x00000000       0x58 CMakeFiles/nano_http_client.dir/C_/Users/yoyom/Desktop/Pico/pico-sdk/src/rp2_common/hardware_uart/uart.c.obj
 .debug_ranges  0x00000000      0x820 CMakeFiles/nano_http_client.dir/C_/Users/yoyom/Desktop/Pico/pico-sdk/src/rp2_common/hardware_uart/uart.c.obj
 .debug_line    0x00000000     0x119f CMakeFiles/nano_http_client.dir/C_/Users/yoyom/Desktop/Pico/pico-sdk/src/rp2_common/hardware_uart/uart.c.obj
 .debug_str     0x00000000      0xbcf CMakeFiles/nano_http_client.dir/C_/Users/yoyom/Desktop/Pico/pico-sdk/src/rp2_common/hardware_uart/uart.c.obj
 .comment       0x00000000       0x4a CMakeFiles/nano_http_client.dir/C_/Users/yoyom/Desktop/Pico/pico-sdk/src/rp2_common/hardware_uart/uart.c.obj
 .debug_frame   0x00000000       0xec CMakeFiles/nano_http_client.dir/C_/Users/yoyom/Desktop/Pico/pico-sdk/src/rp2_common/hardware_uart/uart.c.obj
 .ARM.attributes
                0x00000000       0x2c CMakeFiles/nano_http_client.dir/C_/Users/yoyom/Desktop/Pico/pico-sdk/src/rp2_common/hardware_uart/uart.c.obj
 .text          0x00000000        0x0 CMakeFiles/nano_http_client.dir/C_/Users/yoyom/Desktop/Pico/pico-sdk/src/rp2_common/hardware_clocks/clocks.c.obj
 .data          0x00000000        0x0 CMakeFiles/nano_http_client.dir/C_/Users/yoyom/Desktop/Pico/pico-sdk/src/rp2_common/hardware_clocks/clocks.c.obj
 .bss           0x00000000        0x0 CMakeFiles/nano_http_client.dir/C_/Users/yoyom/Desktop/Pico/pico-sdk/src/rp2_common/hardware_clocks/clocks.c.obj
 .text.clocks_irq_handler
                0x00000000       0xa0 CMakeFiles/nano_http_client.dir/C_/Users/yoyom/Desktop/Pico/pico-sdk/src/rp2_common/hardware_clocks/clocks.c.obj
 .text.clock_stop
                0x00000000       0x24 CMakeFiles/nano_http_client.dir/C_/Users/yoyom/Desktop/Pico/pico-sdk/src/rp2_common/hardware_clocks/clocks.c.obj
 .text.clock_configure
                0x00000000      0x110 CMakeFiles/nano_http_client.dir/C_/Users/yoyom/Desktop/Pico/pico-sdk/src/rp2_common/hardware_clocks/clocks.c.obj
 .text.clock_set_reported_hz
                0x00000000        0xc CMakeFiles/nano_http_client.dir/C_/Users/yoyom/Desktop/Pico/pico-sdk/src/rp2_common/hardware_clocks/clocks.c.obj
 .text.frequency_count_khz
                0x00000000       0x48 CMakeFiles/nano_http_client.dir/C_/Users/yoyom/Desktop/Pico/pico-sdk/src/rp2_common/hardware_clocks/clocks.c.obj
 .text.clocks_enable_resus
                0x00000000       0x34 CMakeFiles/nano_http_client.dir/C_/Users/yoyom/Desktop/Pico/pico-sdk/src/rp2_common/hardware_clocks/clocks.c.obj
 .text.clock_gpio_init_int_frac16
                0x00000000       0x54 CMakeFiles/nano_http_client.dir/C_/Users/yoyom/Desktop/Pico/pico-sdk/src/rp2_common/hardware_clocks/clocks.c.obj
 .text.clock_configure_gpin
                0x00000000      0x110 CMakeFiles/nano_http_client.dir/C_/Users/yoyom/Desktop/Pico/pico-sdk/src/rp2_common/hardware_clocks/clocks.c.obj
 .text.set_sys_clock_48mhz
                0x00000000       0xd0 CMakeFiles/nano_http_client.dir/C_/Users/yoyom/Desktop/Pico/pico-sdk/src/rp2_common/hardware_clocks/clocks.c.obj
 .text.set_sys_clock_pll
                0x00000000      0x1c0 CMakeFiles/nano_http_client.dir/C_/Users/yoyom/Desktop/Pico/pico-sdk/src/rp2_common/hardware_clocks/clocks.c.obj
 .text.check_sys_clock_hz
                0x00000000      0x168 CMakeFiles/nano_http_client.dir/C_/Users/yoyom/Desktop/Pico/pico-sdk/src/rp2_common/hardware_clocks/clocks.c.obj
 .text.check_sys_clock_khz
                0x00000000      0x17c CMakeFiles/nano_http_client.dir/C_/Users/yoyom/Desktop/Pico/pico-sdk/src/rp2_common/hardware_clocks/clocks.c.obj
 .bss._resus_callback
                0x00000000        0x4 CMakeFiles/nano_http_client.dir/C_/Users/yoyom/Desktop/Pico/pico-sdk/src/rp2_common/hardware_clocks/clocks.c.obj
 .rodata.gpin0_src
                0x00000000        0xa CMakeFiles/nano_http_client.dir/C_/Users/yoyom/Desktop/Pico/pico-sdk/src/rp2_common/hardware_clocks/clocks.c.obj
 .text          0x00000000        0x0 CMakeFiles/nano_http_client.dir/C_/Users/yoyom/Desktop/Pico/pico-sdk/src/rp2_common/hardware_pll/pll.c.obj
 .data          0x00000000        0x0 CMakeFiles/nano_http_client.dir/C_/Users/yoyom/Desktop/Pico/pico-sdk/src/rp2_common/hardware_pll/pll.c.obj
 .bss           0x00000000        0x0 CMakeFiles/nano_http_client.dir/C_/Users/yoyom/Desktop/Pico/pico-sdk/src/rp2_common/hardware_pll/pll.c.obj
 .text.pll_deinit
                0x00000000        0x8 CMakeFiles/nano_http_client.dir/C_/Users/yoyom/Desktop/Pico/pico-sdk/src/rp2_common/hardware_pll/pll.c.obj
 .text          0x00000000        0x0 CMakeFiles/nano_http_client.dir/C_/Users/yoyom/Desktop/Pico/pico-sdk/src/rp2_common/hardware_vreg/vreg.c.obj
 .data          0x00000000        0x0 CMakeFiles/nano_http_client.dir/C_/Users/yoyom/Desktop/Pico/pico-sdk/src/rp2_common/hardware_vreg/vreg.c.obj
 .bss           0x00000000        0x0 CMakeFiles/nano_http_client.dir/C_/Users/yoyom/Desktop/Pico/pico-sdk/src/rp2_common/hardware_vreg/vreg.c.obj
 .text.vreg_set_voltage
                0x00000000       0x1c CMakeFiles/nano_http_client.dir/C_/Users/yoyom/Desktop/Pico/pico-sdk/src/rp2_common/hardware_vreg/vreg.c.obj
 .text.vreg_disable_voltage_limit
                0x00000000        0x4 CMakeFiles/nano_http_client.dir/C_/Users/yoyom/Desktop/Pico/pico-sdk/src/rp2_common/hardware_vreg/vreg.c.obj
 .debug_info    0x00000000      0x25e CMakeFiles/nano_http_client.dir/C_/Users/yoyom/Desktop/Pico/pico-sdk/src/rp2_common/hardware_vreg/vreg.c.obj
 .debug_abbrev  0x00000000      0x14b CMakeFiles/nano_http_client.dir/C_/Users/yoyom/Desktop/Pico/pico-sdk/src/rp2_common/hardware_vreg/vreg.c.obj
 .debug_loc     0x00000000       0xab CMakeFiles/nano_http_client.dir/C_/Users/yoyom/Desktop/Pico/pico-sdk/src/rp2_common/hardware_vreg/vreg.c.obj
 .debug_aranges
                0x00000000       0x28 CMakeFiles/nano_http_client.dir/C_/Users/yoyom/Desktop/Pico/pico-sdk/src/rp2_common/hardware_vreg/vreg.c.obj
 .debug_ranges  0x00000000       0x38 CMakeFiles/nano_http_client.dir/C_/Users/yoyom/Desktop/Pico/pico-sdk/src/rp2_common/hardware_vreg/vreg.c.obj
 .debug_line    0x00000000      0x2fd CMakeFiles/nano_http_client.dir/C_/Users/yoyom/Desktop/Pico/pico-sdk/src/rp2_common/hardware_vreg/vreg.c.obj
 .debug_str     0x00000000      0x35d CMakeFiles/nano_http_client.dir/C_/Users/yoyom/Desktop/Pico/pico-sdk/src/rp2_common/hardware_vreg/vreg.c.obj
 .comment       0x00000000       0x4a CMakeFiles/nano_http_client.dir/C_/Users/yoyom/Desktop/Pico/pico-sdk/src/rp2_common/hardware_vreg/vreg.c.obj
 .debug_frame   0x00000000       0x30 CMakeFiles/nano_http_client.dir/C_/Users/yoyom/Desktop/Pico/pico-sdk/src/rp2_common/hardware_vreg/vreg.c.obj
 .ARM.attributes
                0x00000000       0x2c CMakeFiles/nano_http_client.dir/C_/Users/yoyom/Desktop/Pico/pico-sdk/src/rp2_common/hardware_vreg/vreg.c.obj
 .text          0x00000000        0x0 CMakeFiles/nano_http_client.dir/C_/Users/yoyom/Desktop/Pico/pico-sdk/src/rp2_common/hardware_watchdog/watchdog.c.obj
 .data          0x00000000        0x0 CMakeFiles/nano_http_client.dir/C_/Users/yoyom/Desktop/Pico/pico-sdk/src/rp2_common/hardware_watchdog/watchdog.c.obj
 .bss           0x00000000        0x0 CMakeFiles/nano_http_client.dir/C_/Users/yoyom/Desktop/Pico/pico-sdk/src/rp2_common/hardware_watchdog/watchdog.c.obj
 .text.watchdog_start_tick
                0x00000000        0xc CMakeFiles/nano_http_client.dir/C_/Users/yoyom/Desktop/Pico/pico-sdk/src/rp2_common/hardware_watchdog/watchdog.c.obj
 .text.watchdog_update
                0x00000000       0x14 CMakeFiles/nano_http_client.dir/C_/Users/yoyom/Desktop/Pico/pico-sdk/src/rp2_common/hardware_watchdog/watchdog.c.obj
 .text.watchdog_get_time_remaining_ms
                0x00000000       0x10 CMakeFiles/nano_http_client.dir/C_/Users/yoyom/Desktop/Pico/pico-sdk/src/rp2_common/hardware_watchdog/watchdog.c.obj
 .text._watchdog_enable
                0x00000000       0x78 CMakeFiles/nano_http_client.dir/C_/Users/yoyom/Desktop/Pico/pico-sdk/src/rp2_common/hardware_watchdog/watchdog.c.obj
 .text.watchdog_enable
                0x00000000       0x84 CMakeFiles/nano_http_client.dir/C_/Users/yoyom/Desktop/Pico/pico-sdk/src/rp2_common/hardware_watchdog/watchdog.c.obj
 .text.watchdog_disable
                0x00000000       0x10 CMakeFiles/nano_http_client.dir/C_/Users/yoyom/Desktop/Pico/pico-sdk/src/rp2_common/hardware_watchdog/watchdog.c.obj
 .text.watchdog_caused_reboot
                0x00000000       0x10 CMakeFiles/nano_http_client.dir/C_/Users/yoyom/Desktop/Pico/pico-sdk/src/rp2_common/hardware_watchdog/watchdog.c.obj
 .text.watchdog_enable_caused_reboot
                0x00000000       0x24 CMakeFiles/nano_http_client.dir/C_/Users/yoyom/Desktop/Pico/pico-sdk/src/rp2_common/hardware_watchdog/watchdog.c.obj
 .text          0x00000000        0x0 CMakeFiles/nano_http_client.dir/C_/Users/yoyom/Desktop/Pico/pico-sdk/src/rp2_common/hardware_ticks/ticks.c.obj
 .data          0x00000000        0x0 CMakeFiles/nano_http_client.dir/C_/Users/yoyom/Desktop/Pico/pico-sdk/src/rp2_common/hardware_ticks/ticks.c.obj
 .bss           0x00000000        0x0 CMakeFiles/nano_http_client.dir/C_/Users/yoyom/Desktop/Pico/pico-sdk/src/rp2_common/hardware_ticks/ticks.c.obj
 .text.tick_stop
                0x00000000       0x10 CMakeFiles/nano_http_client.dir/C_/Users/yoyom/Desktop/Pico/pico-sdk/src/rp2_common/hardware_ticks/ticks.c.obj
 .text.tick_is_running
                0x00000000       0x10 CMakeFiles/nano_http_client.dir/C_/Users/yoyom/Desktop/Pico/pico-sdk/src/rp2_common/hardware_ticks/ticks.c.obj
 .text          0x00000000        0x0 CMakeFiles/nano_http_client.dir/C_/Users/yoyom/Desktop/Pico/pico-sdk/src/rp2_common/pico_bootrom/bootrom.c.obj
 .data          0x00000000        0x0 CMakeFiles/nano_http_client.dir/C_/Users/yoyom/Desktop/Pico/pico-sdk/src/rp2_common/pico_bootrom/bootrom.c.obj
 .bss           0x00000000        0x0 CMakeFiles/nano_http_client.dir/C_/Users/yoyom/Desktop/Pico/pico-sdk/src/rp2_common/pico_bootrom/bootrom.c.obj
 .text.rom_reset_usb_boot
                0x00000000       0x20 CMakeFiles/nano_http_client.dir/C_/Users/yoyom/Desktop/Pico/pico-sdk/src/rp2_common/pico_bootrom/bootrom.c.obj
 .text          0x00000000        0x0 CMakeFiles/nano_http_client.dir/C_/Users/yoyom/Desktop/Pico/pico-sdk/src/rp2_common/pico_bootrom/bootrom_lock.c.obj
 .data          0x00000000        0x0 CMakeFiles/nano_http_client.dir/C_/Users/yoyom/Desktop/Pico/pico-sdk/src/rp2_common/pico_bootrom/bootrom_lock.c.obj
 .bss           0x00000000        0x0 CMakeFiles/nano_http_client.dir/C_/Users/yoyom/Desktop/Pico/pico-sdk/src/rp2_common/pico_bootrom/bootrom_lock.c.obj
 .debug_info    0x00000000       0x6b CMakeFiles/nano_http_client.dir/C_/Users/yoyom/Desktop/Pico/pico-sdk/src/rp2_common/pico_bootrom/bootrom_lock.c.obj
 .debug_abbrev  0x00000000       0x26 CMakeFiles/nano_http_client.dir/C_/Users/yoyom/Desktop/Pico/pico-sdk/src/rp2_common/pico_bootrom/bootrom_lock.c.obj
 .debug_aranges
                0x00000000       0x18 CMakeFiles/nano_http_client.dir/C_/Users/yoyom/Desktop/Pico/pico-sdk/src/rp2_common/pico_bootrom/bootrom_lock.c.obj
 .debug_line    0x00000000       0x1d CMakeFiles/nano_http_client.dir/C_/Users/yoyom/Desktop/Pico/pico-sdk/src/rp2_common/pico_bootrom/bootrom_lock.c.obj
 .debug_str     0x00000000      0x19f CMakeFiles/nano_http_client.dir/C_/Users/yoyom/Desktop/Pico/pico-sdk/src/rp2_common/pico_bootrom/bootrom_lock.c.obj
 .comment       0x00000000       0x4a CMakeFiles/nano_http_client.dir/C_/Users/yoyom/Desktop/Pico/pico-sdk/src/rp2_common/pico_bootrom/bootrom_lock.c.obj
 .ARM.attributes
                0x00000000       0x2c CMakeFiles/nano_http_client.dir/C_/Users/yoyom/Desktop/Pico/pico-sdk/src/rp2_common/pico_bootrom/bootrom_lock.c.obj
 .text          0x00000000        0x0 CMakeFiles/nano_http_client.dir/C_/Users/yoyom/Desktop/Pico/pico-sdk/src/rp2_common/hardware_boot_lock/boot_lock.c.obj
 .data          0x00000000        0x0 CMakeFiles/nano_http_client.dir/C_/Users/yoyom/Desktop/Pico/pico-sdk/src/rp2_common/hardware_boot_lock/boot_lock.c.obj
 .bss           0x00000000        0x0 CMakeFiles/nano_http_client.dir/C_/Users/yoyom/Desktop/Pico/pico-sdk/src/rp2_common/hardware_boot_lock/boot_lock.c.obj
 .debug_info    0x00000000       0x6b CMakeFiles/nano_http_client.dir/C_/Users/yoyom/Desktop/Pico/pico-sdk/src/rp2_common/hardware_boot_lock/boot_lock.c.obj
 .debug_abbrev  0x00000000       0x26 CMakeFiles/nano_http_client.dir/C_/Users/yoyom/Desktop/Pico/pico-sdk/src/rp2_common/hardware_boot_lock/boot_lock.c.obj
 .debug_aranges
                0x00000000       0x18 CMakeFiles/nano_http_client.dir/C_/Users/yoyom/Desktop/Pico/pico-sdk/src/rp2_common/hardware_boot_lock/boot_lock.c.obj
 .debug_line    0x00000000       0x1d CMakeFiles/nano_http_client.dir/C_/Users/yoyom/Desktop/Pico/pico-sdk/src/rp2_common/hardware_boot_lock/boot_lock.c.obj
 .debug_str     0x00000000      0x1a2 CMakeFiles/nano_http_client.dir/C_/Users/yoyom/Desktop/Pico/pico-sdk/src/rp2_common/hardware_boot_lock/boot_lock.c.obj
 .comment       0x00000000       0x4a CMakeFiles/nano_http_client.dir/C_/Users/yoyom/Desktop/Pico/pico-sdk/src/rp2_common/hardware_boot_lock/boot_lock.c.obj
 .ARM.attributes
                0x00000000       0x2c CMakeFiles/nano_http_client.dir/C_/Users/yoyom/Desktop/Pico/pico-sdk/src/rp2_common/hardware_boot_lock/boot_lock.c.obj
 .text          0x00000000        0x0 CMakeFiles/nano_http_client.dir/C_/Users/yoyom/Desktop/Pico/pico-sdk/src/rp2_common/pico_flash/flash.c.obj
 .data          0x00000000        0x0 CMakeFiles/nano_http_client.dir/C_/Users/yoyom/Desktop/Pico/pico-sdk/src/rp2_common/pico_flash/flash.c.obj
 .bss           0x00000000        0x0 CMakeFiles/nano_http_client.dir/C_/Users/yoyom/Desktop/Pico/pico-sdk/src/rp2_common/pico_flash/flash.c.obj
 .text.default_core_init_deinit
                0x00000000        0x4 CMakeFiles/nano_http_client.dir/C_/Users/yoyom/Desktop/Pico/pico-sdk/src/rp2_common/pico_flash/flash.c.obj
 .text.default_enter_safe_zone_timeout_ms
                0x00000000       0x1c CMakeFiles/nano_http_client.dir/C_/Users/yoyom/Desktop/Pico/pico-sdk/src/rp2_common/pico_flash/flash.c.obj
 .text.default_exit_safe_zone_timeout_ms
                0x00000000       0x18 CMakeFiles/nano_http_client.dir/C_/Users/yoyom/Desktop/Pico/pico-sdk/src/rp2_common/pico_flash/flash.c.obj
 .text.get_flash_safety_helper
                0x00000000        0x8 CMakeFiles/nano_http_client.dir/C_/Users/yoyom/Desktop/Pico/pico-sdk/src/rp2_common/pico_flash/flash.c.obj
 .text.flash_safe_execute_core_init
                0x00000000       0x18 CMakeFiles/nano_http_client.dir/C_/Users/yoyom/Desktop/Pico/pico-sdk/src/rp2_common/pico_flash/flash.c.obj
 .text.flash_safe_execute_core_deinit
                0x00000000       0x18 CMakeFiles/nano_http_client.dir/C_/Users/yoyom/Desktop/Pico/pico-sdk/src/rp2_common/pico_flash/flash.c.obj
 .text.flash_safe_execute
                0x00000000       0x2c CMakeFiles/nano_http_client.dir/C_/Users/yoyom/Desktop/Pico/pico-sdk/src/rp2_common/pico_flash/flash.c.obj
 .bss.irq_state
                0x00000000        0x8 CMakeFiles/nano_http_client.dir/C_/Users/yoyom/Desktop/Pico/pico-sdk/src/rp2_common/pico_flash/flash.c.obj
 .data.default_flash_safety_helper
                0x00000000        0xc CMakeFiles/nano_http_client.dir/C_/Users/yoyom/Desktop/Pico/pico-sdk/src/rp2_common/pico_flash/flash.c.obj
 .debug_info    0x00000000      0x549 CMakeFiles/nano_http_client.dir/C_/Users/yoyom/Desktop/Pico/pico-sdk/src/rp2_common/pico_flash/flash.c.obj
 .debug_abbrev  0x00000000      0x26f CMakeFiles/nano_http_client.dir/C_/Users/yoyom/Desktop/Pico/pico-sdk/src/rp2_common/pico_flash/flash.c.obj
 .debug_loc     0x00000000      0x1f7 CMakeFiles/nano_http_client.dir/C_/Users/yoyom/Desktop/Pico/pico-sdk/src/rp2_common/pico_flash/flash.c.obj
 .debug_aranges
                0x00000000       0x50 CMakeFiles/nano_http_client.dir/C_/Users/yoyom/Desktop/Pico/pico-sdk/src/rp2_common/pico_flash/flash.c.obj
 .debug_ranges  0x00000000       0x78 CMakeFiles/nano_http_client.dir/C_/Users/yoyom/Desktop/Pico/pico-sdk/src/rp2_common/pico_flash/flash.c.obj
 .debug_line    0x00000000      0x47a CMakeFiles/nano_http_client.dir/C_/Users/yoyom/Desktop/Pico/pico-sdk/src/rp2_common/pico_flash/flash.c.obj
 .debug_str     0x00000000      0x6fb CMakeFiles/nano_http_client.dir/C_/Users/yoyom/Desktop/Pico/pico-sdk/src/rp2_common/pico_flash/flash.c.obj
 .comment       0x00000000       0x4a CMakeFiles/nano_http_client.dir/C_/Users/yoyom/Desktop/Pico/pico-sdk/src/rp2_common/pico_flash/flash.c.obj
 .debug_frame   0x00000000       0xa0 CMakeFiles/nano_http_client.dir/C_/Users/yoyom/Desktop/Pico/pico-sdk/src/rp2_common/pico_flash/flash.c.obj
 .ARM.attributes
                0x00000000       0x2c CMakeFiles/nano_http_client.dir/C_/Users/yoyom/Desktop/Pico/pico-sdk/src/rp2_common/pico_flash/flash.c.obj
 .text          0x00000000        0x0 CMakeFiles/nano_http_client.dir/C_/Users/yoyom/Desktop/Pico/pico-sdk/src/rp2_common/hardware_xosc/xosc.c.obj
 .data          0x00000000        0x0 CMakeFiles/nano_http_client.dir/C_/Users/yoyom/Desktop/Pico/pico-sdk/src/rp2_common/hardware_xosc/xosc.c.obj
 .bss           0x00000000        0x0 CMakeFiles/nano_http_client.dir/C_/Users/yoyom/Desktop/Pico/pico-sdk/src/rp2_common/hardware_xosc/xosc.c.obj
 .text.xosc_disable
                0x00000000       0x24 CMakeFiles/nano_http_client.dir/C_/Users/yoyom/Desktop/Pico/pico-sdk/src/rp2_common/hardware_xosc/xosc.c.obj
 .text.xosc_dormant
                0x00000000       0x18 CMakeFiles/nano_http_client.dir/C_/Users/yoyom/Desktop/Pico/pico-sdk/src/rp2_common/hardware_xosc/xosc.c.obj
 .text          0x00000000        0x0 CMakeFiles/nano_http_client.dir/C_/Users/yoyom/Desktop/Pico/pico-sdk/src/rp2_common/hardware_divider/divider.S.obj
 .data          0x00000000        0x0 CMakeFiles/nano_http_client.dir/C_/Users/yoyom/Desktop/Pico/pico-sdk/src/rp2_common/hardware_divider/divider.S.obj
 .bss           0x00000000        0x0 CMakeFiles/nano_http_client.dir/C_/Users/yoyom/Desktop/Pico/pico-sdk/src/rp2_common/hardware_divider/divider.S.obj
 .text.hw_divider_divmod_s32
                0x00000000        0xc CMakeFiles/nano_http_client.dir/C_/Users/yoyom/Desktop/Pico/pico-sdk/src/rp2_common/hardware_divider/divider.S.obj
 .text.hw_divider_divmod_u32
                0x00000000        0xc CMakeFiles/nano_http_client.dir/C_/Users/yoyom/Desktop/Pico/pico-sdk/src/rp2_common/hardware_divider/divider.S.obj
 .text.hw_divider_divmod_return
                0x00000000        0xc CMakeFiles/nano_http_client.dir/C_/Users/yoyom/Desktop/Pico/pico-sdk/src/rp2_common/hardware_divider/divider.S.obj
 .text.hw_divider_save_state
                0x00000000       0x14 CMakeFiles/nano_http_client.dir/C_/Users/yoyom/Desktop/Pico/pico-sdk/src/rp2_common/hardware_divider/divider.S.obj
 .text.hw_divider_restore_state
                0x00000000       0x14 CMakeFiles/nano_http_client.dir/C_/Users/yoyom/Desktop/Pico/pico-sdk/src/rp2_common/hardware_divider/divider.S.obj
 .debug_line    0x00000000       0xdb CMakeFiles/nano_http_client.dir/C_/Users/yoyom/Desktop/Pico/pico-sdk/src/rp2_common/hardware_divider/divider.S.obj
 .debug_info    0x00000000       0x22 CMakeFiles/nano_http_client.dir/C_/Users/yoyom/Desktop/Pico/pico-sdk/src/rp2_common/hardware_divider/divider.S.obj
 .debug_abbrev  0x00000000       0x12 CMakeFiles/nano_http_client.dir/C_/Users/yoyom/Desktop/Pico/pico-sdk/src/rp2_common/hardware_divider/divider.S.obj
 .debug_aranges
                0x00000000       0x40 CMakeFiles/nano_http_client.dir/C_/Users/yoyom/Desktop/Pico/pico-sdk/src/rp2_common/hardware_divider/divider.S.obj
 .debug_str     0x00000000       0x92 CMakeFiles/nano_http_client.dir/C_/Users/yoyom/Desktop/Pico/pico-sdk/src/rp2_common/hardware_divider/divider.S.obj
 .debug_ranges  0x00000000       0x38 CMakeFiles/nano_http_client.dir/C_/Users/yoyom/Desktop/Pico/pico-sdk/src/rp2_common/hardware_divider/divider.S.obj
 .ARM.attributes
                0x00000000       0x22 CMakeFiles/nano_http_client.dir/C_/Users/yoyom/Desktop/Pico/pico-sdk/src/rp2_common/hardware_divider/divider.S.obj
 .text          0x00000000        0x0 CMakeFiles/nano_http_client.dir/C_/Users/yoyom/Desktop/Pico/pico-sdk/src/rp2_common/pico_runtime/runtime.c.obj
 .data          0x00000000        0x0 CMakeFiles/nano_http_client.dir/C_/Users/yoyom/Desktop/Pico/pico-sdk/src/rp2_common/pico_runtime/runtime.c.obj
 .bss           0x00000000        0x0 CMakeFiles/nano_http_client.dir/C_/Users/yoyom/Desktop/Pico/pico-sdk/src/rp2_common/pico_runtime/runtime.c.obj
 .text.runtime_run_per_core_initializers
                0x00000000       0x28 CMakeFiles/nano_http_client.dir/C_/Users/yoyom/Desktop/Pico/pico-sdk/src/rp2_common/pico_runtime/runtime.c.obj
 .text          0x00000000        0x0 CMakeFiles/nano_http_client.dir/C_/Users/yoyom/Desktop/Pico/pico-sdk/src/rp2_common/pico_runtime_init/runtime_init.c.obj
 .data          0x00000000        0x0 CMakeFiles/nano_http_client.dir/C_/Users/yoyom/Desktop/Pico/pico-sdk/src/rp2_common/pico_runtime_init/runtime_init.c.obj
 .bss           0x00000000        0x0 CMakeFiles/nano_http_client.dir/C_/Users/yoyom/Desktop/Pico/pico-sdk/src/rp2_common/pico_runtime_init/runtime_init.c.obj
 .text          0x00000000        0x0 CMakeFiles/nano_http_client.dir/C_/Users/yoyom/Desktop/Pico/pico-sdk/src/rp2_common/pico_runtime_init/runtime_init_clocks.c.obj
 .data          0x00000000        0x0 CMakeFiles/nano_http_client.dir/C_/Users/yoyom/Desktop/Pico/pico-sdk/src/rp2_common/pico_runtime_init/runtime_init_clocks.c.obj
 .bss           0x00000000        0x0 CMakeFiles/nano_http_client.dir/C_/Users/yoyom/Desktop/Pico/pico-sdk/src/rp2_common/pico_runtime_init/runtime_init_clocks.c.obj
 .text          0x00000000        0x0 CMakeFiles/nano_http_client.dir/C_/Users/yoyom/Desktop/Pico/pico-sdk/src/rp2_common/pico_runtime_init/runtime_init_stack_guard.c.obj
 .data          0x00000000        0x0 CMakeFiles/nano_http_client.dir/C_/Users/yoyom/Desktop/Pico/pico-sdk/src/rp2_common/pico_runtime_init/runtime_init_stack_guard.c.obj
 .bss           0x00000000        0x0 CMakeFiles/nano_http_client.dir/C_/Users/yoyom/Desktop/Pico/pico-sdk/src/rp2_common/pico_runtime_init/runtime_init_stack_guard.c.obj
 .text.runtime_init_per_core_install_stack_guard
                0x00000000       0x38 CMakeFiles/nano_http_client.dir/C_/Users/yoyom/Desktop/Pico/pico-sdk/src/rp2_common/pico_runtime_init/runtime_init_stack_guard.c.obj
 .debug_info    0x00000000      0x19b CMakeFiles/nano_http_client.dir/C_/Users/yoyom/Desktop/Pico/pico-sdk/src/rp2_common/pico_runtime_init/runtime_init_stack_guard.c.obj
 .debug_abbrev  0x00000000       0xea CMakeFiles/nano_http_client.dir/C_/Users/yoyom/Desktop/Pico/pico-sdk/src/rp2_common/pico_runtime_init/runtime_init_stack_guard.c.obj
 .debug_loc     0x00000000       0xe4 CMakeFiles/nano_http_client.dir/C_/Users/yoyom/Desktop/Pico/pico-sdk/src/rp2_common/pico_runtime_init/runtime_init_stack_guard.c.obj
 .debug_aranges
                0x00000000       0x20 CMakeFiles/nano_http_client.dir/C_/Users/yoyom/Desktop/Pico/pico-sdk/src/rp2_common/pico_runtime_init/runtime_init_stack_guard.c.obj
 .debug_ranges  0x00000000       0x10 CMakeFiles/nano_http_client.dir/C_/Users/yoyom/Desktop/Pico/pico-sdk/src/rp2_common/pico_runtime_init/runtime_init_stack_guard.c.obj
 .debug_line    0x00000000      0x30c CMakeFiles/nano_http_client.dir/C_/Users/yoyom/Desktop/Pico/pico-sdk/src/rp2_common/pico_runtime_init/runtime_init_stack_guard.c.obj
 .debug_str     0x00000000      0x268 CMakeFiles/nano_http_client.dir/C_/Users/yoyom/Desktop/Pico/pico-sdk/src/rp2_common/pico_runtime_init/runtime_init_stack_guard.c.obj
 .comment       0x00000000       0x4a CMakeFiles/nano_http_client.dir/C_/Users/yoyom/Desktop/Pico/pico-sdk/src/rp2_common/pico_runtime_init/runtime_init_stack_guard.c.obj
 .debug_frame   0x00000000       0x20 CMakeFiles/nano_http_client.dir/C_/Users/yoyom/Desktop/Pico/pico-sdk/src/rp2_common/pico_runtime_init/runtime_init_stack_guard.c.obj
 .ARM.attributes
                0x00000000       0x2c CMakeFiles/nano_http_client.dir/C_/Users/yoyom/Desktop/Pico/pico-sdk/src/rp2_common/pico_runtime_init/runtime_init_stack_guard.c.obj
 .data          0x00000000        0x0 CMakeFiles/nano_http_client.dir/C_/Users/yoyom/Desktop/Pico/pico-sdk/src/rp2_common/pico_bit_ops/bit_ops_aeabi.S.obj
 .bss           0x00000000        0x0 CMakeFiles/nano_http_client.dir/C_/Users/yoyom/Desktop/Pico/pico-sdk/src/rp2_common/pico_bit_ops/bit_ops_aeabi.S.obj
 .text.clzsi    0x00000000        0xc CMakeFiles/nano_http_client.dir/C_/Users/yoyom/Desktop/Pico/pico-sdk/src/rp2_common/pico_bit_ops/bit_ops_aeabi.S.obj
 .text.ctzsi    0x00000000        0xc CMakeFiles/nano_http_client.dir/C_/Users/yoyom/Desktop/Pico/pico-sdk/src/rp2_common/pico_bit_ops/bit_ops_aeabi.S.obj
 .text.popcountsi
                0x00000000        0xc CMakeFiles/nano_http_client.dir/C_/Users/yoyom/Desktop/Pico/pico-sdk/src/rp2_common/pico_bit_ops/bit_ops_aeabi.S.obj
 .text.clzdi    0x00000000       0x18 CMakeFiles/nano_http_client.dir/C_/Users/yoyom/Desktop/Pico/pico-sdk/src/rp2_common/pico_bit_ops/bit_ops_aeabi.S.obj
 .text.ctzdi    0x00000000       0x18 CMakeFiles/nano_http_client.dir/C_/Users/yoyom/Desktop/Pico/pico-sdk/src/rp2_common/pico_bit_ops/bit_ops_aeabi.S.obj
 .text.popcountdi
                0x00000000       0x18 CMakeFiles/nano_http_client.dir/C_/Users/yoyom/Desktop/Pico/pico-sdk/src/rp2_common/pico_bit_ops/bit_ops_aeabi.S.obj
 .text.__rev    0x00000000        0xc CMakeFiles/nano_http_client.dir/C_/Users/yoyom/Desktop/Pico/pico-sdk/src/rp2_common/pico_bit_ops/bit_ops_aeabi.S.obj
 .text.__revll  0x00000000       0x18 CMakeFiles/nano_http_client.dir/C_/Users/yoyom/Desktop/Pico/pico-sdk/src/rp2_common/pico_bit_ops/bit_ops_aeabi.S.obj
 .text          0x00000000        0x0 CMakeFiles/nano_http_client.dir/C_/Users/yoyom/Desktop/Pico/pico-sdk/src/rp2_common/pico_divider/divider_hardware.S.obj
 .data          0x00000000        0x0 CMakeFiles/nano_http_client.dir/C_/Users/yoyom/Desktop/Pico/pico-sdk/src/rp2_common/pico_divider/divider_hardware.S.obj
 .bss           0x00000000        0x0 CMakeFiles/nano_http_client.dir/C_/Users/yoyom/Desktop/Pico/pico-sdk/src/rp2_common/pico_divider/divider_hardware.S.obj
 .text.divmod_s64s64_rem
                0x00000000        0xc CMakeFiles/nano_http_client.dir/C_/Users/yoyom/Desktop/Pico/pico-sdk/src/rp2_common/pico_divider/divider_hardware.S.obj
 .text.divmod_u64u64_rem
                0x00000000        0xc CMakeFiles/nano_http_client.dir/C_/Users/yoyom/Desktop/Pico/pico-sdk/src/rp2_common/pico_divider/divider_hardware.S.obj
 .text          0x00000000        0x0 CMakeFiles/nano_http_client.dir/C_/Users/yoyom/Desktop/Pico/pico-sdk/src/rp2_common/pico_double/double_aeabi_rp2040.S.obj
 .data          0x00000000        0x0 CMakeFiles/nano_http_client.dir/C_/Users/yoyom/Desktop/Pico/pico-sdk/src/rp2_common/pico_double/double_aeabi_rp2040.S.obj
 .bss           0x00000000        0x0 CMakeFiles/nano_http_client.dir/C_/Users/yoyom/Desktop/Pico/pico-sdk/src/rp2_common/pico_double/double_aeabi_rp2040.S.obj
 .text.push_r8_r11
                0x00000000        0xc CMakeFiles/nano_http_client.dir/C_/Users/yoyom/Desktop/Pico/pico-sdk/src/rp2_common/pico_double/double_aeabi_rp2040.S.obj
 .text.pop_r8_r11
                0x00000000        0xc CMakeFiles/nano_http_client.dir/C_/Users/yoyom/Desktop/Pico/pico-sdk/src/rp2_common/pico_double/double_aeabi_rp2040.S.obj
 .text.__wrap___aeabi_dcmpeq
                0x00000000       0x10 CMakeFiles/nano_http_client.dir/C_/Users/yoyom/Desktop/Pico/pico-sdk/src/rp2_common/pico_double/double_aeabi_rp2040.S.obj
 .text.__wrap___aeabi_ui2d
                0x00000000       0x10 CMakeFiles/nano_http_client.dir/C_/Users/yoyom/Desktop/Pico/pico-sdk/src/rp2_common/pico_double/double_aeabi_rp2040.S.obj
 .text.double2int
                0x00000000       0x10 CMakeFiles/nano_http_client.dir/C_/Users/yoyom/Desktop/Pico/pico-sdk/src/rp2_common/pico_double/double_aeabi_rp2040.S.obj
 .text.fix2double
                0x00000000       0x10 CMakeFiles/nano_http_client.dir/C_/Users/yoyom/Desktop/Pico/pico-sdk/src/rp2_common/pico_double/double_aeabi_rp2040.S.obj
 .text.ufix2double
                0x00000000       0x18 CMakeFiles/nano_http_client.dir/C_/Users/yoyom/Desktop/Pico/pico-sdk/src/rp2_common/pico_double/double_aeabi_rp2040.S.obj
 .text.fix642double
                0x00000000       0x10 CMakeFiles/nano_http_client.dir/C_/Users/yoyom/Desktop/Pico/pico-sdk/src/rp2_common/pico_double/double_aeabi_rp2040.S.obj
 .text.__wrap___aeabi_l2d
                0x00000000       0x10 CMakeFiles/nano_http_client.dir/C_/Users/yoyom/Desktop/Pico/pico-sdk/src/rp2_common/pico_double/double_aeabi_rp2040.S.obj
 .text.__wrap___aeabi_ul2d
                0x00000000       0x10 CMakeFiles/nano_http_client.dir/C_/Users/yoyom/Desktop/Pico/pico-sdk/src/rp2_common/pico_double/double_aeabi_rp2040.S.obj
 .text.__wrap___aeabi_d2lz
                0x00000000       0x26 CMakeFiles/nano_http_client.dir/C_/Users/yoyom/Desktop/Pico/pico-sdk/src/rp2_common/pico_double/double_aeabi_rp2040.S.obj
 .text.double2int64
                0x00000000       0x10 CMakeFiles/nano_http_client.dir/C_/Users/yoyom/Desktop/Pico/pico-sdk/src/rp2_common/pico_double/double_aeabi_rp2040.S.obj
 .text.__wrap___aeabi_d2ulz
                0x00000000       0x10 CMakeFiles/nano_http_client.dir/C_/Users/yoyom/Desktop/Pico/pico-sdk/src/rp2_common/pico_double/double_aeabi_rp2040.S.obj
 .text.double2fix64
                0x00000000       0x10 CMakeFiles/nano_http_client.dir/C_/Users/yoyom/Desktop/Pico/pico-sdk/src/rp2_common/pico_double/double_aeabi_rp2040.S.obj
 .text.double2ufix64
                0x00000000       0x10 CMakeFiles/nano_http_client.dir/C_/Users/yoyom/Desktop/Pico/pico-sdk/src/rp2_common/pico_double/double_aeabi_rp2040.S.obj
 .text.double2fix
                0x00000000       0x10 CMakeFiles/nano_http_client.dir/C_/Users/yoyom/Desktop/Pico/pico-sdk/src/rp2_common/pico_double/double_aeabi_rp2040.S.obj
 .text.double2ufix
                0x00000000       0x10 CMakeFiles/nano_http_client.dir/C_/Users/yoyom/Desktop/Pico/pico-sdk/src/rp2_common/pico_double/double_aeabi_rp2040.S.obj
 .text.__wrap___aeabi_d2f
                0x00000000       0x10 CMakeFiles/nano_http_client.dir/C_/Users/yoyom/Desktop/Pico/pico-sdk/src/rp2_common/pico_double/double_aeabi_rp2040.S.obj
 .text.__wrap_srqt
                0x00000000       0x10 CMakeFiles/nano_http_client.dir/C_/Users/yoyom/Desktop/Pico/pico-sdk/src/rp2_common/pico_double/double_aeabi_rp2040.S.obj
 .text.__wrap_sincostan_remainder
                0x00000000       0x14 CMakeFiles/nano_http_client.dir/C_/Users/yoyom/Desktop/Pico/pico-sdk/src/rp2_common/pico_double/double_aeabi_rp2040.S.obj
 .text.__wrap_cos
                0x00000000       0x24 CMakeFiles/nano_http_client.dir/C_/Users/yoyom/Desktop/Pico/pico-sdk/src/rp2_common/pico_double/double_aeabi_rp2040.S.obj
 .text.__wrap_sin
                0x00000000       0x24 CMakeFiles/nano_http_client.dir/C_/Users/yoyom/Desktop/Pico/pico-sdk/src/rp2_common/pico_double/double_aeabi_rp2040.S.obj
 .text.__wrap_sincos
                0x00000000       0x8c CMakeFiles/nano_http_client.dir/C_/Users/yoyom/Desktop/Pico/pico-sdk/src/rp2_common/pico_double/double_aeabi_rp2040.S.obj
 .text.__wrap_tan
                0x00000000       0x54 CMakeFiles/nano_http_client.dir/C_/Users/yoyom/Desktop/Pico/pico-sdk/src/rp2_common/pico_double/double_aeabi_rp2040.S.obj
 .text.__wrap_atan2
                0x00000000       0x10 CMakeFiles/nano_http_client.dir/C_/Users/yoyom/Desktop/Pico/pico-sdk/src/rp2_common/pico_double/double_aeabi_rp2040.S.obj
 .text.__wrap_exp
                0x00000000       0x10 CMakeFiles/nano_http_client.dir/C_/Users/yoyom/Desktop/Pico/pico-sdk/src/rp2_common/pico_double/double_aeabi_rp2040.S.obj
 .text.__wrap_log
                0x00000000       0x10 CMakeFiles/nano_http_client.dir/C_/Users/yoyom/Desktop/Pico/pico-sdk/src/rp2_common/pico_double/double_aeabi_rp2040.S.obj
 .text          0x00000000        0x0 CMakeFiles/nano_http_client.dir/C_/Users/yoyom/Desktop/Pico/pico-sdk/src/rp2_common/pico_double/double_init_rom_rp2040.c.obj
 .data          0x00000000        0x0 CMakeFiles/nano_http_client.dir/C_/Users/yoyom/Desktop/Pico/pico-sdk/src/rp2_common/pico_double/double_init_rom_rp2040.c.obj
 .bss           0x00000000        0x0 CMakeFiles/nano_http_client.dir/C_/Users/yoyom/Desktop/Pico/pico-sdk/src/rp2_common/pico_double/double_init_rom_rp2040.c.obj
 .text          0x00000000        0x0 CMakeFiles/nano_http_client.dir/C_/Users/yoyom/Desktop/Pico/pico-sdk/src/rp2_common/pico_double/double_math.c.obj
 .data          0x00000000        0x0 CMakeFiles/nano_http_client.dir/C_/Users/yoyom/Desktop/Pico/pico-sdk/src/rp2_common/pico_double/double_math.c.obj
 .bss           0x00000000        0x0 CMakeFiles/nano_http_client.dir/C_/Users/yoyom/Desktop/Pico/pico-sdk/src/rp2_common/pico_double/double_math.c.obj
 .text.dpow_1   0x00000000      0x274 CMakeFiles/nano_http_client.dir/C_/Users/yoyom/Desktop/Pico/pico-sdk/src/rp2_common/pico_double/double_math.c.obj
 .text.dpow_int2
                0x00000000       0xf8 CMakeFiles/nano_http_client.dir/C_/Users/yoyom/Desktop/Pico/pico-sdk/src/rp2_common/pico_double/double_math.c.obj
 .text.dpowint_0
                0x00000000      0x1dc CMakeFiles/nano_http_client.dir/C_/Users/yoyom/Desktop/Pico/pico-sdk/src/rp2_common/pico_double/double_math.c.obj
 .text.dpow_0   0x00000000      0x1cc CMakeFiles/nano_http_client.dir/C_/Users/yoyom/Desktop/Pico/pico-sdk/src/rp2_common/pico_double/double_math.c.obj
 .text.__wrap_ldexp
                0x00000000       0x4c CMakeFiles/nano_http_client.dir/C_/Users/yoyom/Desktop/Pico/pico-sdk/src/rp2_common/pico_double/double_math.c.obj
 .text.__wrap_copysign
                0x00000000       0x10 CMakeFiles/nano_http_client.dir/C_/Users/yoyom/Desktop/Pico/pico-sdk/src/rp2_common/pico_double/double_math.c.obj
 .text.__wrap_trunc
                0x00000000       0x60 CMakeFiles/nano_http_client.dir/C_/Users/yoyom/Desktop/Pico/pico-sdk/src/rp2_common/pico_double/double_math.c.obj
 .text.__wrap_round
                0x00000000       0xa0 CMakeFiles/nano_http_client.dir/C_/Users/yoyom/Desktop/Pico/pico-sdk/src/rp2_common/pico_double/double_math.c.obj
 .text.__wrap_floor
                0x00000000       0x94 CMakeFiles/nano_http_client.dir/C_/Users/yoyom/Desktop/Pico/pico-sdk/src/rp2_common/pico_double/double_math.c.obj
 .text.__wrap_ceil
                0x00000000       0x98 CMakeFiles/nano_http_client.dir/C_/Users/yoyom/Desktop/Pico/pico-sdk/src/rp2_common/pico_double/double_math.c.obj
 .text.__wrap_asin
                0x00000000       0x60 CMakeFiles/nano_http_client.dir/C_/Users/yoyom/Desktop/Pico/pico-sdk/src/rp2_common/pico_double/double_math.c.obj
 .text.__wrap_acos
                0x00000000       0x5c CMakeFiles/nano_http_client.dir/C_/Users/yoyom/Desktop/Pico/pico-sdk/src/rp2_common/pico_double/double_math.c.obj
 .text.__wrap_atan
                0x00000000       0x40 CMakeFiles/nano_http_client.dir/C_/Users/yoyom/Desktop/Pico/pico-sdk/src/rp2_common/pico_double/double_math.c.obj
 .text.__wrap_sinh
                0x00000000       0x5c CMakeFiles/nano_http_client.dir/C_/Users/yoyom/Desktop/Pico/pico-sdk/src/rp2_common/pico_double/double_math.c.obj
 .text.__wrap_cosh
                0x00000000       0x5c CMakeFiles/nano_http_client.dir/C_/Users/yoyom/Desktop/Pico/pico-sdk/src/rp2_common/pico_double/double_math.c.obj
 .text.__wrap_tanh
                0x00000000       0x68 CMakeFiles/nano_http_client.dir/C_/Users/yoyom/Desktop/Pico/pico-sdk/src/rp2_common/pico_double/double_math.c.obj
 .text.__wrap_asinh
                0x00000000       0xb0 CMakeFiles/nano_http_client.dir/C_/Users/yoyom/Desktop/Pico/pico-sdk/src/rp2_common/pico_double/double_math.c.obj
 .text.__wrap_acosh
                0x00000000       0x7c CMakeFiles/nano_http_client.dir/C_/Users/yoyom/Desktop/Pico/pico-sdk/src/rp2_common/pico_double/double_math.c.obj
 .text.__wrap_atanh
                0x00000000       0x60 CMakeFiles/nano_http_client.dir/C_/Users/yoyom/Desktop/Pico/pico-sdk/src/rp2_common/pico_double/double_math.c.obj
 .text.__wrap_exp2
                0x00000000       0xbc CMakeFiles/nano_http_client.dir/C_/Users/yoyom/Desktop/Pico/pico-sdk/src/rp2_common/pico_double/double_math.c.obj
 .text.__wrap_log2
                0x00000000       0x18 CMakeFiles/nano_http_client.dir/C_/Users/yoyom/Desktop/Pico/pico-sdk/src/rp2_common/pico_double/double_math.c.obj
 .text.__wrap_exp10
                0x00000000       0x14 CMakeFiles/nano_http_client.dir/C_/Users/yoyom/Desktop/Pico/pico-sdk/src/rp2_common/pico_double/double_math.c.obj
 .text.__wrap_log10
                0x00000000       0x18 CMakeFiles/nano_http_client.dir/C_/Users/yoyom/Desktop/Pico/pico-sdk/src/rp2_common/pico_double/double_math.c.obj
 .text.__wrap_expm1
                0x00000000       0x14 CMakeFiles/nano_http_client.dir/C_/Users/yoyom/Desktop/Pico/pico-sdk/src/rp2_common/pico_double/double_math.c.obj
 .text.__wrap_log1p
                0x00000000       0x14 CMakeFiles/nano_http_client.dir/C_/Users/yoyom/Desktop/Pico/pico-sdk/src/rp2_common/pico_double/double_math.c.obj
 .text.__wrap_fma
                0x00000000       0x10 CMakeFiles/nano_http_client.dir/C_/Users/yoyom/Desktop/Pico/pico-sdk/src/rp2_common/pico_double/double_math.c.obj
 .text.__wrap_powint
                0x00000000       0xb0 CMakeFiles/nano_http_client.dir/C_/Users/yoyom/Desktop/Pico/pico-sdk/src/rp2_common/pico_double/double_math.c.obj
 .text.__wrap_pow
                0x00000000      0x314 CMakeFiles/nano_http_client.dir/C_/Users/yoyom/Desktop/Pico/pico-sdk/src/rp2_common/pico_double/double_math.c.obj
 .text.__wrap_hypot
                0x00000000      0x1ac CMakeFiles/nano_http_client.dir/C_/Users/yoyom/Desktop/Pico/pico-sdk/src/rp2_common/pico_double/double_math.c.obj
 .text.__wrap_cbrt
                0x00000000       0xcc CMakeFiles/nano_http_client.dir/C_/Users/yoyom/Desktop/Pico/pico-sdk/src/rp2_common/pico_double/double_math.c.obj
 .text.__wrap_fmod
                0x00000000      0x170 CMakeFiles/nano_http_client.dir/C_/Users/yoyom/Desktop/Pico/pico-sdk/src/rp2_common/pico_double/double_math.c.obj
 .text.__wrap_remquo
                0x00000000      0x2a0 CMakeFiles/nano_http_client.dir/C_/Users/yoyom/Desktop/Pico/pico-sdk/src/rp2_common/pico_double/double_math.c.obj
 .text.__wrap_drem
                0x00000000       0x10 CMakeFiles/nano_http_client.dir/C_/Users/yoyom/Desktop/Pico/pico-sdk/src/rp2_common/pico_double/double_math.c.obj
 .text.__wrap_remainder
                0x00000000       0x10 CMakeFiles/nano_http_client.dir/C_/Users/yoyom/Desktop/Pico/pico-sdk/src/rp2_common/pico_double/double_math.c.obj
 .debug_info    0x00000000     0x4052 CMakeFiles/nano_http_client.dir/C_/Users/yoyom/Desktop/Pico/pico-sdk/src/rp2_common/pico_double/double_math.c.obj
 .debug_abbrev  0x00000000      0x31d CMakeFiles/nano_http_client.dir/C_/Users/yoyom/Desktop/Pico/pico-sdk/src/rp2_common/pico_double/double_math.c.obj
 .debug_loc     0x00000000     0x66d2 CMakeFiles/nano_http_client.dir/C_/Users/yoyom/Desktop/Pico/pico-sdk/src/rp2_common/pico_double/double_math.c.obj
 .debug_aranges
                0x00000000      0x120 CMakeFiles/nano_http_client.dir/C_/Users/yoyom/Desktop/Pico/pico-sdk/src/rp2_common/pico_double/double_math.c.obj
 .debug_ranges  0x00000000     0x14d0 CMakeFiles/nano_http_client.dir/C_/Users/yoyom/Desktop/Pico/pico-sdk/src/rp2_common/pico_double/double_math.c.obj
 .debug_line    0x00000000     0x3357 CMakeFiles/nano_http_client.dir/C_/Users/yoyom/Desktop/Pico/pico-sdk/src/rp2_common/pico_double/double_math.c.obj
 .debug_str     0x00000000      0x524 CMakeFiles/nano_http_client.dir/C_/Users/yoyom/Desktop/Pico/pico-sdk/src/rp2_common/pico_double/double_math.c.obj
 .comment       0x00000000       0x4a CMakeFiles/nano_http_client.dir/C_/Users/yoyom/Desktop/Pico/pico-sdk/src/rp2_common/pico_double/double_math.c.obj
 .debug_frame   0x00000000      0x454 CMakeFiles/nano_http_client.dir/C_/Users/yoyom/Desktop/Pico/pico-sdk/src/rp2_common/pico_double/double_math.c.obj
 .ARM.attributes
                0x00000000       0x2c CMakeFiles/nano_http_client.dir/C_/Users/yoyom/Desktop/Pico/pico-sdk/src/rp2_common/pico_double/double_math.c.obj
 .text          0x00000000        0x0 CMakeFiles/nano_http_client.dir/C_/Users/yoyom/Desktop/Pico/pico-sdk/src/rp2_common/pico_double/double_v1_rom_shim_rp2040.S.obj
 .data          0x00000000        0x0 CMakeFiles/nano_http_client.dir/C_/Users/yoyom/Desktop/Pico/pico-sdk/src/rp2_common/pico_double/double_v1_rom_shim_rp2040.S.obj
 .bss           0x00000000        0x0 CMakeFiles/nano_http_client.dir/C_/Users/yoyom/Desktop/Pico/pico-sdk/src/rp2_common/pico_double/double_v1_rom_shim_rp2040.S.obj
 .text          0x00000000        0x0 CMakeFiles/nano_http_client.dir/C_/Users/yoyom/Desktop/Pico/pico-sdk/src/rp2_common/pico_int64_ops/pico_int64_ops_aeabi.S.obj
 .data          0x00000000        0x0 CMakeFiles/nano_http_client.dir/C_/Users/yoyom/Desktop/Pico/pico-sdk/src/rp2_common/pico_int64_ops/pico_int64_ops_aeabi.S.obj
 .bss           0x00000000        0x0 CMakeFiles/nano_http_client.dir/C_/Users/yoyom/Desktop/Pico/pico-sdk/src/rp2_common/pico_int64_ops/pico_int64_ops_aeabi.S.obj
 .text          0x00000000        0x0 CMakeFiles/nano_http_client.dir/C_/Users/yoyom/Desktop/Pico/pico-sdk/src/rp2_common/pico_float/float_aeabi_rp2040.S.obj
 .data          0x00000000        0x0 CMakeFiles/nano_http_client.dir/C_/Users/yoyom/Desktop/Pico/pico-sdk/src/rp2_common/pico_float/float_aeabi_rp2040.S.obj
 .bss           0x00000000        0x0 CMakeFiles/nano_http_client.dir/C_/Users/yoyom/Desktop/Pico/pico-sdk/src/rp2_common/pico_float/float_aeabi_rp2040.S.obj
 .text.__wrap___aeabi_farithmetic
                0x00000000       0x48 CMakeFiles/nano_http_client.dir/C_/Users/yoyom/Desktop/Pico/pico-sdk/src/rp2_common/pico_float/float_aeabi_rp2040.S.obj
 .text.__wrap___aeabi_cfcmple
                0x00000000       0x50 CMakeFiles/nano_http_client.dir/C_/Users/yoyom/Desktop/Pico/pico-sdk/src/rp2_common/pico_float/float_aeabi_rp2040.S.obj
 .text.__wrap___aeabi_fcmpeq
                0x00000000       0x10 CMakeFiles/nano_http_client.dir/C_/Users/yoyom/Desktop/Pico/pico-sdk/src/rp2_common/pico_float/float_aeabi_rp2040.S.obj
 .text.__wrap___aeabi_fcmplt
                0x00000000        0xc CMakeFiles/nano_http_client.dir/C_/Users/yoyom/Desktop/Pico/pico-sdk/src/rp2_common/pico_float/float_aeabi_rp2040.S.obj
 .text.__wrap___aeabi_fcmple
                0x00000000       0x10 CMakeFiles/nano_http_client.dir/C_/Users/yoyom/Desktop/Pico/pico-sdk/src/rp2_common/pico_float/float_aeabi_rp2040.S.obj
 .text.__wrap___aeabi_fcmpge
                0x00000000       0x10 CMakeFiles/nano_http_client.dir/C_/Users/yoyom/Desktop/Pico/pico-sdk/src/rp2_common/pico_float/float_aeabi_rp2040.S.obj
 .text.__wrap___aeabi_fcmpgt
                0x00000000        0xa CMakeFiles/nano_http_client.dir/C_/Users/yoyom/Desktop/Pico/pico-sdk/src/rp2_common/pico_float/float_aeabi_rp2040.S.obj
 .text.__wrap___aeabi_fcmpun
                0x00000000       0x18 CMakeFiles/nano_http_client.dir/C_/Users/yoyom/Desktop/Pico/pico-sdk/src/rp2_common/pico_float/float_aeabi_rp2040.S.obj
 .text.__wrap___aeabi_ui2f
                0x00000000        0xa CMakeFiles/nano_http_client.dir/C_/Users/yoyom/Desktop/Pico/pico-sdk/src/rp2_common/pico_float/float_aeabi_rp2040.S.obj
 .text.__wrap___aeabi_i2f
                0x00000000       0x44 CMakeFiles/nano_http_client.dir/C_/Users/yoyom/Desktop/Pico/pico-sdk/src/rp2_common/pico_float/float_aeabi_rp2040.S.obj
 .text.__wrap___aeabi_f2iz
                0x00000000       0x4e CMakeFiles/nano_http_client.dir/C_/Users/yoyom/Desktop/Pico/pico-sdk/src/rp2_common/pico_float/float_aeabi_rp2040.S.obj
 .text.float2int
                0x00000000        0xc CMakeFiles/nano_http_client.dir/C_/Users/yoyom/Desktop/Pico/pico-sdk/src/rp2_common/pico_float/float_aeabi_rp2040.S.obj
 .text.float2fix
                0x00000000        0xc CMakeFiles/nano_http_client.dir/C_/Users/yoyom/Desktop/Pico/pico-sdk/src/rp2_common/pico_float/float_aeabi_rp2040.S.obj
 .text.float2ufix
                0x00000000        0xc CMakeFiles/nano_http_client.dir/C_/Users/yoyom/Desktop/Pico/pico-sdk/src/rp2_common/pico_float/float_aeabi_rp2040.S.obj
 .text.__wrap___aeabi_f2uiz
                0x00000000        0xc CMakeFiles/nano_http_client.dir/C_/Users/yoyom/Desktop/Pico/pico-sdk/src/rp2_common/pico_float/float_aeabi_rp2040.S.obj
 .text.fix2float
                0x00000000        0xc CMakeFiles/nano_http_client.dir/C_/Users/yoyom/Desktop/Pico/pico-sdk/src/rp2_common/pico_float/float_aeabi_rp2040.S.obj
 .text.ufix2float
                0x00000000        0xc CMakeFiles/nano_http_client.dir/C_/Users/yoyom/Desktop/Pico/pico-sdk/src/rp2_common/pico_float/float_aeabi_rp2040.S.obj
 .text.fix642float
                0x00000000        0xc CMakeFiles/nano_http_client.dir/C_/Users/yoyom/Desktop/Pico/pico-sdk/src/rp2_common/pico_float/float_aeabi_rp2040.S.obj
 .text.ufix642float
                0x00000000        0xc CMakeFiles/nano_http_client.dir/C_/Users/yoyom/Desktop/Pico/pico-sdk/src/rp2_common/pico_float/float_aeabi_rp2040.S.obj
 .text.__wrap___aeabi_l2f
                0x00000000       0x18 CMakeFiles/nano_http_client.dir/C_/Users/yoyom/Desktop/Pico/pico-sdk/src/rp2_common/pico_float/float_aeabi_rp2040.S.obj
 .text.__wrap___aeabi_ul2f
                0x00000000       0x18 CMakeFiles/nano_http_client.dir/C_/Users/yoyom/Desktop/Pico/pico-sdk/src/rp2_common/pico_float/float_aeabi_rp2040.S.obj
 .text.__wrap___aeabi_f2lz
                0x00000000       0x26 CMakeFiles/nano_http_client.dir/C_/Users/yoyom/Desktop/Pico/pico-sdk/src/rp2_common/pico_float/float_aeabi_rp2040.S.obj
 .text.float2int64
                0x00000000        0xc CMakeFiles/nano_http_client.dir/C_/Users/yoyom/Desktop/Pico/pico-sdk/src/rp2_common/pico_float/float_aeabi_rp2040.S.obj
 .text.float2fix64
                0x00000000        0xc CMakeFiles/nano_http_client.dir/C_/Users/yoyom/Desktop/Pico/pico-sdk/src/rp2_common/pico_float/float_aeabi_rp2040.S.obj
 .text.__wrap___aeabi_f2ulz
                0x00000000        0xc CMakeFiles/nano_http_client.dir/C_/Users/yoyom/Desktop/Pico/pico-sdk/src/rp2_common/pico_float/float_aeabi_rp2040.S.obj
 .text.float2ufix64
                0x00000000        0xc CMakeFiles/nano_http_client.dir/C_/Users/yoyom/Desktop/Pico/pico-sdk/src/rp2_common/pico_float/float_aeabi_rp2040.S.obj
 .text.__wrap___aeabi_f2d
                0x00000000        0xc CMakeFiles/nano_http_client.dir/C_/Users/yoyom/Desktop/Pico/pico-sdk/src/rp2_common/pico_float/float_aeabi_rp2040.S.obj
 .text.__wrap_sqrtf
                0x00000000        0xc CMakeFiles/nano_http_client.dir/C_/Users/yoyom/Desktop/Pico/pico-sdk/src/rp2_common/pico_float/float_aeabi_rp2040.S.obj
 .text.__wrap_cosf
                0x00000000       0x24 CMakeFiles/nano_http_client.dir/C_/Users/yoyom/Desktop/Pico/pico-sdk/src/rp2_common/pico_float/float_aeabi_rp2040.S.obj
 .text.__wrap_sinf
                0x00000000       0x24 CMakeFiles/nano_http_client.dir/C_/Users/yoyom/Desktop/Pico/pico-sdk/src/rp2_common/pico_float/float_aeabi_rp2040.S.obj
 .text.__wrap_sincosf
                0x00000000       0x30 CMakeFiles/nano_http_client.dir/C_/Users/yoyom/Desktop/Pico/pico-sdk/src/rp2_common/pico_float/float_aeabi_rp2040.S.obj
 .text.__wrap_tanf
                0x00000000       0x4c CMakeFiles/nano_http_client.dir/C_/Users/yoyom/Desktop/Pico/pico-sdk/src/rp2_common/pico_float/float_aeabi_rp2040.S.obj
 .text.__wrap_atan2f
                0x00000000        0xc CMakeFiles/nano_http_client.dir/C_/Users/yoyom/Desktop/Pico/pico-sdk/src/rp2_common/pico_float/float_aeabi_rp2040.S.obj
 .text.__wrap_expf
                0x00000000        0xc CMakeFiles/nano_http_client.dir/C_/Users/yoyom/Desktop/Pico/pico-sdk/src/rp2_common/pico_float/float_aeabi_rp2040.S.obj
 .text.__wrap_logf
                0x00000000        0xc CMakeFiles/nano_http_client.dir/C_/Users/yoyom/Desktop/Pico/pico-sdk/src/rp2_common/pico_float/float_aeabi_rp2040.S.obj
 .text          0x00000000        0x0 CMakeFiles/nano_http_client.dir/C_/Users/yoyom/Desktop/Pico/pico-sdk/src/rp2_common/pico_float/float_init_rom_rp2040.c.obj
 .data          0x00000000        0x0 CMakeFiles/nano_http_client.dir/C_/Users/yoyom/Desktop/Pico/pico-sdk/src/rp2_common/pico_float/float_init_rom_rp2040.c.obj
 .bss           0x00000000        0x0 CMakeFiles/nano_http_client.dir/C_/Users/yoyom/Desktop/Pico/pico-sdk/src/rp2_common/pico_float/float_init_rom_rp2040.c.obj
 .bss.sf_clz_func
                0x00000000        0x4 CMakeFiles/nano_http_client.dir/C_/Users/yoyom/Desktop/Pico/pico-sdk/src/rp2_common/pico_float/float_init_rom_rp2040.c.obj
 .text          0x00000000        0x0 CMakeFiles/nano_http_client.dir/C_/Users/yoyom/Desktop/Pico/pico-sdk/src/rp2_common/pico_float/float_math.c.obj
 .data          0x00000000        0x0 CMakeFiles/nano_http_client.dir/C_/Users/yoyom/Desktop/Pico/pico-sdk/src/rp2_common/pico_float/float_math.c.obj
 .bss           0x00000000        0x0 CMakeFiles/nano_http_client.dir/C_/Users/yoyom/Desktop/Pico/pico-sdk/src/rp2_common/pico_float/float_math.c.obj
 .text.fpow_int2
                0x00000000       0xd4 CMakeFiles/nano_http_client.dir/C_/Users/yoyom/Desktop/Pico/pico-sdk/src/rp2_common/pico_float/float_math.c.obj
 .text.fpowint_0
                0x00000000       0xe8 CMakeFiles/nano_http_client.dir/C_/Users/yoyom/Desktop/Pico/pico-sdk/src/rp2_common/pico_float/float_math.c.obj
 .text.fpow_0   0x00000000       0xf8 CMakeFiles/nano_http_client.dir/C_/Users/yoyom/Desktop/Pico/pico-sdk/src/rp2_common/pico_float/float_math.c.obj
 .text.__wrap_ldexpf
                0x00000000       0x30 CMakeFiles/nano_http_client.dir/C_/Users/yoyom/Desktop/Pico/pico-sdk/src/rp2_common/pico_float/float_math.c.obj
 .text.__wrap_copysignf
                0x00000000        0xc CMakeFiles/nano_http_client.dir/C_/Users/yoyom/Desktop/Pico/pico-sdk/src/rp2_common/pico_float/float_math.c.obj
 .text.__wrap_truncf
                0x00000000       0x20 CMakeFiles/nano_http_client.dir/C_/Users/yoyom/Desktop/Pico/pico-sdk/src/rp2_common/pico_float/float_math.c.obj
 .text.__wrap_roundf
                0x00000000       0x3c CMakeFiles/nano_http_client.dir/C_/Users/yoyom/Desktop/Pico/pico-sdk/src/rp2_common/pico_float/float_math.c.obj
 .text.__wrap_floorf
                0x00000000       0x40 CMakeFiles/nano_http_client.dir/C_/Users/yoyom/Desktop/Pico/pico-sdk/src/rp2_common/pico_float/float_math.c.obj
 .text.__wrap_ceilf
                0x00000000       0x44 CMakeFiles/nano_http_client.dir/C_/Users/yoyom/Desktop/Pico/pico-sdk/src/rp2_common/pico_float/float_math.c.obj
 .text.__wrap_asinf
                0x00000000       0x40 CMakeFiles/nano_http_client.dir/C_/Users/yoyom/Desktop/Pico/pico-sdk/src/rp2_common/pico_float/float_math.c.obj
 .text.__wrap_acosf
                0x00000000       0x40 CMakeFiles/nano_http_client.dir/C_/Users/yoyom/Desktop/Pico/pico-sdk/src/rp2_common/pico_float/float_math.c.obj
 .text.__wrap_atanf
                0x00000000       0x2c CMakeFiles/nano_http_client.dir/C_/Users/yoyom/Desktop/Pico/pico-sdk/src/rp2_common/pico_float/float_math.c.obj
 .text.__wrap_sinhf
                0x00000000       0x3c CMakeFiles/nano_http_client.dir/C_/Users/yoyom/Desktop/Pico/pico-sdk/src/rp2_common/pico_float/float_math.c.obj
 .text.__wrap_coshf
                0x00000000       0x3c CMakeFiles/nano_http_client.dir/C_/Users/yoyom/Desktop/Pico/pico-sdk/src/rp2_common/pico_float/float_math.c.obj
 .text.__wrap_tanhf
                0x00000000       0x4c CMakeFiles/nano_http_client.dir/C_/Users/yoyom/Desktop/Pico/pico-sdk/src/rp2_common/pico_float/float_math.c.obj
 .text.__wrap_asinhf
                0x00000000       0xb4 CMakeFiles/nano_http_client.dir/C_/Users/yoyom/Desktop/Pico/pico-sdk/src/rp2_common/pico_float/float_math.c.obj
 .text.__wrap_acoshf
                0x00000000       0x70 CMakeFiles/nano_http_client.dir/C_/Users/yoyom/Desktop/Pico/pico-sdk/src/rp2_common/pico_float/float_math.c.obj
 .text.__wrap_atanhf
                0x00000000       0x44 CMakeFiles/nano_http_client.dir/C_/Users/yoyom/Desktop/Pico/pico-sdk/src/rp2_common/pico_float/float_math.c.obj
 .text.__wrap_exp2f
                0x00000000       0x20 CMakeFiles/nano_http_client.dir/C_/Users/yoyom/Desktop/Pico/pico-sdk/src/rp2_common/pico_float/float_math.c.obj
 .text.__wrap_log2f
                0x00000000       0x14 CMakeFiles/nano_http_client.dir/C_/Users/yoyom/Desktop/Pico/pico-sdk/src/rp2_common/pico_float/float_math.c.obj
 .text.__wrap_exp10f
                0x00000000       0x20 CMakeFiles/nano_http_client.dir/C_/Users/yoyom/Desktop/Pico/pico-sdk/src/rp2_common/pico_float/float_math.c.obj
 .text.__wrap_log10f
                0x00000000       0x14 CMakeFiles/nano_http_client.dir/C_/Users/yoyom/Desktop/Pico/pico-sdk/src/rp2_common/pico_float/float_math.c.obj
 .text.__wrap_expm1f
                0x00000000       0x1c CMakeFiles/nano_http_client.dir/C_/Users/yoyom/Desktop/Pico/pico-sdk/src/rp2_common/pico_float/float_math.c.obj
 .text.__wrap_log1pf
                0x00000000       0x1c CMakeFiles/nano_http_client.dir/C_/Users/yoyom/Desktop/Pico/pico-sdk/src/rp2_common/pico_float/float_math.c.obj
 .text.__wrap_fmaf
                0x00000000       0x3c CMakeFiles/nano_http_client.dir/C_/Users/yoyom/Desktop/Pico/pico-sdk/src/rp2_common/pico_float/float_math.c.obj
 .text.__wrap_powintf
                0x00000000       0x88 CMakeFiles/nano_http_client.dir/C_/Users/yoyom/Desktop/Pico/pico-sdk/src/rp2_common/pico_float/float_math.c.obj
 .text.__wrap_powf
                0x00000000      0x1ac CMakeFiles/nano_http_client.dir/C_/Users/yoyom/Desktop/Pico/pico-sdk/src/rp2_common/pico_float/float_math.c.obj
 .text.__wrap_hypotf
                0x00000000      0x100 CMakeFiles/nano_http_client.dir/C_/Users/yoyom/Desktop/Pico/pico-sdk/src/rp2_common/pico_float/float_math.c.obj
 .text.__wrap_cbrtf
                0x00000000       0x9c CMakeFiles/nano_http_client.dir/C_/Users/yoyom/Desktop/Pico/pico-sdk/src/rp2_common/pico_float/float_math.c.obj
 .text.__wrap_fmodf
                0x00000000       0xbc CMakeFiles/nano_http_client.dir/C_/Users/yoyom/Desktop/Pico/pico-sdk/src/rp2_common/pico_float/float_math.c.obj
 .text.__wrap_remquof
                0x00000000      0x14c CMakeFiles/nano_http_client.dir/C_/Users/yoyom/Desktop/Pico/pico-sdk/src/rp2_common/pico_float/float_math.c.obj
 .text.__wrap_dremf
                0x00000000        0xc CMakeFiles/nano_http_client.dir/C_/Users/yoyom/Desktop/Pico/pico-sdk/src/rp2_common/pico_float/float_math.c.obj
 .text.__wrap_remainderf
                0x00000000        0xc CMakeFiles/nano_http_client.dir/C_/Users/yoyom/Desktop/Pico/pico-sdk/src/rp2_common/pico_float/float_math.c.obj
 .debug_info    0x00000000     0x3c91 CMakeFiles/nano_http_client.dir/C_/Users/yoyom/Desktop/Pico/pico-sdk/src/rp2_common/pico_float/float_math.c.obj
 .debug_abbrev  0x00000000      0x303 CMakeFiles/nano_http_client.dir/C_/Users/yoyom/Desktop/Pico/pico-sdk/src/rp2_common/pico_float/float_math.c.obj
 .debug_loc     0x00000000     0x4a29 CMakeFiles/nano_http_client.dir/C_/Users/yoyom/Desktop/Pico/pico-sdk/src/rp2_common/pico_float/float_math.c.obj
 .debug_aranges
                0x00000000      0x118 CMakeFiles/nano_http_client.dir/C_/Users/yoyom/Desktop/Pico/pico-sdk/src/rp2_common/pico_float/float_math.c.obj
 .debug_ranges  0x00000000      0xe90 CMakeFiles/nano_http_client.dir/C_/Users/yoyom/Desktop/Pico/pico-sdk/src/rp2_common/pico_float/float_math.c.obj
 .debug_line    0x00000000     0x2690 CMakeFiles/nano_http_client.dir/C_/Users/yoyom/Desktop/Pico/pico-sdk/src/rp2_common/pico_float/float_math.c.obj
 .debug_str     0x00000000      0x537 CMakeFiles/nano_http_client.dir/C_/Users/yoyom/Desktop/Pico/pico-sdk/src/rp2_common/pico_float/float_math.c.obj
 .comment       0x00000000       0x4a CMakeFiles/nano_http_client.dir/C_/Users/yoyom/Desktop/Pico/pico-sdk/src/rp2_common/pico_float/float_math.c.obj
 .debug_frame   0x00000000      0x394 CMakeFiles/nano_http_client.dir/C_/Users/yoyom/Desktop/Pico/pico-sdk/src/rp2_common/pico_float/float_math.c.obj
 .ARM.attributes
                0x00000000       0x2c CMakeFiles/nano_http_client.dir/C_/Users/yoyom/Desktop/Pico/pico-sdk/src/rp2_common/pico_float/float_math.c.obj
 .text          0x00000000        0x0 CMakeFiles/nano_http_client.dir/C_/Users/yoyom/Desktop/Pico/pico-sdk/src/rp2_common/pico_float/float_v1_rom_shim_rp2040.S.obj
 .data          0x00000000        0x0 CMakeFiles/nano_http_client.dir/C_/Users/yoyom/Desktop/Pico/pico-sdk/src/rp2_common/pico_float/float_v1_rom_shim_rp2040.S.obj
 .bss           0x00000000        0x0 CMakeFiles/nano_http_client.dir/C_/Users/yoyom/Desktop/Pico/pico-sdk/src/rp2_common/pico_float/float_v1_rom_shim_rp2040.S.obj
 .ARM.attributes
                0x00000000       0x1c CMakeFiles/nano_http_client.dir/C_/Users/yoyom/Desktop/Pico/pico-sdk/src/rp2_common/pico_float/float_v1_rom_shim_rp2040.S.obj
 .text          0x00000000        0x0 CMakeFiles/nano_http_client.dir/C_/Users/yoyom/Desktop/Pico/pico-sdk/src/rp2_common/pico_malloc/malloc.c.obj
 .data          0x00000000        0x0 CMakeFiles/nano_http_client.dir/C_/Users/yoyom/Desktop/Pico/pico-sdk/src/rp2_common/pico_malloc/malloc.c.obj
 .bss           0x00000000        0x0 CMakeFiles/nano_http_client.dir/C_/Users/yoyom/Desktop/Pico/pico-sdk/src/rp2_common/pico_malloc/malloc.c.obj
 .rodata.__wrap_malloc.str1.4
                0x00000000        0xe CMakeFiles/nano_http_client.dir/C_/Users/yoyom/Desktop/Pico/pico-sdk/src/rp2_common/pico_malloc/malloc.c.obj
 .text.__wrap_malloc
                0x00000000       0x24 CMakeFiles/nano_http_client.dir/C_/Users/yoyom/Desktop/Pico/pico-sdk/src/rp2_common/pico_malloc/malloc.c.obj
 .text.__wrap_calloc
                0x00000000       0x28 CMakeFiles/nano_http_client.dir/C_/Users/yoyom/Desktop/Pico/pico-sdk/src/rp2_common/pico_malloc/malloc.c.obj
 .text.__wrap_realloc
                0x00000000       0x24 CMakeFiles/nano_http_client.dir/C_/Users/yoyom/Desktop/Pico/pico-sdk/src/rp2_common/pico_malloc/malloc.c.obj
 .text.__wrap_free
                0x00000000        0x8 CMakeFiles/nano_http_client.dir/C_/Users/yoyom/Desktop/Pico/pico-sdk/src/rp2_common/pico_malloc/malloc.c.obj
 .debug_info    0x00000000      0x332 CMakeFiles/nano_http_client.dir/C_/Users/yoyom/Desktop/Pico/pico-sdk/src/rp2_common/pico_malloc/malloc.c.obj
 .debug_abbrev  0x00000000      0x146 CMakeFiles/nano_http_client.dir/C_/Users/yoyom/Desktop/Pico/pico-sdk/src/rp2_common/pico_malloc/malloc.c.obj
 .debug_loc     0x00000000      0x236 CMakeFiles/nano_http_client.dir/C_/Users/yoyom/Desktop/Pico/pico-sdk/src/rp2_common/pico_malloc/malloc.c.obj
 .debug_aranges
                0x00000000       0x38 CMakeFiles/nano_http_client.dir/C_/Users/yoyom/Desktop/Pico/pico-sdk/src/rp2_common/pico_malloc/malloc.c.obj
 .debug_ranges  0x00000000       0x70 CMakeFiles/nano_http_client.dir/C_/Users/yoyom/Desktop/Pico/pico-sdk/src/rp2_common/pico_malloc/malloc.c.obj
 .debug_line    0x00000000      0x26b CMakeFiles/nano_http_client.dir/C_/Users/yoyom/Desktop/Pico/pico-sdk/src/rp2_common/pico_malloc/malloc.c.obj
 .debug_str     0x00000000      0x241 CMakeFiles/nano_http_client.dir/C_/Users/yoyom/Desktop/Pico/pico-sdk/src/rp2_common/pico_malloc/malloc.c.obj
 .comment       0x00000000       0x4a CMakeFiles/nano_http_client.dir/C_/Users/yoyom/Desktop/Pico/pico-sdk/src/rp2_common/pico_malloc/malloc.c.obj
 .debug_frame   0x00000000       0x74 CMakeFiles/nano_http_client.dir/C_/Users/yoyom/Desktop/Pico/pico-sdk/src/rp2_common/pico_malloc/malloc.c.obj
 .ARM.attributes
                0x00000000       0x2c CMakeFiles/nano_http_client.dir/C_/Users/yoyom/Desktop/Pico/pico-sdk/src/rp2_common/pico_malloc/malloc.c.obj
 .data          0x00000000        0x0 CMakeFiles/nano_http_client.dir/C_/Users/yoyom/Desktop/Pico/pico-sdk/src/rp2_common/pico_mem_ops/mem_ops_aeabi.S.obj
 .bss           0x00000000        0x0 CMakeFiles/nano_http_client.dir/C_/Users/yoyom/Desktop/Pico/pico-sdk/src/rp2_common/pico_mem_ops/mem_ops_aeabi.S.obj
 .text.aeabi_memset_memcpy
                0x00000000       0x24 CMakeFiles/nano_http_client.dir/C_/Users/yoyom/Desktop/Pico/pico-sdk/src/rp2_common/pico_mem_ops/mem_ops_aeabi.S.obj
 .text          0x00000000        0x0 CMakeFiles/nano_http_client.dir/C_/Users/yoyom/Desktop/Pico/pico-sdk/src/rp2_common/pico_atomic/atomic.c.obj
 .data          0x00000000        0x0 CMakeFiles/nano_http_client.dir/C_/Users/yoyom/Desktop/Pico/pico-sdk/src/rp2_common/pico_atomic/atomic.c.obj
 .bss           0x00000000        0x0 CMakeFiles/nano_http_client.dir/C_/Users/yoyom/Desktop/Pico/pico-sdk/src/rp2_common/pico_atomic/atomic.c.obj
 .text.__atomic_test_and_set_c
                0x00000000       0x30 CMakeFiles/nano_http_client.dir/C_/Users/yoyom/Desktop/Pico/pico-sdk/src/rp2_common/pico_atomic/atomic.c.obj
 .text.__atomic_is_lock_free
                0x00000000        0x4 CMakeFiles/nano_http_client.dir/C_/Users/yoyom/Desktop/Pico/pico-sdk/src/rp2_common/pico_atomic/atomic.c.obj
 .text.__atomic_load
                0x00000000       0x30 CMakeFiles/nano_http_client.dir/C_/Users/yoyom/Desktop/Pico/pico-sdk/src/rp2_common/pico_atomic/atomic.c.obj
 .text.__atomic_store
                0x00000000       0x34 CMakeFiles/nano_http_client.dir/C_/Users/yoyom/Desktop/Pico/pico-sdk/src/rp2_common/pico_atomic/atomic.c.obj
 .text.__atomic_compare_exchange
                0x00000000       0x78 CMakeFiles/nano_http_client.dir/C_/Users/yoyom/Desktop/Pico/pico-sdk/src/rp2_common/pico_atomic/atomic.c.obj
 .text.__atomic_exchange
                0x00000000       0x48 CMakeFiles/nano_http_client.dir/C_/Users/yoyom/Desktop/Pico/pico-sdk/src/rp2_common/pico_atomic/atomic.c.obj
 .text.__atomic_load_1
                0x00000000       0x28 CMakeFiles/nano_http_client.dir/C_/Users/yoyom/Desktop/Pico/pico-sdk/src/rp2_common/pico_atomic/atomic.c.obj
 .text.__atomic_load_2
                0x00000000       0x28 CMakeFiles/nano_http_client.dir/C_/Users/yoyom/Desktop/Pico/pico-sdk/src/rp2_common/pico_atomic/atomic.c.obj
 .text.__atomic_load_4
                0x00000000       0x28 CMakeFiles/nano_http_client.dir/C_/Users/yoyom/Desktop/Pico/pico-sdk/src/rp2_common/pico_atomic/atomic.c.obj
 .text.__atomic_load_8
                0x00000000       0x28 CMakeFiles/nano_http_client.dir/C_/Users/yoyom/Desktop/Pico/pico-sdk/src/rp2_common/pico_atomic/atomic.c.obj
 .text.__atomic_store_1
                0x00000000       0x28 CMakeFiles/nano_http_client.dir/C_/Users/yoyom/Desktop/Pico/pico-sdk/src/rp2_common/pico_atomic/atomic.c.obj
 .text.__atomic_store_2
                0x00000000       0x28 CMakeFiles/nano_http_client.dir/C_/Users/yoyom/Desktop/Pico/pico-sdk/src/rp2_common/pico_atomic/atomic.c.obj
 .text.__atomic_store_4
                0x00000000       0x28 CMakeFiles/nano_http_client.dir/C_/Users/yoyom/Desktop/Pico/pico-sdk/src/rp2_common/pico_atomic/atomic.c.obj
 .text.__atomic_store_8
                0x00000000       0x30 CMakeFiles/nano_http_client.dir/C_/Users/yoyom/Desktop/Pico/pico-sdk/src/rp2_common/pico_atomic/atomic.c.obj
 .text.__atomic_compare_exchange_1
                0x00000000       0x48 CMakeFiles/nano_http_client.dir/C_/Users/yoyom/Desktop/Pico/pico-sdk/src/rp2_common/pico_atomic/atomic.c.obj
 .text.__atomic_compare_exchange_2
                0x00000000       0x48 CMakeFiles/nano_http_client.dir/C_/Users/yoyom/Desktop/Pico/pico-sdk/src/rp2_common/pico_atomic/atomic.c.obj
 .text.__atomic_compare_exchange_4
                0x00000000       0x48 CMakeFiles/nano_http_client.dir/C_/Users/yoyom/Desktop/Pico/pico-sdk/src/rp2_common/pico_atomic/atomic.c.obj
 .text.__atomic_compare_exchange_8
                0x00000000       0x5c CMakeFiles/nano_http_client.dir/C_/Users/yoyom/Desktop/Pico/pico-sdk/src/rp2_common/pico_atomic/atomic.c.obj
 .text.__atomic_exchange_1
                0x00000000       0x2c CMakeFiles/nano_http_client.dir/C_/Users/yoyom/Desktop/Pico/pico-sdk/src/rp2_common/pico_atomic/atomic.c.obj
 .text.__atomic_exchange_2
                0x00000000       0x2c CMakeFiles/nano_http_client.dir/C_/Users/yoyom/Desktop/Pico/pico-sdk/src/rp2_common/pico_atomic/atomic.c.obj
 .text.__atomic_exchange_4
                0x00000000       0x2c CMakeFiles/nano_http_client.dir/C_/Users/yoyom/Desktop/Pico/pico-sdk/src/rp2_common/pico_atomic/atomic.c.obj
 .text.__atomic_exchange_8
                0x00000000       0x38 CMakeFiles/nano_http_client.dir/C_/Users/yoyom/Desktop/Pico/pico-sdk/src/rp2_common/pico_atomic/atomic.c.obj
 .text.__atomic_fetch_add_1
                0x00000000       0x34 CMakeFiles/nano_http_client.dir/C_/Users/yoyom/Desktop/Pico/pico-sdk/src/rp2_common/pico_atomic/atomic.c.obj
 .text.__atomic_fetch_add_2
                0x00000000       0x34 CMakeFiles/nano_http_client.dir/C_/Users/yoyom/Desktop/Pico/pico-sdk/src/rp2_common/pico_atomic/atomic.c.obj
 .text.__atomic_fetch_add_4
                0x00000000       0x2c CMakeFiles/nano_http_client.dir/C_/Users/yoyom/Desktop/Pico/pico-sdk/src/rp2_common/pico_atomic/atomic.c.obj
 .text.__atomic_fetch_add_8
                0x00000000       0x3c CMakeFiles/nano_http_client.dir/C_/Users/yoyom/Desktop/Pico/pico-sdk/src/rp2_common/pico_atomic/atomic.c.obj
 .text.__atomic_fetch_sub_1
                0x00000000       0x34 CMakeFiles/nano_http_client.dir/C_/Users/yoyom/Desktop/Pico/pico-sdk/src/rp2_common/pico_atomic/atomic.c.obj
 .text.__atomic_fetch_sub_2
                0x00000000       0x34 CMakeFiles/nano_http_client.dir/C_/Users/yoyom/Desktop/Pico/pico-sdk/src/rp2_common/pico_atomic/atomic.c.obj
 .text.__atomic_fetch_sub_4
                0x00000000       0x2c CMakeFiles/nano_http_client.dir/C_/Users/yoyom/Desktop/Pico/pico-sdk/src/rp2_common/pico_atomic/atomic.c.obj
 .text.__atomic_fetch_sub_8
                0x00000000       0x44 CMakeFiles/nano_http_client.dir/C_/Users/yoyom/Desktop/Pico/pico-sdk/src/rp2_common/pico_atomic/atomic.c.obj
 .text.__atomic_fetch_and_1
                0x00000000       0x30 CMakeFiles/nano_http_client.dir/C_/Users/yoyom/Desktop/Pico/pico-sdk/src/rp2_common/pico_atomic/atomic.c.obj
 .text.__atomic_fetch_and_2
                0x00000000       0x30 CMakeFiles/nano_http_client.dir/C_/Users/yoyom/Desktop/Pico/pico-sdk/src/rp2_common/pico_atomic/atomic.c.obj
 .text.__atomic_fetch_and_4
                0x00000000       0x2c CMakeFiles/nano_http_client.dir/C_/Users/yoyom/Desktop/Pico/pico-sdk/src/rp2_common/pico_atomic/atomic.c.obj
 .text.__atomic_fetch_and_8
                0x00000000       0x3c CMakeFiles/nano_http_client.dir/C_/Users/yoyom/Desktop/Pico/pico-sdk/src/rp2_common/pico_atomic/atomic.c.obj
 .text.__atomic_fetch_or_1
                0x00000000       0x30 CMakeFiles/nano_http_client.dir/C_/Users/yoyom/Desktop/Pico/pico-sdk/src/rp2_common/pico_atomic/atomic.c.obj
 .text.__atomic_fetch_or_2
                0x00000000       0x30 CMakeFiles/nano_http_client.dir/C_/Users/yoyom/Desktop/Pico/pico-sdk/src/rp2_common/pico_atomic/atomic.c.obj
 .text.__atomic_fetch_or_4
                0x00000000       0x2c CMakeFiles/nano_http_client.dir/C_/Users/yoyom/Desktop/Pico/pico-sdk/src/rp2_common/pico_atomic/atomic.c.obj
 .text.__atomic_fetch_or_8
                0x00000000       0x3c CMakeFiles/nano_http_client.dir/C_/Users/yoyom/Desktop/Pico/pico-sdk/src/rp2_common/pico_atomic/atomic.c.obj
 .text.__atomic_fetch_xor_1
                0x00000000       0x30 CMakeFiles/nano_http_client.dir/C_/Users/yoyom/Desktop/Pico/pico-sdk/src/rp2_common/pico_atomic/atomic.c.obj
 .text.__atomic_fetch_xor_2
                0x00000000       0x30 CMakeFiles/nano_http_client.dir/C_/Users/yoyom/Desktop/Pico/pico-sdk/src/rp2_common/pico_atomic/atomic.c.obj
 .text.__atomic_fetch_xor_4
                0x00000000       0x2c CMakeFiles/nano_http_client.dir/C_/Users/yoyom/Desktop/Pico/pico-sdk/src/rp2_common/pico_atomic/atomic.c.obj
 .text.__atomic_fetch_xor_8
                0x00000000       0x3c CMakeFiles/nano_http_client.dir/C_/Users/yoyom/Desktop/Pico/pico-sdk/src/rp2_common/pico_atomic/atomic.c.obj
 .debug_info    0x00000000     0x5adc CMakeFiles/nano_http_client.dir/C_/Users/yoyom/Desktop/Pico/pico-sdk/src/rp2_common/pico_atomic/atomic.c.obj
 .debug_abbrev  0x00000000      0x2a0 CMakeFiles/nano_http_client.dir/C_/Users/yoyom/Desktop/Pico/pico-sdk/src/rp2_common/pico_atomic/atomic.c.obj
 .debug_loc     0x00000000     0x43fb CMakeFiles/nano_http_client.dir/C_/Users/yoyom/Desktop/Pico/pico-sdk/src/rp2_common/pico_atomic/atomic.c.obj
 .debug_aranges
                0x00000000      0x168 CMakeFiles/nano_http_client.dir/C_/Users/yoyom/Desktop/Pico/pico-sdk/src/rp2_common/pico_atomic/atomic.c.obj
 .debug_ranges  0x00000000     0x23a8 CMakeFiles/nano_http_client.dir/C_/Users/yoyom/Desktop/Pico/pico-sdk/src/rp2_common/pico_atomic/atomic.c.obj
 .debug_line    0x00000000     0x2f22 CMakeFiles/nano_http_client.dir/C_/Users/yoyom/Desktop/Pico/pico-sdk/src/rp2_common/pico_atomic/atomic.c.obj
 .debug_str     0x00000000      0x6ff CMakeFiles/nano_http_client.dir/C_/Users/yoyom/Desktop/Pico/pico-sdk/src/rp2_common/pico_atomic/atomic.c.obj
 .comment       0x00000000       0x4a CMakeFiles/nano_http_client.dir/C_/Users/yoyom/Desktop/Pico/pico-sdk/src/rp2_common/pico_atomic/atomic.c.obj
 .debug_frame   0x00000000      0x3dc CMakeFiles/nano_http_client.dir/C_/Users/yoyom/Desktop/Pico/pico-sdk/src/rp2_common/pico_atomic/atomic.c.obj
 .ARM.attributes
                0x00000000       0x2c CMakeFiles/nano_http_client.dir/C_/Users/yoyom/Desktop/Pico/pico-sdk/src/rp2_common/pico_atomic/atomic.c.obj
 .text          0x00000000        0x0 CMakeFiles/nano_http_client.dir/C_/Users/yoyom/Desktop/Pico/pico-sdk/src/rp2_common/pico_cxx_options/new_delete.cpp.obj
 .data          0x00000000        0x0 CMakeFiles/nano_http_client.dir/C_/Users/yoyom/Desktop/Pico/pico-sdk/src/rp2_common/pico_cxx_options/new_delete.cpp.obj
 .bss           0x00000000        0x0 CMakeFiles/nano_http_client.dir/C_/Users/yoyom/Desktop/Pico/pico-sdk/src/rp2_common/pico_cxx_options/new_delete.cpp.obj
 .text._Znwj    0x00000000        0x8 CMakeFiles/nano_http_client.dir/C_/Users/yoyom/Desktop/Pico/pico-sdk/src/rp2_common/pico_cxx_options/new_delete.cpp.obj
 .text._Znaj    0x00000000        0x8 CMakeFiles/nano_http_client.dir/C_/Users/yoyom/Desktop/Pico/pico-sdk/src/rp2_common/pico_cxx_options/new_delete.cpp.obj
 .text._ZdlPv   0x00000000        0x8 CMakeFiles/nano_http_client.dir/C_/Users/yoyom/Desktop/Pico/pico-sdk/src/rp2_common/pico_cxx_options/new_delete.cpp.obj
 .text._ZdaPv   0x00000000        0x8 CMakeFiles/nano_http_client.dir/C_/Users/yoyom/Desktop/Pico/pico-sdk/src/rp2_common/pico_cxx_options/new_delete.cpp.obj
 .text._ZdlPvj  0x00000000        0x8 CMakeFiles/nano_http_client.dir/C_/Users/yoyom/Desktop/Pico/pico-sdk/src/rp2_common/pico_cxx_options/new_delete.cpp.obj
 .text._ZdaPvj  0x00000000        0x8 CMakeFiles/nano_http_client.dir/C_/Users/yoyom/Desktop/Pico/pico-sdk/src/rp2_common/pico_cxx_options/new_delete.cpp.obj
 .debug_info    0x00000000      0x770 CMakeFiles/nano_http_client.dir/C_/Users/yoyom/Desktop/Pico/pico-sdk/src/rp2_common/pico_cxx_options/new_delete.cpp.obj
 .debug_abbrev  0x00000000      0x220 CMakeFiles/nano_http_client.dir/C_/Users/yoyom/Desktop/Pico/pico-sdk/src/rp2_common/pico_cxx_options/new_delete.cpp.obj
 .debug_loc     0x00000000       0x94 CMakeFiles/nano_http_client.dir/C_/Users/yoyom/Desktop/Pico/pico-sdk/src/rp2_common/pico_cxx_options/new_delete.cpp.obj
 .debug_aranges
                0x00000000       0x30 CMakeFiles/nano_http_client.dir/C_/Users/yoyom/Desktop/Pico/pico-sdk/src/rp2_common/pico_cxx_options/new_delete.cpp.obj
 .debug_ranges  0x00000000       0x20 CMakeFiles/nano_http_client.dir/C_/Users/yoyom/Desktop/Pico/pico-sdk/src/rp2_common/pico_cxx_options/new_delete.cpp.obj
 .debug_line    0x00000000      0x21a CMakeFiles/nano_http_client.dir/C_/Users/yoyom/Desktop/Pico/pico-sdk/src/rp2_common/pico_cxx_options/new_delete.cpp.obj
 .debug_str     0x00000000      0x3a0 CMakeFiles/nano_http_client.dir/C_/Users/yoyom/Desktop/Pico/pico-sdk/src/rp2_common/pico_cxx_options/new_delete.cpp.obj
 .comment       0x00000000       0x4a CMakeFiles/nano_http_client.dir/C_/Users/yoyom/Desktop/Pico/pico-sdk/src/rp2_common/pico_cxx_options/new_delete.cpp.obj
 .debug_frame   0x00000000       0xa0 CMakeFiles/nano_http_client.dir/C_/Users/yoyom/Desktop/Pico/pico-sdk/src/rp2_common/pico_cxx_options/new_delete.cpp.obj
 .ARM.attributes
                0x00000000       0x2c CMakeFiles/nano_http_client.dir/C_/Users/yoyom/Desktop/Pico/pico-sdk/src/rp2_common/pico_cxx_options/new_delete.cpp.obj
 .text          0x00000000        0x0 CMakeFiles/nano_http_client.dir/C_/Users/yoyom/Desktop/Pico/pico-sdk/src/rp2_common/pico_standard_binary_info/standard_binary_info.c.obj
 .data          0x00000000        0x0 CMakeFiles/nano_http_client.dir/C_/Users/yoyom/Desktop/Pico/pico-sdk/src/rp2_common/pico_standard_binary_info/standard_binary_info.c.obj
 .bss           0x00000000        0x0 CMakeFiles/nano_http_client.dir/C_/Users/yoyom/Desktop/Pico/pico-sdk/src/rp2_common/pico_standard_binary_info/standard_binary_info.c.obj
 .text          0x00000000        0x0 CMakeFiles/nano_http_client.dir/C_/Users/yoyom/Desktop/Pico/pico-sdk/src/rp2_common/pico_printf/printf.c.obj
 .data          0x00000000        0x0 CMakeFiles/nano_http_client.dir/C_/Users/yoyom/Desktop/Pico/pico-sdk/src/rp2_common/pico_printf/printf.c.obj
 .bss           0x00000000        0x0 CMakeFiles/nano_http_client.dir/C_/Users/yoyom/Desktop/Pico/pico-sdk/src/rp2_common/pico_printf/printf.c.obj
 .text.__wrap_sprintf
                0x00000000       0x28 CMakeFiles/nano_http_client.dir/C_/Users/yoyom/Desktop/Pico/pico-sdk/src/rp2_common/pico_printf/printf.c.obj
 .text.__wrap_vsnprintf
                0x00000000       0x1c CMakeFiles/nano_http_client.dir/C_/Users/yoyom/Desktop/Pico/pico-sdk/src/rp2_common/pico_printf/printf.c.obj
 .text.weak_raw_printf
                0x00000000       0x40 CMakeFiles/nano_http_client.dir/C_/Users/yoyom/Desktop/Pico/pico-sdk/src/rp2_common/pico_printf/printf.c.obj
 .text          0x00000000        0x0 CMakeFiles/nano_http_client.dir/C_/Users/yoyom/Desktop/Pico/pico-sdk/src/rp2_common/pico_crt0/crt0.S.obj
 .data          0x00000000        0x0 CMakeFiles/nano_http_client.dir/C_/Users/yoyom/Desktop/Pico/pico-sdk/src/rp2_common/pico_crt0/crt0.S.obj
 .bss           0x00000000        0x0 CMakeFiles/nano_http_client.dir/C_/Users/yoyom/Desktop/Pico/pico-sdk/src/rp2_common/pico_crt0/crt0.S.obj
 .text          0x00000000        0x0 CMakeFiles/nano_http_client.dir/C_/Users/yoyom/Desktop/Pico/pico-sdk/src/rp2_common/pico_clib_interface/newlib_interface.c.obj
 .data          0x00000000        0x0 CMakeFiles/nano_http_client.dir/C_/Users/yoyom/Desktop/Pico/pico-sdk/src/rp2_common/pico_clib_interface/newlib_interface.c.obj
 .bss           0x00000000        0x0 CMakeFiles/nano_http_client.dir/C_/Users/yoyom/Desktop/Pico/pico-sdk/src/rp2_common/pico_clib_interface/newlib_interface.c.obj
 .text._sbrk    0x00000000       0x34 CMakeFiles/nano_http_client.dir/C_/Users/yoyom/Desktop/Pico/pico-sdk/src/rp2_common/pico_clib_interface/newlib_interface.c.obj
 .text._gettimeofday
                0x00000000       0x40 CMakeFiles/nano_http_client.dir/C_/Users/yoyom/Desktop/Pico/pico-sdk/src/rp2_common/pico_clib_interface/newlib_interface.c.obj
 .text.settimeofday
                0x00000000       0x54 CMakeFiles/nano_http_client.dir/C_/Users/yoyom/Desktop/Pico/pico-sdk/src/rp2_common/pico_clib_interface/newlib_interface.c.obj
 .text._times   0x00000000       0x24 CMakeFiles/nano_http_client.dir/C_/Users/yoyom/Desktop/Pico/pico-sdk/src/rp2_common/pico_clib_interface/newlib_interface.c.obj
 .text._getpid  0x00000000        0x4 CMakeFiles/nano_http_client.dir/C_/Users/yoyom/Desktop/Pico/pico-sdk/src/rp2_common/pico_clib_interface/newlib_interface.c.obj
 .text._kill    0x00000000        0x8 CMakeFiles/nano_http_client.dir/C_/Users/yoyom/Desktop/Pico/pico-sdk/src/rp2_common/pico_clib_interface/newlib_interface.c.obj
 .text._read    0x00000000       0x24 CMakeFiles/nano_http_client.dir/C_/Users/yoyom/Desktop/Pico/pico-sdk/src/rp2_common/pico_clib_interface/newlib_interface.c.obj
 .text._write   0x00000000       0x24 CMakeFiles/nano_http_client.dir/C_/Users/yoyom/Desktop/Pico/pico-sdk/src/rp2_common/pico_clib_interface/newlib_interface.c.obj
 .text._open    0x00000000        0xc CMakeFiles/nano_http_client.dir/C_/Users/yoyom/Desktop/Pico/pico-sdk/src/rp2_common/pico_clib_interface/newlib_interface.c.obj
 .text._close   0x00000000        0x8 CMakeFiles/nano_http_client.dir/C_/Users/yoyom/Desktop/Pico/pico-sdk/src/rp2_common/pico_clib_interface/newlib_interface.c.obj
 .text._lseek   0x00000000        0x8 CMakeFiles/nano_http_client.dir/C_/Users/yoyom/Desktop/Pico/pico-sdk/src/rp2_common/pico_clib_interface/newlib_interface.c.obj
 .text._fstat   0x00000000        0x8 CMakeFiles/nano_http_client.dir/C_/Users/yoyom/Desktop/Pico/pico-sdk/src/rp2_common/pico_clib_interface/newlib_interface.c.obj
 .text._isatty  0x00000000        0xc CMakeFiles/nano_http_client.dir/C_/Users/yoyom/Desktop/Pico/pico-sdk/src/rp2_common/pico_clib_interface/newlib_interface.c.obj
 .rodata.__assert_func.str1.4
                0x00000000       0x43 CMakeFiles/nano_http_client.dir/C_/Users/yoyom/Desktop/Pico/pico-sdk/src/rp2_common/pico_clib_interface/newlib_interface.c.obj
 .text.__assert_func
                0x00000000       0x34 CMakeFiles/nano_http_client.dir/C_/Users/yoyom/Desktop/Pico/pico-sdk/src/rp2_common/pico_clib_interface/newlib_interface.c.obj
 .bss.epoch_time_us_since_boot
                0x00000000        0x8 CMakeFiles/nano_http_client.dir/C_/Users/yoyom/Desktop/Pico/pico-sdk/src/rp2_common/pico_clib_interface/newlib_interface.c.obj
 .bss.heap_end.0
                0x00000000        0x4 CMakeFiles/nano_http_client.dir/C_/Users/yoyom/Desktop/Pico/pico-sdk/src/rp2_common/pico_clib_interface/newlib_interface.c.obj
 .text          0x00000000        0x0 CMakeFiles/nano_http_client.dir/C_/Users/yoyom/Desktop/Pico/pico-sdk/src/rp2_common/pico_stdio/stdio.c.obj
 .data          0x00000000        0x0 CMakeFiles/nano_http_client.dir/C_/Users/yoyom/Desktop/Pico/pico-sdk/src/rp2_common/pico_stdio/stdio.c.obj
 .bss           0x00000000        0x0 CMakeFiles/nano_http_client.dir/C_/Users/yoyom/Desktop/Pico/pico-sdk/src/rp2_common/pico_stdio/stdio.c.obj
 .text.stdout_serialize_begin
                0x00000000       0x30 CMakeFiles/nano_http_client.dir/C_/Users/yoyom/Desktop/Pico/pico-sdk/src/rp2_common/pico_stdio/stdio.c.obj
 .text.stdout_serialize_end
                0x00000000       0x10 CMakeFiles/nano_http_client.dir/C_/Users/yoyom/Desktop/Pico/pico-sdk/src/rp2_common/pico_stdio/stdio.c.obj
 .text.stdio_get_until
                0x00000000       0x84 CMakeFiles/nano_http_client.dir/C_/Users/yoyom/Desktop/Pico/pico-sdk/src/rp2_common/pico_stdio/stdio.c.obj
 .text.stdio_putchar_raw
                0x00000000       0x98 CMakeFiles/nano_http_client.dir/C_/Users/yoyom/Desktop/Pico/pico-sdk/src/rp2_common/pico_stdio/stdio.c.obj
 .text.stdio_puts_raw
                0x00000000       0x3c CMakeFiles/nano_http_client.dir/C_/Users/yoyom/Desktop/Pico/pico-sdk/src/rp2_common/pico_stdio/stdio.c.obj
 .text.stdio_flush
                0x00000000       0x28 CMakeFiles/nano_http_client.dir/C_/Users/yoyom/Desktop/Pico/pico-sdk/src/rp2_common/pico_stdio/stdio.c.obj
 .text.stdio_deinit_all
                0x00000000       0x2c CMakeFiles/nano_http_client.dir/C_/Users/yoyom/Desktop/Pico/pico-sdk/src/rp2_common/pico_stdio/stdio.c.obj
 .text.stdio_getchar_timeout_us
                0x00000000       0x98 CMakeFiles/nano_http_client.dir/C_/Users/yoyom/Desktop/Pico/pico-sdk/src/rp2_common/pico_stdio/stdio.c.obj
 .text.stdio_filter_driver
                0x00000000        0xc CMakeFiles/nano_http_client.dir/C_/Users/yoyom/Desktop/Pico/pico-sdk/src/rp2_common/pico_stdio/stdio.c.obj
 .text.stdio_set_translate_crlf
                0x00000000       0x10 CMakeFiles/nano_http_client.dir/C_/Users/yoyom/Desktop/Pico/pico-sdk/src/rp2_common/pico_stdio/stdio.c.obj
 .text.stdio_set_chars_available_callback
                0x00000000       0x30 CMakeFiles/nano_http_client.dir/C_/Users/yoyom/Desktop/Pico/pico-sdk/src/rp2_common/pico_stdio/stdio.c.obj
 .text.__wrap_getchar
                0x00000000       0x74 CMakeFiles/nano_http_client.dir/C_/Users/yoyom/Desktop/Pico/pico-sdk/src/rp2_common/pico_stdio/stdio.c.obj
 .text          0x00000000        0x0 CMakeFiles/nano_http_client.dir/C_/Users/yoyom/Desktop/Pico/pico-sdk/src/rp2_common/pico_stdio_usb/reset_interface.c.obj
 .data          0x00000000        0x0 CMakeFiles/nano_http_client.dir/C_/Users/yoyom/Desktop/Pico/pico-sdk/src/rp2_common/pico_stdio_usb/reset_interface.c.obj
 .bss           0x00000000        0x0 CMakeFiles/nano_http_client.dir/C_/Users/yoyom/Desktop/Pico/pico-sdk/src/rp2_common/pico_stdio_usb/reset_interface.c.obj
 .text          0x00000000        0x0 CMakeFiles/nano_http_client.dir/C_/Users/yoyom/Desktop/Pico/pico-sdk/src/rp2_common/pico_stdio_usb/stdio_usb.c.obj
 .data          0x00000000        0x0 CMakeFiles/nano_http_client.dir/C_/Users/yoyom/Desktop/Pico/pico-sdk/src/rp2_common/pico_stdio_usb/stdio_usb.c.obj
 .bss           0x00000000        0x0 CMakeFiles/nano_http_client.dir/C_/Users/yoyom/Desktop/Pico/pico-sdk/src/rp2_common/pico_stdio_usb/stdio_usb.c.obj
 .text.stdio_usb_deinit
                0x00000000       0x7c CMakeFiles/nano_http_client.dir/C_/Users/yoyom/Desktop/Pico/pico-sdk/src/rp2_common/pico_stdio_usb/stdio_usb.c.obj
 .text.stdio_usb_connected
                0x00000000        0xc CMakeFiles/nano_http_client.dir/C_/Users/yoyom/Desktop/Pico/pico-sdk/src/rp2_common/pico_stdio_usb/stdio_usb.c.obj
 .text          0x00000000        0x0 CMakeFiles/nano_http_client.dir/C_/Users/yoyom/Desktop/Pico/pico-sdk/src/rp2_common/pico_stdio_usb/stdio_usb_descriptors.c.obj
 .data          0x00000000        0x0 CMakeFiles/nano_http_client.dir/C_/Users/yoyom/Desktop/Pico/pico-sdk/src/rp2_common/pico_stdio_usb/stdio_usb_descriptors.c.obj
 .bss           0x00000000        0x0 CMakeFiles/nano_http_client.dir/C_/Users/yoyom/Desktop/Pico/pico-sdk/src/rp2_common/pico_stdio_usb/stdio_usb_descriptors.c.obj
 .text          0x00000000        0x0 CMakeFiles/nano_http_client.dir/C_/Users/yoyom/Desktop/Pico/pico-sdk/src/rp2_common/pico_unique_id/unique_id.c.obj
 .data          0x00000000        0x0 CMakeFiles/nano_http_client.dir/C_/Users/yoyom/Desktop/Pico/pico-sdk/src/rp2_common/pico_unique_id/unique_id.c.obj
 .bss           0x00000000        0x0 CMakeFiles/nano_http_client.dir/C_/Users/yoyom/Desktop/Pico/pico-sdk/src/rp2_common/pico_unique_id/unique_id.c.obj
 .text.pico_get_unique_board_id
                0x00000000       0x10 CMakeFiles/nano_http_client.dir/C_/Users/yoyom/Desktop/Pico/pico-sdk/src/rp2_common/pico_unique_id/unique_id.c.obj
 .text          0x00000000        0x0 CMakeFiles/nano_http_client.dir/C_/Users/yoyom/Desktop/Pico/pico-sdk/src/rp2_common/hardware_flash/flash.c.obj
 .data          0x00000000        0x0 CMakeFiles/nano_http_client.dir/C_/Users/yoyom/Desktop/Pico/pico-sdk/src/rp2_common/hardware_flash/flash.c.obj
 .bss           0x00000000        0x0 CMakeFiles/nano_http_client.dir/C_/Users/yoyom/Desktop/Pico/pico-sdk/src/rp2_common/hardware_flash/flash.c.obj
 .time_critical.flash_range_erase
                0x00000000       0x80 CMakeFiles/nano_http_client.dir/C_/Users/yoyom/Desktop/Pico/pico-sdk/src/rp2_common/hardware_flash/flash.c.obj
 .time_critical.flash_flush_cache
                0x00000000       0x18 CMakeFiles/nano_http_client.dir/C_/Users/yoyom/Desktop/Pico/pico-sdk/src/rp2_common/hardware_flash/flash.c.obj
 .time_critical.flash_range_program
                0x00000000       0x80 CMakeFiles/nano_http_client.dir/C_/Users/yoyom/Desktop/Pico/pico-sdk/src/rp2_common/hardware_flash/flash.c.obj
 .text          0x00000000        0x0 CMakeFiles/nano_http_client.dir/C_/Users/yoyom/Desktop/Pico/pico-sdk/src/rp2_common/hardware_xip_cache/xip_cache.c.obj
 .data          0x00000000        0x0 CMakeFiles/nano_http_client.dir/C_/Users/yoyom/Desktop/Pico/pico-sdk/src/rp2_common/hardware_xip_cache/xip_cache.c.obj
 .bss           0x00000000        0x0 CMakeFiles/nano_http_client.dir/C_/Users/yoyom/Desktop/Pico/pico-sdk/src/rp2_common/hardware_xip_cache/xip_cache.c.obj
 .time_critical.xip_cache_invalidate_all
                0x00000000       0x14 CMakeFiles/nano_http_client.dir/C_/Users/yoyom/Desktop/Pico/pico-sdk/src/rp2_common/hardware_xip_cache/xip_cache.c.obj
 .time_critical.xip_cache_invalidate_range
                0x00000000       0x20 CMakeFiles/nano_http_client.dir/C_/Users/yoyom/Desktop/Pico/pico-sdk/src/rp2_common/hardware_xip_cache/xip_cache.c.obj
 .debug_info    0x00000000      0x267 CMakeFiles/nano_http_client.dir/C_/Users/yoyom/Desktop/Pico/pico-sdk/src/rp2_common/hardware_xip_cache/xip_cache.c.obj
 .debug_abbrev  0x00000000      0x113 CMakeFiles/nano_http_client.dir/C_/Users/yoyom/Desktop/Pico/pico-sdk/src/rp2_common/hardware_xip_cache/xip_cache.c.obj
 .debug_loc     0x00000000       0x90 CMakeFiles/nano_http_client.dir/C_/Users/yoyom/Desktop/Pico/pico-sdk/src/rp2_common/hardware_xip_cache/xip_cache.c.obj
 .debug_aranges
                0x00000000       0x28 CMakeFiles/nano_http_client.dir/C_/Users/yoyom/Desktop/Pico/pico-sdk/src/rp2_common/hardware_xip_cache/xip_cache.c.obj
 .debug_ranges  0x00000000       0x18 CMakeFiles/nano_http_client.dir/C_/Users/yoyom/Desktop/Pico/pico-sdk/src/rp2_common/hardware_xip_cache/xip_cache.c.obj
 .debug_line    0x00000000      0x36b CMakeFiles/nano_http_client.dir/C_/Users/yoyom/Desktop/Pico/pico-sdk/src/rp2_common/hardware_xip_cache/xip_cache.c.obj
 .debug_str     0x00000000      0x2ae CMakeFiles/nano_http_client.dir/C_/Users/yoyom/Desktop/Pico/pico-sdk/src/rp2_common/hardware_xip_cache/xip_cache.c.obj
 .comment       0x00000000       0x4a CMakeFiles/nano_http_client.dir/C_/Users/yoyom/Desktop/Pico/pico-sdk/src/rp2_common/hardware_xip_cache/xip_cache.c.obj
 .debug_frame   0x00000000       0x30 CMakeFiles/nano_http_client.dir/C_/Users/yoyom/Desktop/Pico/pico-sdk/src/rp2_common/hardware_xip_cache/xip_cache.c.obj
 .ARM.attributes
                0x00000000       0x2c CMakeFiles/nano_http_client.dir/C_/Users/yoyom/Desktop/Pico/pico-sdk/src/rp2_common/hardware_xip_cache/xip_cache.c.obj
 .text          0x00000000        0x0 CMakeFiles/nano_http_client.dir/C_/Users/yoyom/Desktop/Pico/pico-sdk/lib/tinyusb/src/portable/raspberrypi/rp2040/dcd_rp2040.c.obj
 .data          0x00000000        0x0 CMakeFiles/nano_http_client.dir/C_/Users/yoyom/Desktop/Pico/pico-sdk/lib/tinyusb/src/portable/raspberrypi/rp2040/dcd_rp2040.c.obj
 .bss           0x00000000        0x0 CMakeFiles/nano_http_client.dir/C_/Users/yoyom/Desktop/Pico/pico-sdk/lib/tinyusb/src/portable/raspberrypi/rp2040/dcd_rp2040.c.obj
 .text.dcd_deinit
                0x00000000       0x38 CMakeFiles/nano_http_client.dir/C_/Users/yoyom/Desktop/Pico/pico-sdk/lib/tinyusb/src/portable/raspberrypi/rp2040/dcd_rp2040.c.obj
 .text.dcd_int_disable
                0x00000000        0xc CMakeFiles/nano_http_client.dir/C_/Users/yoyom/Desktop/Pico/pico-sdk/lib/tinyusb/src/portable/raspberrypi/rp2040/dcd_rp2040.c.obj
 .text.dcd_remote_wakeup
                0x00000000       0x18 CMakeFiles/nano_http_client.dir/C_/Users/yoyom/Desktop/Pico/pico-sdk/lib/tinyusb/src/portable/raspberrypi/rp2040/dcd_rp2040.c.obj
 .text.dcd_disconnect
                0x00000000       0x10 CMakeFiles/nano_http_client.dir/C_/Users/yoyom/Desktop/Pico/pico-sdk/lib/tinyusb/src/portable/raspberrypi/rp2040/dcd_rp2040.c.obj
 .text.dcd_connect
                0x00000000       0x10 CMakeFiles/nano_http_client.dir/C_/Users/yoyom/Desktop/Pico/pico-sdk/lib/tinyusb/src/portable/raspberrypi/rp2040/dcd_rp2040.c.obj
 .text.dcd_edpt_close
                0x00000000      0x15c CMakeFiles/nano_http_client.dir/C_/Users/yoyom/Desktop/Pico/pico-sdk/lib/tinyusb/src/portable/raspberrypi/rp2040/dcd_rp2040.c.obj
 .time_critical.dcd_int_handler
                0x00000000        0x8 CMakeFiles/nano_http_client.dir/C_/Users/yoyom/Desktop/Pico/pico-sdk/lib/tinyusb/src/portable/raspberrypi/rp2040/dcd_rp2040.c.obj
 .text          0x00000000        0x0 CMakeFiles/nano_http_client.dir/C_/Users/yoyom/Desktop/Pico/pico-sdk/lib/tinyusb/src/portable/raspberrypi/rp2040/rp2040_usb.c.obj
 .data          0x00000000        0x0 CMakeFiles/nano_http_client.dir/C_/Users/yoyom/Desktop/Pico/pico-sdk/lib/tinyusb/src/portable/raspberrypi/rp2040/rp2040_usb.c.obj
 .bss           0x00000000        0x0 CMakeFiles/nano_http_client.dir/C_/Users/yoyom/Desktop/Pico/pico-sdk/lib/tinyusb/src/portable/raspberrypi/rp2040/rp2040_usb.c.obj
 .text          0x00000000        0x0 CMakeFiles/nano_http_client.dir/C_/Users/yoyom/Desktop/Pico/pico-sdk/lib/tinyusb/src/device/usbd.c.obj
 .data          0x00000000        0x0 CMakeFiles/nano_http_client.dir/C_/Users/yoyom/Desktop/Pico/pico-sdk/lib/tinyusb/src/device/usbd.c.obj
 .bss           0x00000000        0x0 CMakeFiles/nano_http_client.dir/C_/Users/yoyom/Desktop/Pico/pico-sdk/lib/tinyusb/src/device/usbd.c.obj
 .text.tud_vendor_control_xfer_cb
                0x00000000        0x4 CMakeFiles/nano_http_client.dir/C_/Users/yoyom/Desktop/Pico/pico-sdk/lib/tinyusb/src/device/usbd.c.obj
 .text.tud_descriptor_bos_cb
                0x00000000        0x4 CMakeFiles/nano_http_client.dir/C_/Users/yoyom/Desktop/Pico/pico-sdk/lib/tinyusb/src/device/usbd.c.obj
 .text.dcd_deinit
                0x00000000        0x4 CMakeFiles/nano_http_client.dir/C_/Users/yoyom/Desktop/Pico/pico-sdk/lib/tinyusb/src/device/usbd.c.obj
 .text.dcd_connect
                0x00000000        0x4 CMakeFiles/nano_http_client.dir/C_/Users/yoyom/Desktop/Pico/pico-sdk/lib/tinyusb/src/device/usbd.c.obj
 .text.dcd_disconnect
                0x00000000        0x4 CMakeFiles/nano_http_client.dir/C_/Users/yoyom/Desktop/Pico/pico-sdk/lib/tinyusb/src/device/usbd.c.obj
 .text.tud_speed_get
                0x00000000        0xc CMakeFiles/nano_http_client.dir/C_/Users/yoyom/Desktop/Pico/pico-sdk/lib/tinyusb/src/device/usbd.c.obj
 .text.tud_connected
                0x00000000       0x10 CMakeFiles/nano_http_client.dir/C_/Users/yoyom/Desktop/Pico/pico-sdk/lib/tinyusb/src/device/usbd.c.obj
 .text.tud_remote_wakeup
                0x00000000       0x30 CMakeFiles/nano_http_client.dir/C_/Users/yoyom/Desktop/Pico/pico-sdk/lib/tinyusb/src/device/usbd.c.obj
 .text.tud_disconnect
                0x00000000       0x14 CMakeFiles/nano_http_client.dir/C_/Users/yoyom/Desktop/Pico/pico-sdk/lib/tinyusb/src/device/usbd.c.obj
 .text.tud_connect
                0x00000000       0x14 CMakeFiles/nano_http_client.dir/C_/Users/yoyom/Desktop/Pico/pico-sdk/lib/tinyusb/src/device/usbd.c.obj
 .text.tud_sof_cb_enable
                0x00000000       0x48 CMakeFiles/nano_http_client.dir/C_/Users/yoyom/Desktop/Pico/pico-sdk/lib/tinyusb/src/device/usbd.c.obj
 .text.tud_inited
                0x00000000       0x14 CMakeFiles/nano_http_client.dir/C_/Users/yoyom/Desktop/Pico/pico-sdk/lib/tinyusb/src/device/usbd.c.obj
 .text.tud_deinit
                0x00000000       0xa0 CMakeFiles/nano_http_client.dir/C_/Users/yoyom/Desktop/Pico/pico-sdk/lib/tinyusb/src/device/usbd.c.obj
 .text.tud_task_event_ready
                0x00000000       0x28 CMakeFiles/nano_http_client.dir/C_/Users/yoyom/Desktop/Pico/pico-sdk/lib/tinyusb/src/device/usbd.c.obj
 .text.usbd_int_set
                0x00000000       0x1c CMakeFiles/nano_http_client.dir/C_/Users/yoyom/Desktop/Pico/pico-sdk/lib/tinyusb/src/device/usbd.c.obj
 .text.usbd_defer_func
                0x00000000       0x58 CMakeFiles/nano_http_client.dir/C_/Users/yoyom/Desktop/Pico/pico-sdk/lib/tinyusb/src/device/usbd.c.obj
 .text.usbd_edpt_xfer_fifo
                0x00000000       0x4c CMakeFiles/nano_http_client.dir/C_/Users/yoyom/Desktop/Pico/pico-sdk/lib/tinyusb/src/device/usbd.c.obj
 .text.usbd_edpt_busy
                0x00000000       0x1c CMakeFiles/nano_http_client.dir/C_/Users/yoyom/Desktop/Pico/pico-sdk/lib/tinyusb/src/device/usbd.c.obj
 .text.usbd_edpt_stall
                0x00000000       0x38 CMakeFiles/nano_http_client.dir/C_/Users/yoyom/Desktop/Pico/pico-sdk/lib/tinyusb/src/device/usbd.c.obj
 .text.usbd_edpt_clear_stall
                0x00000000       0x38 CMakeFiles/nano_http_client.dir/C_/Users/yoyom/Desktop/Pico/pico-sdk/lib/tinyusb/src/device/usbd.c.obj
 .text.usbd_edpt_stalled
                0x00000000       0x1c CMakeFiles/nano_http_client.dir/C_/Users/yoyom/Desktop/Pico/pico-sdk/lib/tinyusb/src/device/usbd.c.obj
 .text.usbd_edpt_close
                0x00000000       0x48 CMakeFiles/nano_http_client.dir/C_/Users/yoyom/Desktop/Pico/pico-sdk/lib/tinyusb/src/device/usbd.c.obj
 .text.usbd_sof_enable
                0x00000000       0x4c CMakeFiles/nano_http_client.dir/C_/Users/yoyom/Desktop/Pico/pico-sdk/lib/tinyusb/src/device/usbd.c.obj
 .text.usbd_edpt_iso_alloc
                0x00000000       0x28 CMakeFiles/nano_http_client.dir/C_/Users/yoyom/Desktop/Pico/pico-sdk/lib/tinyusb/src/device/usbd.c.obj
 .text.usbd_edpt_iso_activate
                0x00000000       0x64 CMakeFiles/nano_http_client.dir/C_/Users/yoyom/Desktop/Pico/pico-sdk/lib/tinyusb/src/device/usbd.c.obj
 .text          0x00000000        0x0 CMakeFiles/nano_http_client.dir/C_/Users/yoyom/Desktop/Pico/pico-sdk/lib/tinyusb/src/device/usbd_control.c.obj
 .data          0x00000000        0x0 CMakeFiles/nano_http_client.dir/C_/Users/yoyom/Desktop/Pico/pico-sdk/lib/tinyusb/src/device/usbd_control.c.obj
 .bss           0x00000000        0x0 CMakeFiles/nano_http_client.dir/C_/Users/yoyom/Desktop/Pico/pico-sdk/lib/tinyusb/src/device/usbd_control.c.obj
 .text.dcd_edpt0_status_complete
                0x00000000        0x4 CMakeFiles/nano_http_client.dir/C_/Users/yoyom/Desktop/Pico/pico-sdk/lib/tinyusb/src/device/usbd_control.c.obj
 .text          0x00000000        0x0 CMakeFiles/nano_http_client.dir/C_/Users/yoyom/Desktop/Pico/pico-sdk/lib/tinyusb/src/class/audio/audio_device.c.obj
 .data          0x00000000        0x0 CMakeFiles/nano_http_client.dir/C_/Users/yoyom/Desktop/Pico/pico-sdk/lib/tinyusb/src/class/audio/audio_device.c.obj
 .bss           0x00000000        0x0 CMakeFiles/nano_http_client.dir/C_/Users/yoyom/Desktop/Pico/pico-sdk/lib/tinyusb/src/class/audio/audio_device.c.obj
 .debug_info    0x00000000       0x6b CMakeFiles/nano_http_client.dir/C_/Users/yoyom/Desktop/Pico/pico-sdk/lib/tinyusb/src/class/audio/audio_device.c.obj
 .debug_abbrev  0x00000000       0x26 CMakeFiles/nano_http_client.dir/C_/Users/yoyom/Desktop/Pico/pico-sdk/lib/tinyusb/src/class/audio/audio_device.c.obj
 .debug_aranges
                0x00000000       0x18 CMakeFiles/nano_http_client.dir/C_/Users/yoyom/Desktop/Pico/pico-sdk/lib/tinyusb/src/class/audio/audio_device.c.obj
 .debug_line    0x00000000       0x1d CMakeFiles/nano_http_client.dir/C_/Users/yoyom/Desktop/Pico/pico-sdk/lib/tinyusb/src/class/audio/audio_device.c.obj
 .debug_str     0x00000000      0x19f CMakeFiles/nano_http_client.dir/C_/Users/yoyom/Desktop/Pico/pico-sdk/lib/tinyusb/src/class/audio/audio_device.c.obj
 .comment       0x00000000       0x4a CMakeFiles/nano_http_client.dir/C_/Users/yoyom/Desktop/Pico/pico-sdk/lib/tinyusb/src/class/audio/audio_device.c.obj
 .ARM.attributes
                0x00000000       0x2c CMakeFiles/nano_http_client.dir/C_/Users/yoyom/Desktop/Pico/pico-sdk/lib/tinyusb/src/class/audio/audio_device.c.obj
 .text          0x00000000        0x0 CMakeFiles/nano_http_client.dir/C_/Users/yoyom/Desktop/Pico/pico-sdk/lib/tinyusb/src/class/cdc/cdc_device.c.obj
 .data          0x00000000        0x0 CMakeFiles/nano_http_client.dir/C_/Users/yoyom/Desktop/Pico/pico-sdk/lib/tinyusb/src/class/cdc/cdc_device.c.obj
 .bss           0x00000000        0x0 CMakeFiles/nano_http_client.dir/C_/Users/yoyom/Desktop/Pico/pico-sdk/lib/tinyusb/src/class/cdc/cdc_device.c.obj
 .text.tud_cdc_configure_fifo
                0x00000000       0x18 CMakeFiles/nano_http_client.dir/C_/Users/yoyom/Desktop/Pico/pico-sdk/lib/tinyusb/src/class/cdc/cdc_device.c.obj
 .text.tud_cdc_n_ready
                0x00000000       0x38 CMakeFiles/nano_http_client.dir/C_/Users/yoyom/Desktop/Pico/pico-sdk/lib/tinyusb/src/class/cdc/cdc_device.c.obj
 .text.tud_cdc_n_get_line_state
                0x00000000       0x14 CMakeFiles/nano_http_client.dir/C_/Users/yoyom/Desktop/Pico/pico-sdk/lib/tinyusb/src/class/cdc/cdc_device.c.obj
 .text.tud_cdc_n_get_line_coding
                0x00000000       0x20 CMakeFiles/nano_http_client.dir/C_/Users/yoyom/Desktop/Pico/pico-sdk/lib/tinyusb/src/class/cdc/cdc_device.c.obj
 .text.tud_cdc_n_set_wanted_char
                0x00000000       0x14 CMakeFiles/nano_http_client.dir/C_/Users/yoyom/Desktop/Pico/pico-sdk/lib/tinyusb/src/class/cdc/cdc_device.c.obj
 .text.tud_cdc_n_peek
                0x00000000       0x18 CMakeFiles/nano_http_client.dir/C_/Users/yoyom/Desktop/Pico/pico-sdk/lib/tinyusb/src/class/cdc/cdc_device.c.obj
 .text.tud_cdc_n_read_flush
                0x00000000       0x74 CMakeFiles/nano_http_client.dir/C_/Users/yoyom/Desktop/Pico/pico-sdk/lib/tinyusb/src/class/cdc/cdc_device.c.obj
 .text.tud_cdc_n_write_clear
                0x00000000       0x18 CMakeFiles/nano_http_client.dir/C_/Users/yoyom/Desktop/Pico/pico-sdk/lib/tinyusb/src/class/cdc/cdc_device.c.obj
 .text          0x00000000        0x0 CMakeFiles/nano_http_client.dir/C_/Users/yoyom/Desktop/Pico/pico-sdk/lib/tinyusb/src/class/dfu/dfu_device.c.obj
 .data          0x00000000        0x0 CMakeFiles/nano_http_client.dir/C_/Users/yoyom/Desktop/Pico/pico-sdk/lib/tinyusb/src/class/dfu/dfu_device.c.obj
 .bss           0x00000000        0x0 CMakeFiles/nano_http_client.dir/C_/Users/yoyom/Desktop/Pico/pico-sdk/lib/tinyusb/src/class/dfu/dfu_device.c.obj
 .debug_info    0x00000000       0x6b CMakeFiles/nano_http_client.dir/C_/Users/yoyom/Desktop/Pico/pico-sdk/lib/tinyusb/src/class/dfu/dfu_device.c.obj
 .debug_abbrev  0x00000000       0x26 CMakeFiles/nano_http_client.dir/C_/Users/yoyom/Desktop/Pico/pico-sdk/lib/tinyusb/src/class/dfu/dfu_device.c.obj
 .debug_aranges
                0x00000000       0x18 CMakeFiles/nano_http_client.dir/C_/Users/yoyom/Desktop/Pico/pico-sdk/lib/tinyusb/src/class/dfu/dfu_device.c.obj
 .debug_line    0x00000000       0x1d CMakeFiles/nano_http_client.dir/C_/Users/yoyom/Desktop/Pico/pico-sdk/lib/tinyusb/src/class/dfu/dfu_device.c.obj
 .debug_str     0x00000000      0x19b CMakeFiles/nano_http_client.dir/C_/Users/yoyom/Desktop/Pico/pico-sdk/lib/tinyusb/src/class/dfu/dfu_device.c.obj
 .comment       0x00000000       0x4a CMakeFiles/nano_http_client.dir/C_/Users/yoyom/Desktop/Pico/pico-sdk/lib/tinyusb/src/class/dfu/dfu_device.c.obj
 .ARM.attributes
                0x00000000       0x2c CMakeFiles/nano_http_client.dir/C_/Users/yoyom/Desktop/Pico/pico-sdk/lib/tinyusb/src/class/dfu/dfu_device.c.obj
 .text          0x00000000        0x0 CMakeFiles/nano_http_client.dir/C_/Users/yoyom/Desktop/Pico/pico-sdk/lib/tinyusb/src/class/dfu/dfu_rt_device.c.obj
 .data          0x00000000        0x0 CMakeFiles/nano_http_client.dir/C_/Users/yoyom/Desktop/Pico/pico-sdk/lib/tinyusb/src/class/dfu/dfu_rt_device.c.obj
 .bss           0x00000000        0x0 CMakeFiles/nano_http_client.dir/C_/Users/yoyom/Desktop/Pico/pico-sdk/lib/tinyusb/src/class/dfu/dfu_rt_device.c.obj
 .debug_info    0x00000000       0x6b CMakeFiles/nano_http_client.dir/C_/Users/yoyom/Desktop/Pico/pico-sdk/lib/tinyusb/src/class/dfu/dfu_rt_device.c.obj
 .debug_abbrev  0x00000000       0x26 CMakeFiles/nano_http_client.dir/C_/Users/yoyom/Desktop/Pico/pico-sdk/lib/tinyusb/src/class/dfu/dfu_rt_device.c.obj
 .debug_aranges
                0x00000000       0x18 CMakeFiles/nano_http_client.dir/C_/Users/yoyom/Desktop/Pico/pico-sdk/lib/tinyusb/src/class/dfu/dfu_rt_device.c.obj
 .debug_line    0x00000000       0x1d CMakeFiles/nano_http_client.dir/C_/Users/yoyom/Desktop/Pico/pico-sdk/lib/tinyusb/src/class/dfu/dfu_rt_device.c.obj
 .debug_str     0x00000000      0x19e CMakeFiles/nano_http_client.dir/C_/Users/yoyom/Desktop/Pico/pico-sdk/lib/tinyusb/src/class/dfu/dfu_rt_device.c.obj
 .comment       0x00000000       0x4a CMakeFiles/nano_http_client.dir/C_/Users/yoyom/Desktop/Pico/pico-sdk/lib/tinyusb/src/class/dfu/dfu_rt_device.c.obj
 .ARM.attributes
                0x00000000       0x2c CMakeFiles/nano_http_client.dir/C_/Users/yoyom/Desktop/Pico/pico-sdk/lib/tinyusb/src/class/dfu/dfu_rt_device.c.obj
 .text          0x00000000        0x0 CMakeFiles/nano_http_client.dir/C_/Users/yoyom/Desktop/Pico/pico-sdk/lib/tinyusb/src/class/hid/hid_device.c.obj
 .data          0x00000000        0x0 CMakeFiles/nano_http_client.dir/C_/Users/yoyom/Desktop/Pico/pico-sdk/lib/tinyusb/src/class/hid/hid_device.c.obj
 .bss           0x00000000        0x0 CMakeFiles/nano_http_client.dir/C_/Users/yoyom/Desktop/Pico/pico-sdk/lib/tinyusb/src/class/hid/hid_device.c.obj
 .debug_info    0x00000000       0x6b CMakeFiles/nano_http_client.dir/C_/Users/yoyom/Desktop/Pico/pico-sdk/lib/tinyusb/src/class/hid/hid_device.c.obj
 .debug_abbrev  0x00000000       0x26 CMakeFiles/nano_http_client.dir/C_/Users/yoyom/Desktop/Pico/pico-sdk/lib/tinyusb/src/class/hid/hid_device.c.obj
 .debug_aranges
                0x00000000       0x18 CMakeFiles/nano_http_client.dir/C_/Users/yoyom/Desktop/Pico/pico-sdk/lib/tinyusb/src/class/hid/hid_device.c.obj
 .debug_line    0x00000000       0x1d CMakeFiles/nano_http_client.dir/C_/Users/yoyom/Desktop/Pico/pico-sdk/lib/tinyusb/src/class/hid/hid_device.c.obj
 .debug_str     0x00000000      0x19b CMakeFiles/nano_http_client.dir/C_/Users/yoyom/Desktop/Pico/pico-sdk/lib/tinyusb/src/class/hid/hid_device.c.obj
 .comment       0x00000000       0x4a CMakeFiles/nano_http_client.dir/C_/Users/yoyom/Desktop/Pico/pico-sdk/lib/tinyusb/src/class/hid/hid_device.c.obj
 .ARM.attributes
                0x00000000       0x2c CMakeFiles/nano_http_client.dir/C_/Users/yoyom/Desktop/Pico/pico-sdk/lib/tinyusb/src/class/hid/hid_device.c.obj
 .text          0x00000000        0x0 CMakeFiles/nano_http_client.dir/C_/Users/yoyom/Desktop/Pico/pico-sdk/lib/tinyusb/src/class/midi/midi_device.c.obj
 .data          0x00000000        0x0 CMakeFiles/nano_http_client.dir/C_/Users/yoyom/Desktop/Pico/pico-sdk/lib/tinyusb/src/class/midi/midi_device.c.obj
 .bss           0x00000000        0x0 CMakeFiles/nano_http_client.dir/C_/Users/yoyom/Desktop/Pico/pico-sdk/lib/tinyusb/src/class/midi/midi_device.c.obj
 .debug_info    0x00000000       0x6b CMakeFiles/nano_http_client.dir/C_/Users/yoyom/Desktop/Pico/pico-sdk/lib/tinyusb/src/class/midi/midi_device.c.obj
 .debug_abbrev  0x00000000       0x26 CMakeFiles/nano_http_client.dir/C_/Users/yoyom/Desktop/Pico/pico-sdk/lib/tinyusb/src/class/midi/midi_device.c.obj
 .debug_aranges
                0x00000000       0x18 CMakeFiles/nano_http_client.dir/C_/Users/yoyom/Desktop/Pico/pico-sdk/lib/tinyusb/src/class/midi/midi_device.c.obj
 .debug_line    0x00000000       0x1d CMakeFiles/nano_http_client.dir/C_/Users/yoyom/Desktop/Pico/pico-sdk/lib/tinyusb/src/class/midi/midi_device.c.obj
 .debug_str     0x00000000      0x19d CMakeFiles/nano_http_client.dir/C_/Users/yoyom/Desktop/Pico/pico-sdk/lib/tinyusb/src/class/midi/midi_device.c.obj
 .comment       0x00000000       0x4a CMakeFiles/nano_http_client.dir/C_/Users/yoyom/Desktop/Pico/pico-sdk/lib/tinyusb/src/class/midi/midi_device.c.obj
 .ARM.attributes
                0x00000000       0x2c CMakeFiles/nano_http_client.dir/C_/Users/yoyom/Desktop/Pico/pico-sdk/lib/tinyusb/src/class/midi/midi_device.c.obj
 .text          0x00000000        0x0 CMakeFiles/nano_http_client.dir/C_/Users/yoyom/Desktop/Pico/pico-sdk/lib/tinyusb/src/class/msc/msc_device.c.obj
 .data          0x00000000        0x0 CMakeFiles/nano_http_client.dir/C_/Users/yoyom/Desktop/Pico/pico-sdk/lib/tinyusb/src/class/msc/msc_device.c.obj
 .bss           0x00000000        0x0 CMakeFiles/nano_http_client.dir/C_/Users/yoyom/Desktop/Pico/pico-sdk/lib/tinyusb/src/class/msc/msc_device.c.obj
 .debug_info    0x00000000       0x6b CMakeFiles/nano_http_client.dir/C_/Users/yoyom/Desktop/Pico/pico-sdk/lib/tinyusb/src/class/msc/msc_device.c.obj
 .debug_abbrev  0x00000000       0x26 CMakeFiles/nano_http_client.dir/C_/Users/yoyom/Desktop/Pico/pico-sdk/lib/tinyusb/src/class/msc/msc_device.c.obj
 .debug_aranges
                0x00000000       0x18 CMakeFiles/nano_http_client.dir/C_/Users/yoyom/Desktop/Pico/pico-sdk/lib/tinyusb/src/class/msc/msc_device.c.obj
 .debug_line    0x00000000       0x1d CMakeFiles/nano_http_client.dir/C_/Users/yoyom/Desktop/Pico/pico-sdk/lib/tinyusb/src/class/msc/msc_device.c.obj
 .debug_str     0x00000000      0x19b CMakeFiles/nano_http_client.dir/C_/Users/yoyom/Desktop/Pico/pico-sdk/lib/tinyusb/src/class/msc/msc_device.c.obj
 .comment       0x00000000       0x4a CMakeFiles/nano_http_client.dir/C_/Users/yoyom/Desktop/Pico/pico-sdk/lib/tinyusb/src/class/msc/msc_device.c.obj
 .ARM.attributes
                0x00000000       0x2c CMakeFiles/nano_http_client.dir/C_/Users/yoyom/Desktop/Pico/pico-sdk/lib/tinyusb/src/class/msc/msc_device.c.obj
 .text          0x00000000        0x0 CMakeFiles/nano_http_client.dir/C_/Users/yoyom/Desktop/Pico/pico-sdk/lib/tinyusb/src/class/net/ecm_rndis_device.c.obj
 .data          0x00000000        0x0 CMakeFiles/nano_http_client.dir/C_/Users/yoyom/Desktop/Pico/pico-sdk/lib/tinyusb/src/class/net/ecm_rndis_device.c.obj
 .bss           0x00000000        0x0 CMakeFiles/nano_http_client.dir/C_/Users/yoyom/Desktop/Pico/pico-sdk/lib/tinyusb/src/class/net/ecm_rndis_device.c.obj
 .debug_info    0x00000000       0x6b CMakeFiles/nano_http_client.dir/C_/Users/yoyom/Desktop/Pico/pico-sdk/lib/tinyusb/src/class/net/ecm_rndis_device.c.obj
 .debug_abbrev  0x00000000       0x26 CMakeFiles/nano_http_client.dir/C_/Users/yoyom/Desktop/Pico/pico-sdk/lib/tinyusb/src/class/net/ecm_rndis_device.c.obj
 .debug_aranges
                0x00000000       0x18 CMakeFiles/nano_http_client.dir/C_/Users/yoyom/Desktop/Pico/pico-sdk/lib/tinyusb/src/class/net/ecm_rndis_device.c.obj
 .debug_line    0x00000000       0x1d CMakeFiles/nano_http_client.dir/C_/Users/yoyom/Desktop/Pico/pico-sdk/lib/tinyusb/src/class/net/ecm_rndis_device.c.obj
 .debug_str     0x00000000      0x1a1 CMakeFiles/nano_http_client.dir/C_/Users/yoyom/Desktop/Pico/pico-sdk/lib/tinyusb/src/class/net/ecm_rndis_device.c.obj
 .comment       0x00000000       0x4a CMakeFiles/nano_http_client.dir/C_/Users/yoyom/Desktop/Pico/pico-sdk/lib/tinyusb/src/class/net/ecm_rndis_device.c.obj
 .ARM.attributes
                0x00000000       0x2c CMakeFiles/nano_http_client.dir/C_/Users/yoyom/Desktop/Pico/pico-sdk/lib/tinyusb/src/class/net/ecm_rndis_device.c.obj
 .text          0x00000000        0x0 CMakeFiles/nano_http_client.dir/C_/Users/yoyom/Desktop/Pico/pico-sdk/lib/tinyusb/src/class/net/ncm_device.c.obj
 .data          0x00000000        0x0 CMakeFiles/nano_http_client.dir/C_/Users/yoyom/Desktop/Pico/pico-sdk/lib/tinyusb/src/class/net/ncm_device.c.obj
 .bss           0x00000000        0x0 CMakeFiles/nano_http_client.dir/C_/Users/yoyom/Desktop/Pico/pico-sdk/lib/tinyusb/src/class/net/ncm_device.c.obj
 .debug_info    0x00000000       0x6b CMakeFiles/nano_http_client.dir/C_/Users/yoyom/Desktop/Pico/pico-sdk/lib/tinyusb/src/class/net/ncm_device.c.obj
 .debug_abbrev  0x00000000       0x26 CMakeFiles/nano_http_client.dir/C_/Users/yoyom/Desktop/Pico/pico-sdk/lib/tinyusb/src/class/net/ncm_device.c.obj
 .debug_aranges
                0x00000000       0x18 CMakeFiles/nano_http_client.dir/C_/Users/yoyom/Desktop/Pico/pico-sdk/lib/tinyusb/src/class/net/ncm_device.c.obj
 .debug_line    0x00000000       0x1d CMakeFiles/nano_http_client.dir/C_/Users/yoyom/Desktop/Pico/pico-sdk/lib/tinyusb/src/class/net/ncm_device.c.obj
 .debug_str     0x00000000      0x19b CMakeFiles/nano_http_client.dir/C_/Users/yoyom/Desktop/Pico/pico-sdk/lib/tinyusb/src/class/net/ncm_device.c.obj
 .comment       0x00000000       0x4a CMakeFiles/nano_http_client.dir/C_/Users/yoyom/Desktop/Pico/pico-sdk/lib/tinyusb/src/class/net/ncm_device.c.obj
 .ARM.attributes
                0x00000000       0x2c CMakeFiles/nano_http_client.dir/C_/Users/yoyom/Desktop/Pico/pico-sdk/lib/tinyusb/src/class/net/ncm_device.c.obj
 .text          0x00000000        0x0 CMakeFiles/nano_http_client.dir/C_/Users/yoyom/Desktop/Pico/pico-sdk/lib/tinyusb/src/class/usbtmc/usbtmc_device.c.obj
 .data          0x00000000        0x0 CMakeFiles/nano_http_client.dir/C_/Users/yoyom/Desktop/Pico/pico-sdk/lib/tinyusb/src/class/usbtmc/usbtmc_device.c.obj
 .bss           0x00000000        0x0 CMakeFiles/nano_http_client.dir/C_/Users/yoyom/Desktop/Pico/pico-sdk/lib/tinyusb/src/class/usbtmc/usbtmc_device.c.obj
 .debug_info    0x00000000       0x6b CMakeFiles/nano_http_client.dir/C_/Users/yoyom/Desktop/Pico/pico-sdk/lib/tinyusb/src/class/usbtmc/usbtmc_device.c.obj
 .debug_abbrev  0x00000000       0x26 CMakeFiles/nano_http_client.dir/C_/Users/yoyom/Desktop/Pico/pico-sdk/lib/tinyusb/src/class/usbtmc/usbtmc_device.c.obj
 .debug_aranges
                0x00000000       0x18 CMakeFiles/nano_http_client.dir/C_/Users/yoyom/Desktop/Pico/pico-sdk/lib/tinyusb/src/class/usbtmc/usbtmc_device.c.obj
 .debug_line    0x00000000       0x1d CMakeFiles/nano_http_client.dir/C_/Users/yoyom/Desktop/Pico/pico-sdk/lib/tinyusb/src/class/usbtmc/usbtmc_device.c.obj
 .debug_str     0x00000000      0x1a1 CMakeFiles/nano_http_client.dir/C_/Users/yoyom/Desktop/Pico/pico-sdk/lib/tinyusb/src/class/usbtmc/usbtmc_device.c.obj
 .comment       0x00000000       0x4a CMakeFiles/nano_http_client.dir/C_/Users/yoyom/Desktop/Pico/pico-sdk/lib/tinyusb/src/class/usbtmc/usbtmc_device.c.obj
 .ARM.attributes
                0x00000000       0x2c CMakeFiles/nano_http_client.dir/C_/Users/yoyom/Desktop/Pico/pico-sdk/lib/tinyusb/src/class/usbtmc/usbtmc_device.c.obj
 .text          0x00000000        0x0 CMakeFiles/nano_http_client.dir/C_/Users/yoyom/Desktop/Pico/pico-sdk/lib/tinyusb/src/class/vendor/vendor_device.c.obj
 .data          0x00000000        0x0 CMakeFiles/nano_http_client.dir/C_/Users/yoyom/Desktop/Pico/pico-sdk/lib/tinyusb/src/class/vendor/vendor_device.c.obj
 .bss           0x00000000        0x0 CMakeFiles/nano_http_client.dir/C_/Users/yoyom/Desktop/Pico/pico-sdk/lib/tinyusb/src/class/vendor/vendor_device.c.obj
 .text.tud_vendor_n_mounted
                0x00000000       0x20 CMakeFiles/nano_http_client.dir/C_/Users/yoyom/Desktop/Pico/pico-sdk/lib/tinyusb/src/class/vendor/vendor_device.c.obj
 .text.tud_vendor_n_available
                0x00000000       0x18 CMakeFiles/nano_http_client.dir/C_/Users/yoyom/Desktop/Pico/pico-sdk/lib/tinyusb/src/class/vendor/vendor_device.c.obj
 .text.tud_vendor_n_peek
                0x00000000       0x18 CMakeFiles/nano_http_client.dir/C_/Users/yoyom/Desktop/Pico/pico-sdk/lib/tinyusb/src/class/vendor/vendor_device.c.obj
 .text.tud_vendor_n_read
                0x00000000       0x64 CMakeFiles/nano_http_client.dir/C_/Users/yoyom/Desktop/Pico/pico-sdk/lib/tinyusb/src/class/vendor/vendor_device.c.obj
 .text.tud_vendor_n_read_flush
                0x00000000       0x54 CMakeFiles/nano_http_client.dir/C_/Users/yoyom/Desktop/Pico/pico-sdk/lib/tinyusb/src/class/vendor/vendor_device.c.obj
 .text.tud_vendor_n_write
                0x00000000       0x34 CMakeFiles/nano_http_client.dir/C_/Users/yoyom/Desktop/Pico/pico-sdk/lib/tinyusb/src/class/vendor/vendor_device.c.obj
 .text.tud_vendor_n_write_available
                0x00000000       0x18 CMakeFiles/nano_http_client.dir/C_/Users/yoyom/Desktop/Pico/pico-sdk/lib/tinyusb/src/class/vendor/vendor_device.c.obj
 .text          0x00000000        0x0 CMakeFiles/nano_http_client.dir/C_/Users/yoyom/Desktop/Pico/pico-sdk/lib/tinyusb/src/class/video/video_device.c.obj
 .data          0x00000000        0x0 CMakeFiles/nano_http_client.dir/C_/Users/yoyom/Desktop/Pico/pico-sdk/lib/tinyusb/src/class/video/video_device.c.obj
 .bss           0x00000000        0x0 CMakeFiles/nano_http_client.dir/C_/Users/yoyom/Desktop/Pico/pico-sdk/lib/tinyusb/src/class/video/video_device.c.obj
 .debug_info    0x00000000       0x6b CMakeFiles/nano_http_client.dir/C_/Users/yoyom/Desktop/Pico/pico-sdk/lib/tinyusb/src/class/video/video_device.c.obj
 .debug_abbrev  0x00000000       0x26 CMakeFiles/nano_http_client.dir/C_/Users/yoyom/Desktop/Pico/pico-sdk/lib/tinyusb/src/class/video/video_device.c.obj
 .debug_aranges
                0x00000000       0x18 CMakeFiles/nano_http_client.dir/C_/Users/yoyom/Desktop/Pico/pico-sdk/lib/tinyusb/src/class/video/video_device.c.obj
 .debug_line    0x00000000       0x1d CMakeFiles/nano_http_client.dir/C_/Users/yoyom/Desktop/Pico/pico-sdk/lib/tinyusb/src/class/video/video_device.c.obj
 .debug_str     0x00000000      0x19f CMakeFiles/nano_http_client.dir/C_/Users/yoyom/Desktop/Pico/pico-sdk/lib/tinyusb/src/class/video/video_device.c.obj
 .comment       0x00000000       0x4a CMakeFiles/nano_http_client.dir/C_/Users/yoyom/Desktop/Pico/pico-sdk/lib/tinyusb/src/class/video/video_device.c.obj
 .ARM.attributes
                0x00000000       0x2c CMakeFiles/nano_http_client.dir/C_/Users/yoyom/Desktop/Pico/pico-sdk/lib/tinyusb/src/class/video/video_device.c.obj
 .text          0x00000000        0x0 CMakeFiles/nano_http_client.dir/C_/Users/yoyom/Desktop/Pico/pico-sdk/lib/tinyusb/src/tusb.c.obj
 .data          0x00000000        0x0 CMakeFiles/nano_http_client.dir/C_/Users/yoyom/Desktop/Pico/pico-sdk/lib/tinyusb/src/tusb.c.obj
 .bss           0x00000000        0x0 CMakeFiles/nano_http_client.dir/C_/Users/yoyom/Desktop/Pico/pico-sdk/lib/tinyusb/src/tusb.c.obj
 .text.tusb_inited
                0x00000000        0x8 CMakeFiles/nano_http_client.dir/C_/Users/yoyom/Desktop/Pico/pico-sdk/lib/tinyusb/src/tusb.c.obj
 .text.tu_desc_find
                0x00000000       0x18 CMakeFiles/nano_http_client.dir/C_/Users/yoyom/Desktop/Pico/pico-sdk/lib/tinyusb/src/tusb.c.obj
 .text.tu_desc_find2
                0x00000000       0x28 CMakeFiles/nano_http_client.dir/C_/Users/yoyom/Desktop/Pico/pico-sdk/lib/tinyusb/src/tusb.c.obj
 .text.tu_desc_find3
                0x00000000       0x30 CMakeFiles/nano_http_client.dir/C_/Users/yoyom/Desktop/Pico/pico-sdk/lib/tinyusb/src/tusb.c.obj
 .text.tu_desc_get_interface_total_len
                0x00000000       0x4c CMakeFiles/nano_http_client.dir/C_/Users/yoyom/Desktop/Pico/pico-sdk/lib/tinyusb/src/tusb.c.obj
 .text.tu_edpt_stream_init
                0x00000000       0x6c CMakeFiles/nano_http_client.dir/C_/Users/yoyom/Desktop/Pico/pico-sdk/lib/tinyusb/src/tusb.c.obj
 .text.tu_edpt_stream_deinit
                0x00000000        0x4 CMakeFiles/nano_http_client.dir/C_/Users/yoyom/Desktop/Pico/pico-sdk/lib/tinyusb/src/tusb.c.obj
 .text.tu_edpt_stream_write_zlp_if_needed
                0x00000000       0x44 CMakeFiles/nano_http_client.dir/C_/Users/yoyom/Desktop/Pico/pico-sdk/lib/tinyusb/src/tusb.c.obj
 .text.tu_edpt_stream_write_xfer
                0x00000000       0x60 CMakeFiles/nano_http_client.dir/C_/Users/yoyom/Desktop/Pico/pico-sdk/lib/tinyusb/src/tusb.c.obj
 .text.tu_edpt_stream_write
                0x00000000       0x34 CMakeFiles/nano_http_client.dir/C_/Users/yoyom/Desktop/Pico/pico-sdk/lib/tinyusb/src/tusb.c.obj
 .text.tu_edpt_stream_read_xfer
                0x00000000       0x78 CMakeFiles/nano_http_client.dir/C_/Users/yoyom/Desktop/Pico/pico-sdk/lib/tinyusb/src/tusb.c.obj
 .text.tu_edpt_stream_read
                0x00000000       0x7c CMakeFiles/nano_http_client.dir/C_/Users/yoyom/Desktop/Pico/pico-sdk/lib/tinyusb/src/tusb.c.obj
 .text          0x00000000        0x0 CMakeFiles/nano_http_client.dir/C_/Users/yoyom/Desktop/Pico/pico-sdk/lib/tinyusb/src/common/tusb_fifo.c.obj
 .data          0x00000000        0x0 CMakeFiles/nano_http_client.dir/C_/Users/yoyom/Desktop/Pico/pico-sdk/lib/tinyusb/src/common/tusb_fifo.c.obj
 .bss           0x00000000        0x0 CMakeFiles/nano_http_client.dir/C_/Users/yoyom/Desktop/Pico/pico-sdk/lib/tinyusb/src/common/tusb_fifo.c.obj
 .text.tu_fifo_full
                0x00000000       0x28 CMakeFiles/nano_http_client.dir/C_/Users/yoyom/Desktop/Pico/pico-sdk/lib/tinyusb/src/common/tusb_fifo.c.obj
 .text.tu_fifo_overflowed
                0x00000000       0x28 CMakeFiles/nano_http_client.dir/C_/Users/yoyom/Desktop/Pico/pico-sdk/lib/tinyusb/src/common/tusb_fifo.c.obj
 .text.tu_fifo_correct_read_pointer
                0x00000000       0x34 CMakeFiles/nano_http_client.dir/C_/Users/yoyom/Desktop/Pico/pico-sdk/lib/tinyusb/src/common/tusb_fifo.c.obj
 .text.tu_fifo_peek
                0x00000000       0x80 CMakeFiles/nano_http_client.dir/C_/Users/yoyom/Desktop/Pico/pico-sdk/lib/tinyusb/src/common/tusb_fifo.c.obj
 .text.tu_fifo_peek_n
                0x00000000       0xcc CMakeFiles/nano_http_client.dir/C_/Users/yoyom/Desktop/Pico/pico-sdk/lib/tinyusb/src/common/tusb_fifo.c.obj
 .text.tu_fifo_advance_write_pointer
                0x00000000       0x1c CMakeFiles/nano_http_client.dir/C_/Users/yoyom/Desktop/Pico/pico-sdk/lib/tinyusb/src/common/tusb_fifo.c.obj
 .text.tu_fifo_advance_read_pointer
                0x00000000       0x1c CMakeFiles/nano_http_client.dir/C_/Users/yoyom/Desktop/Pico/pico-sdk/lib/tinyusb/src/common/tusb_fifo.c.obj
 .text.tu_fifo_get_read_info
                0x00000000       0x9c CMakeFiles/nano_http_client.dir/C_/Users/yoyom/Desktop/Pico/pico-sdk/lib/tinyusb/src/common/tusb_fifo.c.obj
 .text.tu_fifo_get_write_info
                0x00000000       0x64 CMakeFiles/nano_http_client.dir/C_/Users/yoyom/Desktop/Pico/pico-sdk/lib/tinyusb/src/common/tusb_fifo.c.obj
 .text          0x00000000        0x0 CMakeFiles/nano_http_client.dir/C_/Users/yoyom/Desktop/Pico/pico-sdk/src/rp2_common/pico_fix/rp2040_usb_device_enumeration/rp2040_usb_device_enumeration.c.obj
 .data          0x00000000        0x0 CMakeFiles/nano_http_client.dir/C_/Users/yoyom/Desktop/Pico/pico-sdk/src/rp2_common/pico_fix/rp2040_usb_device_enumeration/rp2040_usb_device_enumeration.c.obj
 .bss           0x00000000        0x0 CMakeFiles/nano_http_client.dir/C_/Users/yoyom/Desktop/Pico/pico-sdk/src/rp2_common/pico_fix/rp2040_usb_device_enumeration/rp2040_usb_device_enumeration.c.obj
 .text.hw_enumeration_fix_force_ls_j_done
                0x00000000       0x44 CMakeFiles/nano_http_client.dir/C_/Users/yoyom/Desktop/Pico/pico-sdk/src/rp2_common/pico_fix/rp2040_usb_device_enumeration/rp2040_usb_device_enumeration.c.obj
 .text.hw_enumeration_fix_force_ls_j
                0x00000000      0x104 CMakeFiles/nano_http_client.dir/C_/Users/yoyom/Desktop/Pico/pico-sdk/src/rp2_common/pico_fix/rp2040_usb_device_enumeration/rp2040_usb_device_enumeration.c.obj
 .text.hw_enumeration_fix_wait_se0_callback
                0x00000000       0x24 CMakeFiles/nano_http_client.dir/C_/Users/yoyom/Desktop/Pico/pico-sdk/src/rp2_common/pico_fix/rp2040_usb_device_enumeration/rp2040_usb_device_enumeration.c.obj
 .text.rp2040_usb_device_enumeration_fix
                0x00000000       0x64 CMakeFiles/nano_http_client.dir/C_/Users/yoyom/Desktop/Pico/pico-sdk/src/rp2_common/pico_fix/rp2040_usb_device_enumeration/rp2040_usb_device_enumeration.c.obj
 .bss.gpio_ctrl_prev
                0x00000000        0x4 CMakeFiles/nano_http_client.dir/C_/Users/yoyom/Desktop/Pico/pico-sdk/src/rp2_common/pico_fix/rp2040_usb_device_enumeration/rp2040_usb_device_enumeration.c.obj
 .bss.pad_ctrl_prev
                0x00000000        0x4 CMakeFiles/nano_http_client.dir/C_/Users/yoyom/Desktop/Pico/pico-sdk/src/rp2_common/pico_fix/rp2040_usb_device_enumeration/rp2040_usb_device_enumeration.c.obj
 .debug_info    0x00000000      0xdf5 CMakeFiles/nano_http_client.dir/C_/Users/yoyom/Desktop/Pico/pico-sdk/src/rp2_common/pico_fix/rp2040_usb_device_enumeration/rp2040_usb_device_enumeration.c.obj
 .debug_abbrev  0x00000000      0x3c1 CMakeFiles/nano_http_client.dir/C_/Users/yoyom/Desktop/Pico/pico-sdk/src/rp2_common/pico_fix/rp2040_usb_device_enumeration/rp2040_usb_device_enumeration.c.obj
 .debug_loc     0x00000000      0x555 CMakeFiles/nano_http_client.dir/C_/Users/yoyom/Desktop/Pico/pico-sdk/src/rp2_common/pico_fix/rp2040_usb_device_enumeration/rp2040_usb_device_enumeration.c.obj
 .debug_aranges
                0x00000000       0x38 CMakeFiles/nano_http_client.dir/C_/Users/yoyom/Desktop/Pico/pico-sdk/src/rp2_common/pico_fix/rp2040_usb_device_enumeration/rp2040_usb_device_enumeration.c.obj
 .debug_ranges  0x00000000      0x278 CMakeFiles/nano_http_client.dir/C_/Users/yoyom/Desktop/Pico/pico-sdk/src/rp2_common/pico_fix/rp2040_usb_device_enumeration/rp2040_usb_device_enumeration.c.obj
 .debug_line    0x00000000      0x844 CMakeFiles/nano_http_client.dir/C_/Users/yoyom/Desktop/Pico/pico-sdk/src/rp2_common/pico_fix/rp2040_usb_device_enumeration/rp2040_usb_device_enumeration.c.obj
 .debug_str     0x00000000      0x8d1 CMakeFiles/nano_http_client.dir/C_/Users/yoyom/Desktop/Pico/pico-sdk/src/rp2_common/pico_fix/rp2040_usb_device_enumeration/rp2040_usb_device_enumeration.c.obj
 .comment       0x00000000       0x4a CMakeFiles/nano_http_client.dir/C_/Users/yoyom/Desktop/Pico/pico-sdk/src/rp2_common/pico_fix/rp2040_usb_device_enumeration/rp2040_usb_device_enumeration.c.obj
 .debug_frame   0x00000000       0x74 CMakeFiles/nano_http_client.dir/C_/Users/yoyom/Desktop/Pico/pico-sdk/src/rp2_common/pico_fix/rp2040_usb_device_enumeration/rp2040_usb_device_enumeration.c.obj
 .ARM.attributes
                0x00000000       0x2c CMakeFiles/nano_http_client.dir/C_/Users/yoyom/Desktop/Pico/pico-sdk/src/rp2_common/pico_fix/rp2040_usb_device_enumeration/rp2040_usb_device_enumeration.c.obj
 .text          0x00000000        0x0 CMakeFiles/nano_http_client.dir/C_/Users/yoyom/Desktop/Pico/pico-sdk/src/rp2_common/pico_rand/rand.c.obj
 .data          0x00000000        0x0 CMakeFiles/nano_http_client.dir/C_/Users/yoyom/Desktop/Pico/pico-sdk/src/rp2_common/pico_rand/rand.c.obj
 .bss           0x00000000        0x0 CMakeFiles/nano_http_client.dir/C_/Users/yoyom/Desktop/Pico/pico-sdk/src/rp2_common/pico_rand/rand.c.obj
 .text.splitmix64
                0x00000000       0x5c CMakeFiles/nano_http_client.dir/C_/Users/yoyom/Desktop/Pico/pico-sdk/src/rp2_common/pico_rand/rand.c.obj
 .text.xoroshiro128ss
                0x00000000       0x90 CMakeFiles/nano_http_client.dir/C_/Users/yoyom/Desktop/Pico/pico-sdk/src/rp2_common/pico_rand/rand.c.obj
 .text.get_rand_64
                0x00000000      0x484 CMakeFiles/nano_http_client.dir/C_/Users/yoyom/Desktop/Pico/pico-sdk/src/rp2_common/pico_rand/rand.c.obj
 .text.get_rand_128
                0x00000000       0x18 CMakeFiles/nano_http_client.dir/C_/Users/yoyom/Desktop/Pico/pico-sdk/src/rp2_common/pico_rand/rand.c.obj
 .text.get_rand_32
                0x00000000        0x8 CMakeFiles/nano_http_client.dir/C_/Users/yoyom/Desktop/Pico/pico-sdk/src/rp2_common/pico_rand/rand.c.obj
 .bss.bus_counter_idx
                0x00000000        0x1 CMakeFiles/nano_http_client.dir/C_/Users/yoyom/Desktop/Pico/pico-sdk/src/rp2_common/pico_rand/rand.c.obj
 .bss.check_byte.1
                0x00000000        0x1 CMakeFiles/nano_http_client.dir/C_/Users/yoyom/Desktop/Pico/pico-sdk/src/rp2_common/pico_rand/rand.c.obj
 .bss.next_sample_time.0
                0x00000000        0x8 CMakeFiles/nano_http_client.dir/C_/Users/yoyom/Desktop/Pico/pico-sdk/src/rp2_common/pico_rand/rand.c.obj
 .bss.rng_initialised
                0x00000000        0x1 CMakeFiles/nano_http_client.dir/C_/Users/yoyom/Desktop/Pico/pico-sdk/src/rp2_common/pico_rand/rand.c.obj
 .uninitialized_data.ram_hash
                0x00000000        0x8 CMakeFiles/nano_http_client.dir/C_/Users/yoyom/Desktop/Pico/pico-sdk/src/rp2_common/pico_rand/rand.c.obj
 .uninitialized_data.rng_state
                0x00000000       0x10 CMakeFiles/nano_http_client.dir/C_/Users/yoyom/Desktop/Pico/pico-sdk/src/rp2_common/pico_rand/rand.c.obj
 .uninitialized_data.rosc_samples
                0x00000000        0x8 CMakeFiles/nano_http_client.dir/C_/Users/yoyom/Desktop/Pico/pico-sdk/src/rp2_common/pico_rand/rand.c.obj
 .debug_info    0x00000000     0x1847 CMakeFiles/nano_http_client.dir/C_/Users/yoyom/Desktop/Pico/pico-sdk/src/rp2_common/pico_rand/rand.c.obj
 .debug_abbrev  0x00000000      0x4b3 CMakeFiles/nano_http_client.dir/C_/Users/yoyom/Desktop/Pico/pico-sdk/src/rp2_common/pico_rand/rand.c.obj
 .debug_loc     0x00000000      0xfef CMakeFiles/nano_http_client.dir/C_/Users/yoyom/Desktop/Pico/pico-sdk/src/rp2_common/pico_rand/rand.c.obj
 .debug_aranges
                0x00000000       0x40 CMakeFiles/nano_http_client.dir/C_/Users/yoyom/Desktop/Pico/pico-sdk/src/rp2_common/pico_rand/rand.c.obj
 .debug_ranges  0x00000000      0xae0 CMakeFiles/nano_http_client.dir/C_/Users/yoyom/Desktop/Pico/pico-sdk/src/rp2_common/pico_rand/rand.c.obj
 .debug_line    0x00000000      0xfda CMakeFiles/nano_http_client.dir/C_/Users/yoyom/Desktop/Pico/pico-sdk/src/rp2_common/pico_rand/rand.c.obj
 .debug_str     0x00000000      0xc22 CMakeFiles/nano_http_client.dir/C_/Users/yoyom/Desktop/Pico/pico-sdk/src/rp2_common/pico_rand/rand.c.obj
 .comment       0x00000000       0x4a CMakeFiles/nano_http_client.dir/C_/Users/yoyom/Desktop/Pico/pico-sdk/src/rp2_common/pico_rand/rand.c.obj
 .debug_frame   0x00000000       0xa8 CMakeFiles/nano_http_client.dir/C_/Users/yoyom/Desktop/Pico/pico-sdk/src/rp2_common/pico_rand/rand.c.obj
 .ARM.attributes
                0x00000000       0x2c CMakeFiles/nano_http_client.dir/C_/Users/yoyom/Desktop/Pico/pico-sdk/src/rp2_common/pico_rand/rand.c.obj
 .text          0x00000000        0x0 CMakeFiles/nano_http_client.dir/C_/Users/yoyom/Desktop/Pico/pico-sdk/lib/lwip/src/core/init.c.obj
 .data          0x00000000        0x0 CMakeFiles/nano_http_client.dir/C_/Users/yoyom/Desktop/Pico/pico-sdk/lib/lwip/src/core/init.c.obj
 .bss           0x00000000        0x0 CMakeFiles/nano_http_client.dir/C_/Users/yoyom/Desktop/Pico/pico-sdk/lib/lwip/src/core/init.c.obj
 .text.lwip_init
                0x00000000       0x24 CMakeFiles/nano_http_client.dir/C_/Users/yoyom/Desktop/Pico/pico-sdk/lib/lwip/src/core/init.c.obj
 .debug_info    0x00000000      0x153 CMakeFiles/nano_http_client.dir/C_/Users/yoyom/Desktop/Pico/pico-sdk/lib/lwip/src/core/init.c.obj
 .debug_abbrev  0x00000000       0x97 CMakeFiles/nano_http_client.dir/C_/Users/yoyom/Desktop/Pico/pico-sdk/lib/lwip/src/core/init.c.obj
 .debug_aranges
                0x00000000       0x20 CMakeFiles/nano_http_client.dir/C_/Users/yoyom/Desktop/Pico/pico-sdk/lib/lwip/src/core/init.c.obj
 .debug_ranges  0x00000000       0x10 CMakeFiles/nano_http_client.dir/C_/Users/yoyom/Desktop/Pico/pico-sdk/lib/lwip/src/core/init.c.obj
 .debug_line    0x00000000      0x1de CMakeFiles/nano_http_client.dir/C_/Users/yoyom/Desktop/Pico/pico-sdk/lib/lwip/src/core/init.c.obj
 .debug_str     0x00000000      0x1fc CMakeFiles/nano_http_client.dir/C_/Users/yoyom/Desktop/Pico/pico-sdk/lib/lwip/src/core/init.c.obj
 .comment       0x00000000       0x4a CMakeFiles/nano_http_client.dir/C_/Users/yoyom/Desktop/Pico/pico-sdk/lib/lwip/src/core/init.c.obj
 .debug_frame   0x00000000       0x28 CMakeFiles/nano_http_client.dir/C_/Users/yoyom/Desktop/Pico/pico-sdk/lib/lwip/src/core/init.c.obj
 .ARM.attributes
                0x00000000       0x2c CMakeFiles/nano_http_client.dir/C_/Users/yoyom/Desktop/Pico/pico-sdk/lib/lwip/src/core/init.c.obj
 .text          0x00000000        0x0 CMakeFiles/nano_http_client.dir/C_/Users/yoyom/Desktop/Pico/pico-sdk/lib/lwip/src/core/def.c.obj
 .data          0x00000000        0x0 CMakeFiles/nano_http_client.dir/C_/Users/yoyom/Desktop/Pico/pico-sdk/lib/lwip/src/core/def.c.obj
 .bss           0x00000000        0x0 CMakeFiles/nano_http_client.dir/C_/Users/yoyom/Desktop/Pico/pico-sdk/lib/lwip/src/core/def.c.obj
 .text.lwip_strnstr
                0x00000000       0x5c CMakeFiles/nano_http_client.dir/C_/Users/yoyom/Desktop/Pico/pico-sdk/lib/lwip/src/core/def.c.obj
 .text.lwip_strnistr
                0x00000000       0x88 CMakeFiles/nano_http_client.dir/C_/Users/yoyom/Desktop/Pico/pico-sdk/lib/lwip/src/core/def.c.obj
 .text.lwip_stricmp
                0x00000000       0x34 CMakeFiles/nano_http_client.dir/C_/Users/yoyom/Desktop/Pico/pico-sdk/lib/lwip/src/core/def.c.obj
 .text.lwip_strnicmp
                0x00000000       0x3c CMakeFiles/nano_http_client.dir/C_/Users/yoyom/Desktop/Pico/pico-sdk/lib/lwip/src/core/def.c.obj
 .text.lwip_itoa
                0x00000000       0x80 CMakeFiles/nano_http_client.dir/C_/Users/yoyom/Desktop/Pico/pico-sdk/lib/lwip/src/core/def.c.obj
 .text          0x00000000        0x0 CMakeFiles/nano_http_client.dir/C_/Users/yoyom/Desktop/Pico/pico-sdk/lib/lwip/src/core/dns.c.obj
 .data          0x00000000        0x0 CMakeFiles/nano_http_client.dir/C_/Users/yoyom/Desktop/Pico/pico-sdk/lib/lwip/src/core/dns.c.obj
 .bss           0x00000000        0x0 CMakeFiles/nano_http_client.dir/C_/Users/yoyom/Desktop/Pico/pico-sdk/lib/lwip/src/core/dns.c.obj
 .text.dns_call_found
                0x00000000      0x134 CMakeFiles/nano_http_client.dir/C_/Users/yoyom/Desktop/Pico/pico-sdk/lib/lwip/src/core/dns.c.obj
 .rodata.dns_send.isra.0.str1.4
                0x00000000       0x18 CMakeFiles/nano_http_client.dir/C_/Users/yoyom/Desktop/Pico/pico-sdk/lib/lwip/src/core/dns.c.obj
 .text.dns_send.isra.0
                0x00000000      0x168 CMakeFiles/nano_http_client.dir/C_/Users/yoyom/Desktop/Pico/pico-sdk/lib/lwip/src/core/dns.c.obj
 .rodata.dns_check_entry.str1.4
                0x00000000       0x3b CMakeFiles/nano_http_client.dir/C_/Users/yoyom/Desktop/Pico/pico-sdk/lib/lwip/src/core/dns.c.obj
 .text.dns_check_entry
                0x00000000      0x124 CMakeFiles/nano_http_client.dir/C_/Users/yoyom/Desktop/Pico/pico-sdk/lib/lwip/src/core/dns.c.obj
 .text.dns_recv
                0x00000000      0x374 CMakeFiles/nano_http_client.dir/C_/Users/yoyom/Desktop/Pico/pico-sdk/lib/lwip/src/core/dns.c.obj
 .text.dns_init
                0x00000000        0x4 CMakeFiles/nano_http_client.dir/C_/Users/yoyom/Desktop/Pico/pico-sdk/lib/lwip/src/core/dns.c.obj
 .text.dns_setserver
                0x00000000       0x2c CMakeFiles/nano_http_client.dir/C_/Users/yoyom/Desktop/Pico/pico-sdk/lib/lwip/src/core/dns.c.obj
 .text.dns_getserver
                0x00000000       0x18 CMakeFiles/nano_http_client.dir/C_/Users/yoyom/Desktop/Pico/pico-sdk/lib/lwip/src/core/dns.c.obj
 .text.dns_tmr  0x00000000      0x138 CMakeFiles/nano_http_client.dir/C_/Users/yoyom/Desktop/Pico/pico-sdk/lib/lwip/src/core/dns.c.obj
 .text.dns_gethostbyname_addrtype
                0x00000000      0x5dc CMakeFiles/nano_http_client.dir/C_/Users/yoyom/Desktop/Pico/pico-sdk/lib/lwip/src/core/dns.c.obj
 .text.dns_gethostbyname
                0x00000000       0x10 CMakeFiles/nano_http_client.dir/C_/Users/yoyom/Desktop/Pico/pico-sdk/lib/lwip/src/core/dns.c.obj
 .bss.dns_last_pcb_idx
                0x00000000        0x1 CMakeFiles/nano_http_client.dir/C_/Users/yoyom/Desktop/Pico/pico-sdk/lib/lwip/src/core/dns.c.obj
 .bss.dns_pcbs  0x00000000       0x10 CMakeFiles/nano_http_client.dir/C_/Users/yoyom/Desktop/Pico/pico-sdk/lib/lwip/src/core/dns.c.obj
 .bss.dns_requests
                0x00000000       0x30 CMakeFiles/nano_http_client.dir/C_/Users/yoyom/Desktop/Pico/pico-sdk/lib/lwip/src/core/dns.c.obj
 .bss.dns_seqno
                0x00000000        0x1 CMakeFiles/nano_http_client.dir/C_/Users/yoyom/Desktop/Pico/pico-sdk/lib/lwip/src/core/dns.c.obj
 .bss.dns_servers
                0x00000000        0x8 CMakeFiles/nano_http_client.dir/C_/Users/yoyom/Desktop/Pico/pico-sdk/lib/lwip/src/core/dns.c.obj
 .bss.dns_table
                0x00000000      0x440 CMakeFiles/nano_http_client.dir/C_/Users/yoyom/Desktop/Pico/pico-sdk/lib/lwip/src/core/dns.c.obj
 .rodata.dns_mquery_v4group
                0x00000000        0x4 CMakeFiles/nano_http_client.dir/C_/Users/yoyom/Desktop/Pico/pico-sdk/lib/lwip/src/core/dns.c.obj
 .debug_info    0x00000000     0x1b03 CMakeFiles/nano_http_client.dir/C_/Users/yoyom/Desktop/Pico/pico-sdk/lib/lwip/src/core/dns.c.obj
 .debug_abbrev  0x00000000      0x428 CMakeFiles/nano_http_client.dir/C_/Users/yoyom/Desktop/Pico/pico-sdk/lib/lwip/src/core/dns.c.obj
 .debug_loc     0x00000000     0x1bf7 CMakeFiles/nano_http_client.dir/C_/Users/yoyom/Desktop/Pico/pico-sdk/lib/lwip/src/core/dns.c.obj
 .debug_aranges
                0x00000000       0x68 CMakeFiles/nano_http_client.dir/C_/Users/yoyom/Desktop/Pico/pico-sdk/lib/lwip/src/core/dns.c.obj
 .debug_ranges  0x00000000      0x328 CMakeFiles/nano_http_client.dir/C_/Users/yoyom/Desktop/Pico/pico-sdk/lib/lwip/src/core/dns.c.obj
 .debug_line    0x00000000     0x15f1 CMakeFiles/nano_http_client.dir/C_/Users/yoyom/Desktop/Pico/pico-sdk/lib/lwip/src/core/dns.c.obj
 .debug_str     0x00000000      0x9b2 CMakeFiles/nano_http_client.dir/C_/Users/yoyom/Desktop/Pico/pico-sdk/lib/lwip/src/core/dns.c.obj
 .comment       0x00000000       0x4a CMakeFiles/nano_http_client.dir/C_/Users/yoyom/Desktop/Pico/pico-sdk/lib/lwip/src/core/dns.c.obj
 .debug_frame   0x00000000      0x15c CMakeFiles/nano_http_client.dir/C_/Users/yoyom/Desktop/Pico/pico-sdk/lib/lwip/src/core/dns.c.obj
 .ARM.attributes
                0x00000000       0x2c CMakeFiles/nano_http_client.dir/C_/Users/yoyom/Desktop/Pico/pico-sdk/lib/lwip/src/core/dns.c.obj
 .text          0x00000000        0x0 CMakeFiles/nano_http_client.dir/C_/Users/yoyom/Desktop/Pico/pico-sdk/lib/lwip/src/core/inet_chksum.c.obj
 .data          0x00000000        0x0 CMakeFiles/nano_http_client.dir/C_/Users/yoyom/Desktop/Pico/pico-sdk/lib/lwip/src/core/inet_chksum.c.obj
 .bss           0x00000000        0x0 CMakeFiles/nano_http_client.dir/C_/Users/yoyom/Desktop/Pico/pico-sdk/lib/lwip/src/core/inet_chksum.c.obj
 .rodata.inet_chksum_pseudo_partial.str1.4
                0x00000000        0xa CMakeFiles/nano_http_client.dir/C_/Users/yoyom/Desktop/Pico/pico-sdk/lib/lwip/src/core/inet_chksum.c.obj
 .text.inet_chksum_pseudo_partial
                0x00000000       0xf8 CMakeFiles/nano_http_client.dir/C_/Users/yoyom/Desktop/Pico/pico-sdk/lib/lwip/src/core/inet_chksum.c.obj
 .text.ip_chksum_pseudo_partial
                0x00000000       0x14 CMakeFiles/nano_http_client.dir/C_/Users/yoyom/Desktop/Pico/pico-sdk/lib/lwip/src/core/inet_chksum.c.obj
 .text.inet_chksum_pbuf
                0x00000000       0x6c CMakeFiles/nano_http_client.dir/C_/Users/yoyom/Desktop/Pico/pico-sdk/lib/lwip/src/core/inet_chksum.c.obj
 .text          0x00000000        0x0 CMakeFiles/nano_http_client.dir/C_/Users/yoyom/Desktop/Pico/pico-sdk/lib/lwip/src/core/ip.c.obj
 .data          0x00000000        0x0 CMakeFiles/nano_http_client.dir/C_/Users/yoyom/Desktop/Pico/pico-sdk/lib/lwip/src/core/ip.c.obj
 .bss           0x00000000        0x0 CMakeFiles/nano_http_client.dir/C_/Users/yoyom/Desktop/Pico/pico-sdk/lib/lwip/src/core/ip.c.obj
 .bss.ip_data   0x00000000       0x18 CMakeFiles/nano_http_client.dir/C_/Users/yoyom/Desktop/Pico/pico-sdk/lib/lwip/src/core/ip.c.obj
 .debug_info    0x00000000      0x549 CMakeFiles/nano_http_client.dir/C_/Users/yoyom/Desktop/Pico/pico-sdk/lib/lwip/src/core/ip.c.obj
 .debug_abbrev  0x00000000      0x13b CMakeFiles/nano_http_client.dir/C_/Users/yoyom/Desktop/Pico/pico-sdk/lib/lwip/src/core/ip.c.obj
 .debug_aranges
                0x00000000       0x18 CMakeFiles/nano_http_client.dir/C_/Users/yoyom/Desktop/Pico/pico-sdk/lib/lwip/src/core/ip.c.obj
 .debug_line    0x00000000      0x18d CMakeFiles/nano_http_client.dir/C_/Users/yoyom/Desktop/Pico/pico-sdk/lib/lwip/src/core/ip.c.obj
 .debug_str     0x00000000      0x4e7 CMakeFiles/nano_http_client.dir/C_/Users/yoyom/Desktop/Pico/pico-sdk/lib/lwip/src/core/ip.c.obj
 .comment       0x00000000       0x4a CMakeFiles/nano_http_client.dir/C_/Users/yoyom/Desktop/Pico/pico-sdk/lib/lwip/src/core/ip.c.obj
 .ARM.attributes
                0x00000000       0x2c CMakeFiles/nano_http_client.dir/C_/Users/yoyom/Desktop/Pico/pico-sdk/lib/lwip/src/core/ip.c.obj
 .text          0x00000000        0x0 CMakeFiles/nano_http_client.dir/C_/Users/yoyom/Desktop/Pico/pico-sdk/lib/lwip/src/core/mem.c.obj
 .data          0x00000000        0x0 CMakeFiles/nano_http_client.dir/C_/Users/yoyom/Desktop/Pico/pico-sdk/lib/lwip/src/core/mem.c.obj
 .bss           0x00000000        0x0 CMakeFiles/nano_http_client.dir/C_/Users/yoyom/Desktop/Pico/pico-sdk/lib/lwip/src/core/mem.c.obj
 .text.mem_init
                0x00000000       0x40 CMakeFiles/nano_http_client.dir/C_/Users/yoyom/Desktop/Pico/pico-sdk/lib/lwip/src/core/mem.c.obj
 .text.mem_calloc
                0x00000000       0x28 CMakeFiles/nano_http_client.dir/C_/Users/yoyom/Desktop/Pico/pico-sdk/lib/lwip/src/core/mem.c.obj
 .bss.ram_heap  0x00000000      0xfb3 CMakeFiles/nano_http_client.dir/C_/Users/yoyom/Desktop/Pico/pico-sdk/lib/lwip/src/core/mem.c.obj
 .text          0x00000000        0x0 CMakeFiles/nano_http_client.dir/C_/Users/yoyom/Desktop/Pico/pico-sdk/lib/lwip/src/core/memp.c.obj
 .data          0x00000000        0x0 CMakeFiles/nano_http_client.dir/C_/Users/yoyom/Desktop/Pico/pico-sdk/lib/lwip/src/core/memp.c.obj
 .bss           0x00000000        0x0 CMakeFiles/nano_http_client.dir/C_/Users/yoyom/Desktop/Pico/pico-sdk/lib/lwip/src/core/memp.c.obj
 .text.memp_init_pool
                0x00000000       0x30 CMakeFiles/nano_http_client.dir/C_/Users/yoyom/Desktop/Pico/pico-sdk/lib/lwip/src/core/memp.c.obj
 .text.memp_init
                0x00000000       0x6c CMakeFiles/nano_http_client.dir/C_/Users/yoyom/Desktop/Pico/pico-sdk/lib/lwip/src/core/memp.c.obj
 .text.memp_malloc_pool
                0x00000000       0x38 CMakeFiles/nano_http_client.dir/C_/Users/yoyom/Desktop/Pico/pico-sdk/lib/lwip/src/core/memp.c.obj
 .text.memp_free_pool
                0x00000000       0x38 CMakeFiles/nano_http_client.dir/C_/Users/yoyom/Desktop/Pico/pico-sdk/lib/lwip/src/core/memp.c.obj
 .text          0x00000000        0x0 CMakeFiles/nano_http_client.dir/C_/Users/yoyom/Desktop/Pico/pico-sdk/lib/lwip/src/core/netif.c.obj
 .data          0x00000000        0x0 CMakeFiles/nano_http_client.dir/C_/Users/yoyom/Desktop/Pico/pico-sdk/lib/lwip/src/core/netif.c.obj
 .bss           0x00000000        0x0 CMakeFiles/nano_http_client.dir/C_/Users/yoyom/Desktop/Pico/pico-sdk/lib/lwip/src/core/netif.c.obj
 .text.netif_null_output_ip4
                0x00000000        0x8 CMakeFiles/nano_http_client.dir/C_/Users/yoyom/Desktop/Pico/pico-sdk/lib/lwip/src/core/netif.c.obj
 .rodata.netif_do_set_ipaddr.isra.0.str1.4
                0x00000000       0x10 CMakeFiles/nano_http_client.dir/C_/Users/yoyom/Desktop/Pico/pico-sdk/lib/lwip/src/core/netif.c.obj
 .text.netif_do_set_ipaddr.isra.0
                0x00000000       0x70 CMakeFiles/nano_http_client.dir/C_/Users/yoyom/Desktop/Pico/pico-sdk/lib/lwip/src/core/netif.c.obj
 .text.netif_init
                0x00000000        0x4 CMakeFiles/nano_http_client.dir/C_/Users/yoyom/Desktop/Pico/pico-sdk/lib/lwip/src/core/netif.c.obj
 .rodata.netif_input.str1.4
                0x00000000       0x37 CMakeFiles/nano_http_client.dir/C_/Users/yoyom/Desktop/Pico/pico-sdk/lib/lwip/src/core/netif.c.obj
 .text.netif_input
                0x00000000       0x34 CMakeFiles/nano_http_client.dir/C_/Users/yoyom/Desktop/Pico/pico-sdk/lib/lwip/src/core/netif.c.obj
 .rodata.netif_add.str1.4
                0x00000000       0x42 CMakeFiles/nano_http_client.dir/C_/Users/yoyom/Desktop/Pico/pico-sdk/lib/lwip/src/core/netif.c.obj
 .text.netif_add
                0x00000000      0x144 CMakeFiles/nano_http_client.dir/C_/Users/yoyom/Desktop/Pico/pico-sdk/lib/lwip/src/core/netif.c.obj
 .text.netif_add_noaddr
                0x00000000       0x18 CMakeFiles/nano_http_client.dir/C_/Users/yoyom/Desktop/Pico/pico-sdk/lib/lwip/src/core/netif.c.obj
 .text.netif_set_ipaddr
                0x00000000       0x70 CMakeFiles/nano_http_client.dir/C_/Users/yoyom/Desktop/Pico/pico-sdk/lib/lwip/src/core/netif.c.obj
 .text.netif_set_netmask
                0x00000000       0x1c CMakeFiles/nano_http_client.dir/C_/Users/yoyom/Desktop/Pico/pico-sdk/lib/lwip/src/core/netif.c.obj
 .text.netif_set_gw
                0x00000000       0x1c CMakeFiles/nano_http_client.dir/C_/Users/yoyom/Desktop/Pico/pico-sdk/lib/lwip/src/core/netif.c.obj
 .text.netif_set_addr
                0x00000000       0xb8 CMakeFiles/nano_http_client.dir/C_/Users/yoyom/Desktop/Pico/pico-sdk/lib/lwip/src/core/netif.c.obj
 .text.netif_remove
                0x00000000       0x94 CMakeFiles/nano_http_client.dir/C_/Users/yoyom/Desktop/Pico/pico-sdk/lib/lwip/src/core/netif.c.obj
 .text.netif_set_default
                0x00000000        0xc CMakeFiles/nano_http_client.dir/C_/Users/yoyom/Desktop/Pico/pico-sdk/lib/lwip/src/core/netif.c.obj
 .text.netif_set_up
                0x00000000       0x40 CMakeFiles/nano_http_client.dir/C_/Users/yoyom/Desktop/Pico/pico-sdk/lib/lwip/src/core/netif.c.obj
 .text.netif_set_down
                0x00000000       0x30 CMakeFiles/nano_http_client.dir/C_/Users/yoyom/Desktop/Pico/pico-sdk/lib/lwip/src/core/netif.c.obj
 .text.netif_set_status_callback
                0x00000000        0x8 CMakeFiles/nano_http_client.dir/C_/Users/yoyom/Desktop/Pico/pico-sdk/lib/lwip/src/core/netif.c.obj
 .text.netif_set_link_up
                0x00000000       0x44 CMakeFiles/nano_http_client.dir/C_/Users/yoyom/Desktop/Pico/pico-sdk/lib/lwip/src/core/netif.c.obj
 .text.netif_set_link_down
                0x00000000       0x20 CMakeFiles/nano_http_client.dir/C_/Users/yoyom/Desktop/Pico/pico-sdk/lib/lwip/src/core/netif.c.obj
 .text.netif_set_link_callback
                0x00000000        0x8 CMakeFiles/nano_http_client.dir/C_/Users/yoyom/Desktop/Pico/pico-sdk/lib/lwip/src/core/netif.c.obj
 .text.netif_name_to_index
                0x00000000       0x54 CMakeFiles/nano_http_client.dir/C_/Users/yoyom/Desktop/Pico/pico-sdk/lib/lwip/src/core/netif.c.obj
 .text.netif_index_to_name
                0x00000000       0x48 CMakeFiles/nano_http_client.dir/C_/Users/yoyom/Desktop/Pico/pico-sdk/lib/lwip/src/core/netif.c.obj
 .text.netif_find
                0x00000000       0x50 CMakeFiles/nano_http_client.dir/C_/Users/yoyom/Desktop/Pico/pico-sdk/lib/lwip/src/core/netif.c.obj
 .bss.netif_num
                0x00000000        0x1 CMakeFiles/nano_http_client.dir/C_/Users/yoyom/Desktop/Pico/pico-sdk/lib/lwip/src/core/netif.c.obj
 .text          0x00000000        0x0 CMakeFiles/nano_http_client.dir/C_/Users/yoyom/Desktop/Pico/pico-sdk/lib/lwip/src/core/pbuf.c.obj
 .data          0x00000000        0x0 CMakeFiles/nano_http_client.dir/C_/Users/yoyom/Desktop/Pico/pico-sdk/lib/lwip/src/core/pbuf.c.obj
 .bss           0x00000000        0x0 CMakeFiles/nano_http_client.dir/C_/Users/yoyom/Desktop/Pico/pico-sdk/lib/lwip/src/core/pbuf.c.obj
 .text.pbuf_free_ooseq
                0x00000000       0x34 CMakeFiles/nano_http_client.dir/C_/Users/yoyom/Desktop/Pico/pico-sdk/lib/lwip/src/core/pbuf.c.obj
 .rodata.pbuf_alloc_reference.str1.4
                0x00000000       0x12 CMakeFiles/nano_http_client.dir/C_/Users/yoyom/Desktop/Pico/pico-sdk/lib/lwip/src/core/pbuf.c.obj
 .text.pbuf_alloc_reference
                0x00000000       0x3c CMakeFiles/nano_http_client.dir/C_/Users/yoyom/Desktop/Pico/pico-sdk/lib/lwip/src/core/pbuf.c.obj
 .text.pbuf_add_header_force
                0x00000000       0x54 CMakeFiles/nano_http_client.dir/C_/Users/yoyom/Desktop/Pico/pico-sdk/lib/lwip/src/core/pbuf.c.obj
 .text.pbuf_remove_header
                0x00000000       0x44 CMakeFiles/nano_http_client.dir/C_/Users/yoyom/Desktop/Pico/pico-sdk/lib/lwip/src/core/pbuf.c.obj
 .text.pbuf_header
                0x00000000       0x78 CMakeFiles/nano_http_client.dir/C_/Users/yoyom/Desktop/Pico/pico-sdk/lib/lwip/src/core/pbuf.c.obj
 .text.pbuf_header_force
                0x00000000       0x74 CMakeFiles/nano_http_client.dir/C_/Users/yoyom/Desktop/Pico/pico-sdk/lib/lwip/src/core/pbuf.c.obj
 .text.pbuf_free_header
                0x00000000       0x44 CMakeFiles/nano_http_client.dir/C_/Users/yoyom/Desktop/Pico/pico-sdk/lib/lwip/src/core/pbuf.c.obj
 .rodata.pbuf_ref.str1.4
                0x00000000       0x12 CMakeFiles/nano_http_client.dir/C_/Users/yoyom/Desktop/Pico/pico-sdk/lib/lwip/src/core/pbuf.c.obj
 .text.pbuf_ref
                0x00000000       0x28 CMakeFiles/nano_http_client.dir/C_/Users/yoyom/Desktop/Pico/pico-sdk/lib/lwip/src/core/pbuf.c.obj
 .rodata.pbuf_cat.str1.4
                0x00000000       0x2d CMakeFiles/nano_http_client.dir/C_/Users/yoyom/Desktop/Pico/pico-sdk/lib/lwip/src/core/pbuf.c.obj
 .text.pbuf_cat
                0x00000000       0x3c CMakeFiles/nano_http_client.dir/C_/Users/yoyom/Desktop/Pico/pico-sdk/lib/lwip/src/core/pbuf.c.obj
 .text.pbuf_chain
                0x00000000       0x64 CMakeFiles/nano_http_client.dir/C_/Users/yoyom/Desktop/Pico/pico-sdk/lib/lwip/src/core/pbuf.c.obj
 .rodata.pbuf_dechain.str1.4
                0x00000000       0x3a CMakeFiles/nano_http_client.dir/C_/Users/yoyom/Desktop/Pico/pico-sdk/lib/lwip/src/core/pbuf.c.obj
 .text.pbuf_dechain
                0x00000000       0x54 CMakeFiles/nano_http_client.dir/C_/Users/yoyom/Desktop/Pico/pico-sdk/lib/lwip/src/core/pbuf.c.obj
 .rodata.pbuf_copy_partial_pbuf.str1.4
                0x00000000       0x33 CMakeFiles/nano_http_client.dir/C_/Users/yoyom/Desktop/Pico/pico-sdk/lib/lwip/src/core/pbuf.c.obj
 .text.pbuf_copy_partial_pbuf
                0x00000000      0x13c CMakeFiles/nano_http_client.dir/C_/Users/yoyom/Desktop/Pico/pico-sdk/lib/lwip/src/core/pbuf.c.obj
 .text.pbuf_copy
                0x00000000       0x18 CMakeFiles/nano_http_client.dir/C_/Users/yoyom/Desktop/Pico/pico-sdk/lib/lwip/src/core/pbuf.c.obj
 .text.pbuf_get_contiguous
                0x00000000       0xa0 CMakeFiles/nano_http_client.dir/C_/Users/yoyom/Desktop/Pico/pico-sdk/lib/lwip/src/core/pbuf.c.obj
 .text.pbuf_skip
                0x00000000       0x24 CMakeFiles/nano_http_client.dir/C_/Users/yoyom/Desktop/Pico/pico-sdk/lib/lwip/src/core/pbuf.c.obj
 .rodata.pbuf_take.str1.4
                0x00000000       0x2e CMakeFiles/nano_http_client.dir/C_/Users/yoyom/Desktop/Pico/pico-sdk/lib/lwip/src/core/pbuf.c.obj
 .text.pbuf_take
                0x00000000       0x78 CMakeFiles/nano_http_client.dir/C_/Users/yoyom/Desktop/Pico/pico-sdk/lib/lwip/src/core/pbuf.c.obj
 .text.pbuf_take_at
                0x00000000       0xc0 CMakeFiles/nano_http_client.dir/C_/Users/yoyom/Desktop/Pico/pico-sdk/lib/lwip/src/core/pbuf.c.obj
 .rodata.pbuf_coalesce.str1.4
                0x00000000       0x11 CMakeFiles/nano_http_client.dir/C_/Users/yoyom/Desktop/Pico/pico-sdk/lib/lwip/src/core/pbuf.c.obj
 .text.pbuf_coalesce
                0x00000000       0x80 CMakeFiles/nano_http_client.dir/C_/Users/yoyom/Desktop/Pico/pico-sdk/lib/lwip/src/core/pbuf.c.obj
 .text.pbuf_clone
                0x00000000       0x30 CMakeFiles/nano_http_client.dir/C_/Users/yoyom/Desktop/Pico/pico-sdk/lib/lwip/src/core/pbuf.c.obj
 .text.pbuf_get_at
                0x00000000       0x20 CMakeFiles/nano_http_client.dir/C_/Users/yoyom/Desktop/Pico/pico-sdk/lib/lwip/src/core/pbuf.c.obj
 .text.pbuf_try_get_at
                0x00000000       0x28 CMakeFiles/nano_http_client.dir/C_/Users/yoyom/Desktop/Pico/pico-sdk/lib/lwip/src/core/pbuf.c.obj
 .text.pbuf_put_at
                0x00000000       0x1c CMakeFiles/nano_http_client.dir/C_/Users/yoyom/Desktop/Pico/pico-sdk/lib/lwip/src/core/pbuf.c.obj
 .text.pbuf_memcmp
                0x00000000       0x74 CMakeFiles/nano_http_client.dir/C_/Users/yoyom/Desktop/Pico/pico-sdk/lib/lwip/src/core/pbuf.c.obj
 .text.pbuf_memfind
                0x00000000       0xac CMakeFiles/nano_http_client.dir/C_/Users/yoyom/Desktop/Pico/pico-sdk/lib/lwip/src/core/pbuf.c.obj
 .text.pbuf_strstr
                0x00000000       0x40 CMakeFiles/nano_http_client.dir/C_/Users/yoyom/Desktop/Pico/pico-sdk/lib/lwip/src/core/pbuf.c.obj
 .text          0x00000000        0x0 CMakeFiles/nano_http_client.dir/C_/Users/yoyom/Desktop/Pico/pico-sdk/lib/lwip/src/core/raw.c.obj
 .data          0x00000000        0x0 CMakeFiles/nano_http_client.dir/C_/Users/yoyom/Desktop/Pico/pico-sdk/lib/lwip/src/core/raw.c.obj
 .bss           0x00000000        0x0 CMakeFiles/nano_http_client.dir/C_/Users/yoyom/Desktop/Pico/pico-sdk/lib/lwip/src/core/raw.c.obj
 .rodata.raw_input.str1.4
                0x00000000       0x49 CMakeFiles/nano_http_client.dir/C_/Users/yoyom/Desktop/Pico/pico-sdk/lib/lwip/src/core/raw.c.obj
 .text.raw_input
                0x00000000       0xf0 CMakeFiles/nano_http_client.dir/C_/Users/yoyom/Desktop/Pico/pico-sdk/lib/lwip/src/core/raw.c.obj
 .text.raw_bind
                0x00000000       0x18 CMakeFiles/nano_http_client.dir/C_/Users/yoyom/Desktop/Pico/pico-sdk/lib/lwip/src/core/raw.c.obj
 .text.raw_bind_netif
                0x00000000       0x14 CMakeFiles/nano_http_client.dir/C_/Users/yoyom/Desktop/Pico/pico-sdk/lib/lwip/src/core/raw.c.obj
 .text.raw_connect
                0x00000000       0x20 CMakeFiles/nano_http_client.dir/C_/Users/yoyom/Desktop/Pico/pico-sdk/lib/lwip/src/core/raw.c.obj
 .text.raw_disconnect
                0x00000000       0x10 CMakeFiles/nano_http_client.dir/C_/Users/yoyom/Desktop/Pico/pico-sdk/lib/lwip/src/core/raw.c.obj
 .text.raw_recv
                0x00000000        0x8 CMakeFiles/nano_http_client.dir/C_/Users/yoyom/Desktop/Pico/pico-sdk/lib/lwip/src/core/raw.c.obj
 .rodata.raw_sendto.str1.4
                0x00000000       0x26 CMakeFiles/nano_http_client.dir/C_/Users/yoyom/Desktop/Pico/pico-sdk/lib/lwip/src/core/raw.c.obj
 .text.raw_sendto
                0x00000000      0x11c CMakeFiles/nano_http_client.dir/C_/Users/yoyom/Desktop/Pico/pico-sdk/lib/lwip/src/core/raw.c.obj
 .text.raw_sendto_if_src
                0x00000000       0xe4 CMakeFiles/nano_http_client.dir/C_/Users/yoyom/Desktop/Pico/pico-sdk/lib/lwip/src/core/raw.c.obj
 .text.raw_send
                0x00000000      0x114 CMakeFiles/nano_http_client.dir/C_/Users/yoyom/Desktop/Pico/pico-sdk/lib/lwip/src/core/raw.c.obj
 .text.raw_remove
                0x00000000       0x34 CMakeFiles/nano_http_client.dir/C_/Users/yoyom/Desktop/Pico/pico-sdk/lib/lwip/src/core/raw.c.obj
 .text.raw_new  0x00000000       0x2c CMakeFiles/nano_http_client.dir/C_/Users/yoyom/Desktop/Pico/pico-sdk/lib/lwip/src/core/raw.c.obj
 .text.raw_new_ip_type
                0x00000000       0x2c CMakeFiles/nano_http_client.dir/C_/Users/yoyom/Desktop/Pico/pico-sdk/lib/lwip/src/core/raw.c.obj
 .text.raw_netif_ip_addr_changed
                0x00000000       0x40 CMakeFiles/nano_http_client.dir/C_/Users/yoyom/Desktop/Pico/pico-sdk/lib/lwip/src/core/raw.c.obj
 .bss.raw_pcbs  0x00000000        0x4 CMakeFiles/nano_http_client.dir/C_/Users/yoyom/Desktop/Pico/pico-sdk/lib/lwip/src/core/raw.c.obj
 .debug_info    0x00000000     0x149c CMakeFiles/nano_http_client.dir/C_/Users/yoyom/Desktop/Pico/pico-sdk/lib/lwip/src/core/raw.c.obj
 .debug_abbrev  0x00000000      0x3e7 CMakeFiles/nano_http_client.dir/C_/Users/yoyom/Desktop/Pico/pico-sdk/lib/lwip/src/core/raw.c.obj
 .debug_loc     0x00000000     0x16d0 CMakeFiles/nano_http_client.dir/C_/Users/yoyom/Desktop/Pico/pico-sdk/lib/lwip/src/core/raw.c.obj
 .debug_aranges
                0x00000000       0x80 CMakeFiles/nano_http_client.dir/C_/Users/yoyom/Desktop/Pico/pico-sdk/lib/lwip/src/core/raw.c.obj
 .debug_ranges  0x00000000      0x1a0 CMakeFiles/nano_http_client.dir/C_/Users/yoyom/Desktop/Pico/pico-sdk/lib/lwip/src/core/raw.c.obj
 .debug_line    0x00000000      0xbb6 CMakeFiles/nano_http_client.dir/C_/Users/yoyom/Desktop/Pico/pico-sdk/lib/lwip/src/core/raw.c.obj
 .debug_str     0x00000000      0x891 CMakeFiles/nano_http_client.dir/C_/Users/yoyom/Desktop/Pico/pico-sdk/lib/lwip/src/core/raw.c.obj
 .comment       0x00000000       0x4a CMakeFiles/nano_http_client.dir/C_/Users/yoyom/Desktop/Pico/pico-sdk/lib/lwip/src/core/raw.c.obj
 .debug_frame   0x00000000      0x16c CMakeFiles/nano_http_client.dir/C_/Users/yoyom/Desktop/Pico/pico-sdk/lib/lwip/src/core/raw.c.obj
 .ARM.attributes
                0x00000000       0x2c CMakeFiles/nano_http_client.dir/C_/Users/yoyom/Desktop/Pico/pico-sdk/lib/lwip/src/core/raw.c.obj
 .text          0x00000000        0x0 CMakeFiles/nano_http_client.dir/C_/Users/yoyom/Desktop/Pico/pico-sdk/lib/lwip/src/core/stats.c.obj
 .data          0x00000000        0x0 CMakeFiles/nano_http_client.dir/C_/Users/yoyom/Desktop/Pico/pico-sdk/lib/lwip/src/core/stats.c.obj
 .bss           0x00000000        0x0 CMakeFiles/nano_http_client.dir/C_/Users/yoyom/Desktop/Pico/pico-sdk/lib/lwip/src/core/stats.c.obj
 .text.stats_init
                0x00000000        0x4 CMakeFiles/nano_http_client.dir/C_/Users/yoyom/Desktop/Pico/pico-sdk/lib/lwip/src/core/stats.c.obj
 .text          0x00000000        0x0 CMakeFiles/nano_http_client.dir/C_/Users/yoyom/Desktop/Pico/pico-sdk/lib/lwip/src/core/sys.c.obj
 .data          0x00000000        0x0 CMakeFiles/nano_http_client.dir/C_/Users/yoyom/Desktop/Pico/pico-sdk/lib/lwip/src/core/sys.c.obj
 .bss           0x00000000        0x0 CMakeFiles/nano_http_client.dir/C_/Users/yoyom/Desktop/Pico/pico-sdk/lib/lwip/src/core/sys.c.obj
 .debug_info    0x00000000       0x72 CMakeFiles/nano_http_client.dir/C_/Users/yoyom/Desktop/Pico/pico-sdk/lib/lwip/src/core/sys.c.obj
 .debug_abbrev  0x00000000       0x26 CMakeFiles/nano_http_client.dir/C_/Users/yoyom/Desktop/Pico/pico-sdk/lib/lwip/src/core/sys.c.obj
 .debug_aranges
                0x00000000       0x18 CMakeFiles/nano_http_client.dir/C_/Users/yoyom/Desktop/Pico/pico-sdk/lib/lwip/src/core/sys.c.obj
 .debug_line    0x00000000       0x1d CMakeFiles/nano_http_client.dir/C_/Users/yoyom/Desktop/Pico/pico-sdk/lib/lwip/src/core/sys.c.obj
 .debug_str     0x00000000      0x191 CMakeFiles/nano_http_client.dir/C_/Users/yoyom/Desktop/Pico/pico-sdk/lib/lwip/src/core/sys.c.obj
 .comment       0x00000000       0x4a CMakeFiles/nano_http_client.dir/C_/Users/yoyom/Desktop/Pico/pico-sdk/lib/lwip/src/core/sys.c.obj
 .ARM.attributes
                0x00000000       0x2c CMakeFiles/nano_http_client.dir/C_/Users/yoyom/Desktop/Pico/pico-sdk/lib/lwip/src/core/sys.c.obj
 .text          0x00000000        0x0 CMakeFiles/nano_http_client.dir/C_/Users/yoyom/Desktop/Pico/pico-sdk/lib/lwip/src/core/altcp.c.obj
 .data          0x00000000        0x0 CMakeFiles/nano_http_client.dir/C_/Users/yoyom/Desktop/Pico/pico-sdk/lib/lwip/src/core/altcp.c.obj
 .bss           0x00000000        0x0 CMakeFiles/nano_http_client.dir/C_/Users/yoyom/Desktop/Pico/pico-sdk/lib/lwip/src/core/altcp.c.obj
 .debug_info    0x00000000       0x72 CMakeFiles/nano_http_client.dir/C_/Users/yoyom/Desktop/Pico/pico-sdk/lib/lwip/src/core/altcp.c.obj
 .debug_abbrev  0x00000000       0x26 CMakeFiles/nano_http_client.dir/C_/Users/yoyom/Desktop/Pico/pico-sdk/lib/lwip/src/core/altcp.c.obj
 .debug_aranges
                0x00000000       0x18 CMakeFiles/nano_http_client.dir/C_/Users/yoyom/Desktop/Pico/pico-sdk/lib/lwip/src/core/altcp.c.obj
 .debug_line    0x00000000       0x1d CMakeFiles/nano_http_client.dir/C_/Users/yoyom/Desktop/Pico/pico-sdk/lib/lwip/src/core/altcp.c.obj
 .debug_str     0x00000000      0x193 CMakeFiles/nano_http_client.dir/C_/Users/yoyom/Desktop/Pico/pico-sdk/lib/lwip/src/core/altcp.c.obj
 .comment       0x00000000       0x4a CMakeFiles/nano_http_client.dir/C_/Users/yoyom/Desktop/Pico/pico-sdk/lib/lwip/src/core/altcp.c.obj
 .ARM.attributes
                0x00000000       0x2c CMakeFiles/nano_http_client.dir/C_/Users/yoyom/Desktop/Pico/pico-sdk/lib/lwip/src/core/altcp.c.obj
 .text          0x00000000        0x0 CMakeFiles/nano_http_client.dir/C_/Users/yoyom/Desktop/Pico/pico-sdk/lib/lwip/src/core/altcp_alloc.c.obj
 .data          0x00000000        0x0 CMakeFiles/nano_http_client.dir/C_/Users/yoyom/Desktop/Pico/pico-sdk/lib/lwip/src/core/altcp_alloc.c.obj
 .bss           0x00000000        0x0 CMakeFiles/nano_http_client.dir/C_/Users/yoyom/Desktop/Pico/pico-sdk/lib/lwip/src/core/altcp_alloc.c.obj
 .debug_info    0x00000000       0x72 CMakeFiles/nano_http_client.dir/C_/Users/yoyom/Desktop/Pico/pico-sdk/lib/lwip/src/core/altcp_alloc.c.obj
 .debug_abbrev  0x00000000       0x26 CMakeFiles/nano_http_client.dir/C_/Users/yoyom/Desktop/Pico/pico-sdk/lib/lwip/src/core/altcp_alloc.c.obj
 .debug_aranges
                0x00000000       0x18 CMakeFiles/nano_http_client.dir/C_/Users/yoyom/Desktop/Pico/pico-sdk/lib/lwip/src/core/altcp_alloc.c.obj
 .debug_line    0x00000000       0x1d CMakeFiles/nano_http_client.dir/C_/Users/yoyom/Desktop/Pico/pico-sdk/lib/lwip/src/core/altcp_alloc.c.obj
 .debug_str     0x00000000      0x199 CMakeFiles/nano_http_client.dir/C_/Users/yoyom/Desktop/Pico/pico-sdk/lib/lwip/src/core/altcp_alloc.c.obj
 .comment       0x00000000       0x4a CMakeFiles/nano_http_client.dir/C_/Users/yoyom/Desktop/Pico/pico-sdk/lib/lwip/src/core/altcp_alloc.c.obj
 .ARM.attributes
                0x00000000       0x2c CMakeFiles/nano_http_client.dir/C_/Users/yoyom/Desktop/Pico/pico-sdk/lib/lwip/src/core/altcp_alloc.c.obj
 .text          0x00000000        0x0 CMakeFiles/nano_http_client.dir/C_/Users/yoyom/Desktop/Pico/pico-sdk/lib/lwip/src/core/altcp_tcp.c.obj
 .data          0x00000000        0x0 CMakeFiles/nano_http_client.dir/C_/Users/yoyom/Desktop/Pico/pico-sdk/lib/lwip/src/core/altcp_tcp.c.obj
 .bss           0x00000000        0x0 CMakeFiles/nano_http_client.dir/C_/Users/yoyom/Desktop/Pico/pico-sdk/lib/lwip/src/core/altcp_tcp.c.obj
 .debug_info    0x00000000       0x72 CMakeFiles/nano_http_client.dir/C_/Users/yoyom/Desktop/Pico/pico-sdk/lib/lwip/src/core/altcp_tcp.c.obj
 .debug_abbrev  0x00000000       0x26 CMakeFiles/nano_http_client.dir/C_/Users/yoyom/Desktop/Pico/pico-sdk/lib/lwip/src/core/altcp_tcp.c.obj
 .debug_aranges
                0x00000000       0x18 CMakeFiles/nano_http_client.dir/C_/Users/yoyom/Desktop/Pico/pico-sdk/lib/lwip/src/core/altcp_tcp.c.obj
 .debug_line    0x00000000       0x1d CMakeFiles/nano_http_client.dir/C_/Users/yoyom/Desktop/Pico/pico-sdk/lib/lwip/src/core/altcp_tcp.c.obj
 .debug_str     0x00000000      0x197 CMakeFiles/nano_http_client.dir/C_/Users/yoyom/Desktop/Pico/pico-sdk/lib/lwip/src/core/altcp_tcp.c.obj
 .comment       0x00000000       0x4a CMakeFiles/nano_http_client.dir/C_/Users/yoyom/Desktop/Pico/pico-sdk/lib/lwip/src/core/altcp_tcp.c.obj
 .ARM.attributes
                0x00000000       0x2c CMakeFiles/nano_http_client.dir/C_/Users/yoyom/Desktop/Pico/pico-sdk/lib/lwip/src/core/altcp_tcp.c.obj
 .text          0x00000000        0x0 CMakeFiles/nano_http_client.dir/C_/Users/yoyom/Desktop/Pico/pico-sdk/lib/lwip/src/core/tcp.c.obj
 .data          0x00000000        0x0 CMakeFiles/nano_http_client.dir/C_/Users/yoyom/Desktop/Pico/pico-sdk/lib/lwip/src/core/tcp.c.obj
 .bss           0x00000000        0x0 CMakeFiles/nano_http_client.dir/C_/Users/yoyom/Desktop/Pico/pico-sdk/lib/lwip/src/core/tcp.c.obj
 .text.tcp_init
                0x00000000       0x20 CMakeFiles/nano_http_client.dir/C_/Users/yoyom/Desktop/Pico/pico-sdk/lib/lwip/src/core/tcp.c.obj
 .text.tcp_free
                0x00000000       0x1c CMakeFiles/nano_http_client.dir/C_/Users/yoyom/Desktop/Pico/pico-sdk/lib/lwip/src/core/tcp.c.obj
 .text.tcp_bind
                0x00000000       0xf8 CMakeFiles/nano_http_client.dir/C_/Users/yoyom/Desktop/Pico/pico-sdk/lib/lwip/src/core/tcp.c.obj
 .text.tcp_bind_netif
                0x00000000       0x14 CMakeFiles/nano_http_client.dir/C_/Users/yoyom/Desktop/Pico/pico-sdk/lib/lwip/src/core/tcp.c.obj
 .text.tcp_listen_with_backlog
                0x00000000       0x98 CMakeFiles/nano_http_client.dir/C_/Users/yoyom/Desktop/Pico/pico-sdk/lib/lwip/src/core/tcp.c.obj
 .text.tcp_listen_with_backlog_and_err
                0x00000000       0xb8 CMakeFiles/nano_http_client.dir/C_/Users/yoyom/Desktop/Pico/pico-sdk/lib/lwip/src/core/tcp.c.obj
 .text.tcp_update_rcv_ann_wnd
                0x00000000       0x60 CMakeFiles/nano_http_client.dir/C_/Users/yoyom/Desktop/Pico/pico-sdk/lib/lwip/src/core/tcp.c.obj
 .text.tcp_txnow
                0x00000000       0x2c CMakeFiles/nano_http_client.dir/C_/Users/yoyom/Desktop/Pico/pico-sdk/lib/lwip/src/core/tcp.c.obj
 .text.tcp_setprio
                0x00000000        0x8 CMakeFiles/nano_http_client.dir/C_/Users/yoyom/Desktop/Pico/pico-sdk/lib/lwip/src/core/tcp.c.obj
 .rodata.tcp_seg_copy.str1.4
                0x00000000       0x1a CMakeFiles/nano_http_client.dir/C_/Users/yoyom/Desktop/Pico/pico-sdk/lib/lwip/src/core/tcp.c.obj
 .text.tcp_seg_copy
                0x00000000       0x2c CMakeFiles/nano_http_client.dir/C_/Users/yoyom/Desktop/Pico/pico-sdk/lib/lwip/src/core/tcp.c.obj
 .rodata.tcp_sent.str1.4
                0x00000000       0x27 CMakeFiles/nano_http_client.dir/C_/Users/yoyom/Desktop/Pico/pico-sdk/lib/lwip/src/core/tcp.c.obj
 .text.tcp_sent
                0x00000000       0x1c CMakeFiles/nano_http_client.dir/C_/Users/yoyom/Desktop/Pico/pico-sdk/lib/lwip/src/core/tcp.c.obj
 .text.tcp_accept
                0x00000000       0x10 CMakeFiles/nano_http_client.dir/C_/Users/yoyom/Desktop/Pico/pico-sdk/lib/lwip/src/core/tcp.c.obj
 .rodata.tcp_poll.str1.4
                0x00000000       0x1e CMakeFiles/nano_http_client.dir/C_/Users/yoyom/Desktop/Pico/pico-sdk/lib/lwip/src/core/tcp.c.obj
 .text.tcp_poll
                0x00000000       0x20 CMakeFiles/nano_http_client.dir/C_/Users/yoyom/Desktop/Pico/pico-sdk/lib/lwip/src/core/tcp.c.obj
 .text.tcp_pcb_purge
                0x00000000       0x18 CMakeFiles/nano_http_client.dir/C_/Users/yoyom/Desktop/Pico/pico-sdk/lib/lwip/src/core/tcp.c.obj
 .text.tcp_abort
                0x00000000        0xc CMakeFiles/nano_http_client.dir/C_/Users/yoyom/Desktop/Pico/pico-sdk/lib/lwip/src/core/tcp.c.obj
 .rodata.tcp_accept_null.str1.4
                0x00000000       0x1d CMakeFiles/nano_http_client.dir/C_/Users/yoyom/Desktop/Pico/pico-sdk/lib/lwip/src/core/tcp.c.obj
 .text.tcp_accept_null
                0x00000000       0x20 CMakeFiles/nano_http_client.dir/C_/Users/yoyom/Desktop/Pico/pico-sdk/lib/lwip/src/core/tcp.c.obj
 .text.tcp_alloc
                0x00000000      0x1cc CMakeFiles/nano_http_client.dir/C_/Users/yoyom/Desktop/Pico/pico-sdk/lib/lwip/src/core/tcp.c.obj
 .text.tcp_new_ip_type
                0x00000000      0x1ac CMakeFiles/nano_http_client.dir/C_/Users/yoyom/Desktop/Pico/pico-sdk/lib/lwip/src/core/tcp.c.obj
 .text.tcp_shutdown
                0x00000000       0x60 CMakeFiles/nano_http_client.dir/C_/Users/yoyom/Desktop/Pico/pico-sdk/lib/lwip/src/core/tcp.c.obj
 .rodata.tcp_next_iss.str1.4
                0x00000000       0x1a CMakeFiles/nano_http_client.dir/C_/Users/yoyom/Desktop/Pico/pico-sdk/lib/lwip/src/core/tcp.c.obj
 .text.tcp_next_iss
                0x00000000       0x28 CMakeFiles/nano_http_client.dir/C_/Users/yoyom/Desktop/Pico/pico-sdk/lib/lwip/src/core/tcp.c.obj
 .text.tcp_netif_ip_addr_changed
                0x00000000       0x9c CMakeFiles/nano_http_client.dir/C_/Users/yoyom/Desktop/Pico/pico-sdk/lib/lwip/src/core/tcp.c.obj
 .text.tcp_debug_state_str
                0x00000000        0xc CMakeFiles/nano_http_client.dir/C_/Users/yoyom/Desktop/Pico/pico-sdk/lib/lwip/src/core/tcp.c.obj
 .text.tcp_tcp_get_tcp_addrinfo
                0x00000000       0x38 CMakeFiles/nano_http_client.dir/C_/Users/yoyom/Desktop/Pico/pico-sdk/lib/lwip/src/core/tcp.c.obj
 .text.tcp_free_ooseq
                0x00000000       0x40 CMakeFiles/nano_http_client.dir/C_/Users/yoyom/Desktop/Pico/pico-sdk/lib/lwip/src/core/tcp.c.obj
 .rodata.str1.4
                0x00000000       0x76 CMakeFiles/nano_http_client.dir/C_/Users/yoyom/Desktop/Pico/pico-sdk/lib/lwip/src/core/tcp.c.obj
 .rodata.tcp_state_str
                0x00000000       0x2c CMakeFiles/nano_http_client.dir/C_/Users/yoyom/Desktop/Pico/pico-sdk/lib/lwip/src/core/tcp.c.obj
 .text          0x00000000        0x0 CMakeFiles/nano_http_client.dir/C_/Users/yoyom/Desktop/Pico/pico-sdk/lib/lwip/src/core/tcp_in.c.obj
 .data          0x00000000        0x0 CMakeFiles/nano_http_client.dir/C_/Users/yoyom/Desktop/Pico/pico-sdk/lib/lwip/src/core/tcp_in.c.obj
 .bss           0x00000000        0x0 CMakeFiles/nano_http_client.dir/C_/Users/yoyom/Desktop/Pico/pico-sdk/lib/lwip/src/core/tcp_in.c.obj
 .rodata.tcp_parseopt.str1.4
                0x00000000       0x1a CMakeFiles/nano_http_client.dir/C_/Users/yoyom/Desktop/Pico/pico-sdk/lib/lwip/src/core/tcp_in.c.obj
 .text.tcp_parseopt
                0x00000000      0x190 CMakeFiles/nano_http_client.dir/C_/Users/yoyom/Desktop/Pico/pico-sdk/lib/lwip/src/core/tcp_in.c.obj
 .rodata.tcp_oos_insert_segment.str1.4
                0x00000000       0x25 CMakeFiles/nano_http_client.dir/C_/Users/yoyom/Desktop/Pico/pico-sdk/lib/lwip/src/core/tcp_in.c.obj
 .text.tcp_oos_insert_segment
                0x00000000       0xe0 CMakeFiles/nano_http_client.dir/C_/Users/yoyom/Desktop/Pico/pico-sdk/lib/lwip/src/core/tcp_in.c.obj
 .rodata.tcp_free_acked_segments.constprop.0.str1.4
                0x00000000       0x48 CMakeFiles/nano_http_client.dir/C_/Users/yoyom/Desktop/Pico/pico-sdk/lib/lwip/src/core/tcp_in.c.obj
 .text.tcp_free_acked_segments.constprop.0
                0x00000000       0xdc CMakeFiles/nano_http_client.dir/C_/Users/yoyom/Desktop/Pico/pico-sdk/lib/lwip/src/core/tcp_in.c.obj
 .rodata.tcp_receive.str1.4
                0x00000000      0x120 CMakeFiles/nano_http_client.dir/C_/Users/yoyom/Desktop/Pico/pico-sdk/lib/lwip/src/core/tcp_in.c.obj
 .text.tcp_receive
                0x00000000      0xa4c CMakeFiles/nano_http_client.dir/C_/Users/yoyom/Desktop/Pico/pico-sdk/lib/lwip/src/core/tcp_in.c.obj
 .rodata.tcp_input.str1.4
                0x00000000      0x1de CMakeFiles/nano_http_client.dir/C_/Users/yoyom/Desktop/Pico/pico-sdk/lib/lwip/src/core/tcp_in.c.obj
 .text.tcp_input
                0x00000000      0xda4 CMakeFiles/nano_http_client.dir/C_/Users/yoyom/Desktop/Pico/pico-sdk/lib/lwip/src/core/tcp_in.c.obj
 .rodata.tcp_input
                0x00000000       0x28 CMakeFiles/nano_http_client.dir/C_/Users/yoyom/Desktop/Pico/pico-sdk/lib/lwip/src/core/tcp_in.c.obj
 .bss.ackno     0x00000000        0x4 CMakeFiles/nano_http_client.dir/C_/Users/yoyom/Desktop/Pico/pico-sdk/lib/lwip/src/core/tcp_in.c.obj
 .bss.flags     0x00000000        0x1 CMakeFiles/nano_http_client.dir/C_/Users/yoyom/Desktop/Pico/pico-sdk/lib/lwip/src/core/tcp_in.c.obj
 .bss.inseg     0x00000000       0x10 CMakeFiles/nano_http_client.dir/C_/Users/yoyom/Desktop/Pico/pico-sdk/lib/lwip/src/core/tcp_in.c.obj
 .bss.recv_acked
                0x00000000        0x2 CMakeFiles/nano_http_client.dir/C_/Users/yoyom/Desktop/Pico/pico-sdk/lib/lwip/src/core/tcp_in.c.obj
 .bss.recv_data
                0x00000000        0x4 CMakeFiles/nano_http_client.dir/C_/Users/yoyom/Desktop/Pico/pico-sdk/lib/lwip/src/core/tcp_in.c.obj
 .bss.seqno     0x00000000        0x4 CMakeFiles/nano_http_client.dir/C_/Users/yoyom/Desktop/Pico/pico-sdk/lib/lwip/src/core/tcp_in.c.obj
 .bss.tcp_optidx
                0x00000000        0x2 CMakeFiles/nano_http_client.dir/C_/Users/yoyom/Desktop/Pico/pico-sdk/lib/lwip/src/core/tcp_in.c.obj
 .bss.tcphdr    0x00000000        0x4 CMakeFiles/nano_http_client.dir/C_/Users/yoyom/Desktop/Pico/pico-sdk/lib/lwip/src/core/tcp_in.c.obj
 .bss.tcphdr_opt1len
                0x00000000        0x2 CMakeFiles/nano_http_client.dir/C_/Users/yoyom/Desktop/Pico/pico-sdk/lib/lwip/src/core/tcp_in.c.obj
 .bss.tcphdr_opt2
                0x00000000        0x4 CMakeFiles/nano_http_client.dir/C_/Users/yoyom/Desktop/Pico/pico-sdk/lib/lwip/src/core/tcp_in.c.obj
 .bss.tcphdr_optlen
                0x00000000        0x2 CMakeFiles/nano_http_client.dir/C_/Users/yoyom/Desktop/Pico/pico-sdk/lib/lwip/src/core/tcp_in.c.obj
 .bss.tcplen    0x00000000        0x2 CMakeFiles/nano_http_client.dir/C_/Users/yoyom/Desktop/Pico/pico-sdk/lib/lwip/src/core/tcp_in.c.obj
 .text          0x00000000        0x0 CMakeFiles/nano_http_client.dir/C_/Users/yoyom/Desktop/Pico/pico-sdk/lib/lwip/src/core/tcp_out.c.obj
 .data          0x00000000        0x0 CMakeFiles/nano_http_client.dir/C_/Users/yoyom/Desktop/Pico/pico-sdk/lib/lwip/src/core/tcp_out.c.obj
 .bss           0x00000000        0x0 CMakeFiles/nano_http_client.dir/C_/Users/yoyom/Desktop/Pico/pico-sdk/lib/lwip/src/core/tcp_out.c.obj
 .rodata.tcp_rexmit.str1.4
                0x00000000       0x18 CMakeFiles/nano_http_client.dir/C_/Users/yoyom/Desktop/Pico/pico-sdk/lib/lwip/src/core/tcp_out.c.obj
 .text.tcp_rexmit
                0x00000000       0x9c CMakeFiles/nano_http_client.dir/C_/Users/yoyom/Desktop/Pico/pico-sdk/lib/lwip/src/core/tcp_out.c.obj
 .rodata.tcp_rexmit_fast.str1.4
                0x00000000       0x1d CMakeFiles/nano_http_client.dir/C_/Users/yoyom/Desktop/Pico/pico-sdk/lib/lwip/src/core/tcp_out.c.obj
 .text.tcp_rexmit_fast
                0x00000000       0x64 CMakeFiles/nano_http_client.dir/C_/Users/yoyom/Desktop/Pico/pico-sdk/lib/lwip/src/core/tcp_out.c.obj
 .text.tcp_rst_netif
                0x00000000      0x130 CMakeFiles/nano_http_client.dir/C_/Users/yoyom/Desktop/Pico/pico-sdk/lib/lwip/src/core/tcp_out.c.obj
 .rodata.tcp_rexmit_rto.str1.4
                0x00000000       0x1c CMakeFiles/nano_http_client.dir/C_/Users/yoyom/Desktop/Pico/pico-sdk/lib/lwip/src/core/tcp_out.c.obj
 .text.tcp_rexmit_rto
                0x00000000       0xa4 CMakeFiles/nano_http_client.dir/C_/Users/yoyom/Desktop/Pico/pico-sdk/lib/lwip/src/core/tcp_out.c.obj
 .text          0x00000000        0x0 CMakeFiles/nano_http_client.dir/C_/Users/yoyom/Desktop/Pico/pico-sdk/lib/lwip/src/core/timeouts.c.obj
 .data          0x00000000        0x0 CMakeFiles/nano_http_client.dir/C_/Users/yoyom/Desktop/Pico/pico-sdk/lib/lwip/src/core/timeouts.c.obj
 .bss           0x00000000        0x0 CMakeFiles/nano_http_client.dir/C_/Users/yoyom/Desktop/Pico/pico-sdk/lib/lwip/src/core/timeouts.c.obj
 .text.lwip_cyclic_timer
                0x00000000       0x38 CMakeFiles/nano_http_client.dir/C_/Users/yoyom/Desktop/Pico/pico-sdk/lib/lwip/src/core/timeouts.c.obj
 .rodata.sys_timeouts_init.str1.4
                0x00000000       0x36 CMakeFiles/nano_http_client.dir/C_/Users/yoyom/Desktop/Pico/pico-sdk/lib/lwip/src/core/timeouts.c.obj
 .text.sys_timeouts_init
                0x00000000       0x90 CMakeFiles/nano_http_client.dir/C_/Users/yoyom/Desktop/Pico/pico-sdk/lib/lwip/src/core/timeouts.c.obj
 .text.sys_timeout
                0x00000000       0x60 CMakeFiles/nano_http_client.dir/C_/Users/yoyom/Desktop/Pico/pico-sdk/lib/lwip/src/core/timeouts.c.obj
 .text.sys_untimeout
                0x00000000       0x40 CMakeFiles/nano_http_client.dir/C_/Users/yoyom/Desktop/Pico/pico-sdk/lib/lwip/src/core/timeouts.c.obj
 .text.sys_check_timeouts
                0x00000000       0x68 CMakeFiles/nano_http_client.dir/C_/Users/yoyom/Desktop/Pico/pico-sdk/lib/lwip/src/core/timeouts.c.obj
 .text.sys_restart_timeouts
                0x00000000       0x30 CMakeFiles/nano_http_client.dir/C_/Users/yoyom/Desktop/Pico/pico-sdk/lib/lwip/src/core/timeouts.c.obj
 .text.sys_timeouts_sleeptime
                0x00000000       0x28 CMakeFiles/nano_http_client.dir/C_/Users/yoyom/Desktop/Pico/pico-sdk/lib/lwip/src/core/timeouts.c.obj
 .bss.current_timeout_due_time
                0x00000000        0x4 CMakeFiles/nano_http_client.dir/C_/Users/yoyom/Desktop/Pico/pico-sdk/lib/lwip/src/core/timeouts.c.obj
 .rodata.lwip_cyclic_timers
                0x00000000       0x30 CMakeFiles/nano_http_client.dir/C_/Users/yoyom/Desktop/Pico/pico-sdk/lib/lwip/src/core/timeouts.c.obj
 .rodata.lwip_num_cyclic_timers
                0x00000000        0x4 CMakeFiles/nano_http_client.dir/C_/Users/yoyom/Desktop/Pico/pico-sdk/lib/lwip/src/core/timeouts.c.obj
 .text          0x00000000        0x0 CMakeFiles/nano_http_client.dir/C_/Users/yoyom/Desktop/Pico/pico-sdk/lib/lwip/src/core/udp.c.obj
 .data          0x00000000        0x0 CMakeFiles/nano_http_client.dir/C_/Users/yoyom/Desktop/Pico/pico-sdk/lib/lwip/src/core/udp.c.obj
 .bss           0x00000000        0x0 CMakeFiles/nano_http_client.dir/C_/Users/yoyom/Desktop/Pico/pico-sdk/lib/lwip/src/core/udp.c.obj
 .text.udp_init
                0x00000000       0x20 CMakeFiles/nano_http_client.dir/C_/Users/yoyom/Desktop/Pico/pico-sdk/lib/lwip/src/core/udp.c.obj
 .rodata.udp_input.str1.4
                0x00000000       0x4e CMakeFiles/nano_http_client.dir/C_/Users/yoyom/Desktop/Pico/pico-sdk/lib/lwip/src/core/udp.c.obj
 .text.udp_input
                0x00000000      0x24c CMakeFiles/nano_http_client.dir/C_/Users/yoyom/Desktop/Pico/pico-sdk/lib/lwip/src/core/udp.c.obj
 .text.udp_bind
                0x00000000      0x10c CMakeFiles/nano_http_client.dir/C_/Users/yoyom/Desktop/Pico/pico-sdk/lib/lwip/src/core/udp.c.obj
 .rodata.udp_sendto_if_src.str1.4
                0x00000000       0x2e CMakeFiles/nano_http_client.dir/C_/Users/yoyom/Desktop/Pico/pico-sdk/lib/lwip/src/core/udp.c.obj
 .text.udp_sendto_if_src
                0x00000000      0x130 CMakeFiles/nano_http_client.dir/C_/Users/yoyom/Desktop/Pico/pico-sdk/lib/lwip/src/core/udp.c.obj
 .text.udp_sendto_if
                0x00000000       0x48 CMakeFiles/nano_http_client.dir/C_/Users/yoyom/Desktop/Pico/pico-sdk/lib/lwip/src/core/udp.c.obj
 .text.udp_sendto
                0x00000000       0x7c CMakeFiles/nano_http_client.dir/C_/Users/yoyom/Desktop/Pico/pico-sdk/lib/lwip/src/core/udp.c.obj
 .text.udp_send
                0x00000000       0x78 CMakeFiles/nano_http_client.dir/C_/Users/yoyom/Desktop/Pico/pico-sdk/lib/lwip/src/core/udp.c.obj
 .text.udp_bind_netif
                0x00000000       0x14 CMakeFiles/nano_http_client.dir/C_/Users/yoyom/Desktop/Pico/pico-sdk/lib/lwip/src/core/udp.c.obj
 .text.udp_connect
                0x00000000       0x64 CMakeFiles/nano_http_client.dir/C_/Users/yoyom/Desktop/Pico/pico-sdk/lib/lwip/src/core/udp.c.obj
 .text.udp_disconnect
                0x00000000       0x18 CMakeFiles/nano_http_client.dir/C_/Users/yoyom/Desktop/Pico/pico-sdk/lib/lwip/src/core/udp.c.obj
 .text.udp_recv
                0x00000000        0xc CMakeFiles/nano_http_client.dir/C_/Users/yoyom/Desktop/Pico/pico-sdk/lib/lwip/src/core/udp.c.obj
 .text.udp_remove
                0x00000000       0x3c CMakeFiles/nano_http_client.dir/C_/Users/yoyom/Desktop/Pico/pico-sdk/lib/lwip/src/core/udp.c.obj
 .text.udp_new  0x00000000       0x1c CMakeFiles/nano_http_client.dir/C_/Users/yoyom/Desktop/Pico/pico-sdk/lib/lwip/src/core/udp.c.obj
 .text.udp_new_ip_type
                0x00000000       0x1c CMakeFiles/nano_http_client.dir/C_/Users/yoyom/Desktop/Pico/pico-sdk/lib/lwip/src/core/udp.c.obj
 .text.udp_netif_ip_addr_changed
                0x00000000       0x40 CMakeFiles/nano_http_client.dir/C_/Users/yoyom/Desktop/Pico/pico-sdk/lib/lwip/src/core/udp.c.obj
 .bss.udp_pcbs  0x00000000        0x4 CMakeFiles/nano_http_client.dir/C_/Users/yoyom/Desktop/Pico/pico-sdk/lib/lwip/src/core/udp.c.obj
 .data.udp_port
                0x00000000        0x2 CMakeFiles/nano_http_client.dir/C_/Users/yoyom/Desktop/Pico/pico-sdk/lib/lwip/src/core/udp.c.obj
 .debug_info    0x00000000     0x168a CMakeFiles/nano_http_client.dir/C_/Users/yoyom/Desktop/Pico/pico-sdk/lib/lwip/src/core/udp.c.obj
 .debug_abbrev  0x00000000      0x440 CMakeFiles/nano_http_client.dir/C_/Users/yoyom/Desktop/Pico/pico-sdk/lib/lwip/src/core/udp.c.obj
 .debug_loc     0x00000000     0x1358 CMakeFiles/nano_http_client.dir/C_/Users/yoyom/Desktop/Pico/pico-sdk/lib/lwip/src/core/udp.c.obj
 .debug_aranges
                0x00000000       0x90 CMakeFiles/nano_http_client.dir/C_/Users/yoyom/Desktop/Pico/pico-sdk/lib/lwip/src/core/udp.c.obj
 .debug_ranges  0x00000000      0x148 CMakeFiles/nano_http_client.dir/C_/Users/yoyom/Desktop/Pico/pico-sdk/lib/lwip/src/core/udp.c.obj
 .debug_line    0x00000000     0x1066 CMakeFiles/nano_http_client.dir/C_/Users/yoyom/Desktop/Pico/pico-sdk/lib/lwip/src/core/udp.c.obj
 .debug_str     0x00000000      0xa18 CMakeFiles/nano_http_client.dir/C_/Users/yoyom/Desktop/Pico/pico-sdk/lib/lwip/src/core/udp.c.obj
 .comment       0x00000000       0x4a CMakeFiles/nano_http_client.dir/C_/Users/yoyom/Desktop/Pico/pico-sdk/lib/lwip/src/core/udp.c.obj
 .debug_frame   0x00000000      0x1ac CMakeFiles/nano_http_client.dir/C_/Users/yoyom/Desktop/Pico/pico-sdk/lib/lwip/src/core/udp.c.obj
 .ARM.attributes
                0x00000000       0x2c CMakeFiles/nano_http_client.dir/C_/Users/yoyom/Desktop/Pico/pico-sdk/lib/lwip/src/core/udp.c.obj
 .text          0x00000000        0x0 CMakeFiles/nano_http_client.dir/C_/Users/yoyom/Desktop/Pico/pico-sdk/lib/lwip/src/core/ipv4/autoip.c.obj
 .data          0x00000000        0x0 CMakeFiles/nano_http_client.dir/C_/Users/yoyom/Desktop/Pico/pico-sdk/lib/lwip/src/core/ipv4/autoip.c.obj
 .bss           0x00000000        0x0 CMakeFiles/nano_http_client.dir/C_/Users/yoyom/Desktop/Pico/pico-sdk/lib/lwip/src/core/ipv4/autoip.c.obj
 .debug_info    0x00000000       0x72 CMakeFiles/nano_http_client.dir/C_/Users/yoyom/Desktop/Pico/pico-sdk/lib/lwip/src/core/ipv4/autoip.c.obj
 .debug_abbrev  0x00000000       0x26 CMakeFiles/nano_http_client.dir/C_/Users/yoyom/Desktop/Pico/pico-sdk/lib/lwip/src/core/ipv4/autoip.c.obj
 .debug_aranges
                0x00000000       0x18 CMakeFiles/nano_http_client.dir/C_/Users/yoyom/Desktop/Pico/pico-sdk/lib/lwip/src/core/ipv4/autoip.c.obj
 .debug_line    0x00000000       0x1d CMakeFiles/nano_http_client.dir/C_/Users/yoyom/Desktop/Pico/pico-sdk/lib/lwip/src/core/ipv4/autoip.c.obj
 .debug_str     0x00000000      0x199 CMakeFiles/nano_http_client.dir/C_/Users/yoyom/Desktop/Pico/pico-sdk/lib/lwip/src/core/ipv4/autoip.c.obj
 .comment       0x00000000       0x4a CMakeFiles/nano_http_client.dir/C_/Users/yoyom/Desktop/Pico/pico-sdk/lib/lwip/src/core/ipv4/autoip.c.obj
 .ARM.attributes
                0x00000000       0x2c CMakeFiles/nano_http_client.dir/C_/Users/yoyom/Desktop/Pico/pico-sdk/lib/lwip/src/core/ipv4/autoip.c.obj
 .text          0x00000000        0x0 CMakeFiles/nano_http_client.dir/C_/Users/yoyom/Desktop/Pico/pico-sdk/lib/lwip/src/core/ipv4/dhcp.c.obj
 .data          0x00000000        0x0 CMakeFiles/nano_http_client.dir/C_/Users/yoyom/Desktop/Pico/pico-sdk/lib/lwip/src/core/ipv4/dhcp.c.obj
 .bss           0x00000000        0x0 CMakeFiles/nano_http_client.dir/C_/Users/yoyom/Desktop/Pico/pico-sdk/lib/lwip/src/core/ipv4/dhcp.c.obj
 .rodata.dhcp_create_msg.str1.4
                0x00000000       0x40 CMakeFiles/nano_http_client.dir/C_/Users/yoyom/Desktop/Pico/pico-sdk/lib/lwip/src/core/ipv4/dhcp.c.obj
 .text.dhcp_create_msg
                0x00000000      0x16c CMakeFiles/nano_http_client.dir/C_/Users/yoyom/Desktop/Pico/pico-sdk/lib/lwip/src/core/ipv4/dhcp.c.obj
 .rodata.dhcp_inc_pcb_refcount.str1.4
                0x00000000       0x25 CMakeFiles/nano_http_client.dir/C_/Users/yoyom/Desktop/Pico/pico-sdk/lib/lwip/src/core/ipv4/dhcp.c.obj
 .text.dhcp_inc_pcb_refcount
                0x00000000       0x6c CMakeFiles/nano_http_client.dir/C_/Users/yoyom/Desktop/Pico/pico-sdk/lib/lwip/src/core/ipv4/dhcp.c.obj
 .text.dhcp_bind
                0x00000000      0x11c CMakeFiles/nano_http_client.dir/C_/Users/yoyom/Desktop/Pico/pico-sdk/lib/lwip/src/core/ipv4/dhcp.c.obj
 .rodata.dhcp_option_hostname.isra.0.str1.4
                0x00000000       0x95 CMakeFiles/nano_http_client.dir/C_/Users/yoyom/Desktop/Pico/pico-sdk/lib/lwip/src/core/ipv4/dhcp.c.obj
 .text.dhcp_option_hostname.isra.0
                0x00000000       0x8c CMakeFiles/nano_http_client.dir/C_/Users/yoyom/Desktop/Pico/pico-sdk/lib/lwip/src/core/ipv4/dhcp.c.obj
 .text.dhcp_handle_ack.isra.0
                0x00000000       0xcc CMakeFiles/nano_http_client.dir/C_/Users/yoyom/Desktop/Pico/pico-sdk/lib/lwip/src/core/ipv4/dhcp.c.obj
 .rodata.dhcp_reboot.isra.0.str1.4
                0x00000000       0x76 CMakeFiles/nano_http_client.dir/C_/Users/yoyom/Desktop/Pico/pico-sdk/lib/lwip/src/core/ipv4/dhcp.c.obj
 .text.dhcp_reboot.isra.0
                0x00000000      0x1e4 CMakeFiles/nano_http_client.dir/C_/Users/yoyom/Desktop/Pico/pico-sdk/lib/lwip/src/core/ipv4/dhcp.c.obj
 .text.dhcp_discover
                0x00000000      0x198 CMakeFiles/nano_http_client.dir/C_/Users/yoyom/Desktop/Pico/pico-sdk/lib/lwip/src/core/ipv4/dhcp.c.obj
 .text.dhcp_select.isra.0
                0x00000000      0x268 CMakeFiles/nano_http_client.dir/C_/Users/yoyom/Desktop/Pico/pico-sdk/lib/lwip/src/core/ipv4/dhcp.c.obj
 .rodata.dhcp_recv.str1.4
                0x00000000       0x11 CMakeFiles/nano_http_client.dir/C_/Users/yoyom/Desktop/Pico/pico-sdk/lib/lwip/src/core/ipv4/dhcp.c.obj
 .text.dhcp_recv
                0x00000000      0x494 CMakeFiles/nano_http_client.dir/C_/Users/yoyom/Desktop/Pico/pico-sdk/lib/lwip/src/core/ipv4/dhcp.c.obj
 .rodata.dhcp_recv
                0x00000000      0x1e0 CMakeFiles/nano_http_client.dir/C_/Users/yoyom/Desktop/Pico/pico-sdk/lib/lwip/src/core/ipv4/dhcp.c.obj
 .rodata.dhcp_set_struct.str1.4
                0x00000000       0x44 CMakeFiles/nano_http_client.dir/C_/Users/yoyom/Desktop/Pico/pico-sdk/lib/lwip/src/core/ipv4/dhcp.c.obj
 .text.dhcp_set_struct
                0x00000000       0x44 CMakeFiles/nano_http_client.dir/C_/Users/yoyom/Desktop/Pico/pico-sdk/lib/lwip/src/core/ipv4/dhcp.c.obj
 .text.dhcp_cleanup
                0x00000000       0x28 CMakeFiles/nano_http_client.dir/C_/Users/yoyom/Desktop/Pico/pico-sdk/lib/lwip/src/core/ipv4/dhcp.c.obj
 .rodata.dhcp_inform.str1.4
                0x00000000       0x24 CMakeFiles/nano_http_client.dir/C_/Users/yoyom/Desktop/Pico/pico-sdk/lib/lwip/src/core/ipv4/dhcp.c.obj
 .text.dhcp_inform
                0x00000000       0xf4 CMakeFiles/nano_http_client.dir/C_/Users/yoyom/Desktop/Pico/pico-sdk/lib/lwip/src/core/ipv4/dhcp.c.obj
 .rodata.dhcp_network_changed_link_up.str1.4
                0x00000000       0x14 CMakeFiles/nano_http_client.dir/C_/Users/yoyom/Desktop/Pico/pico-sdk/lib/lwip/src/core/ipv4/dhcp.c.obj
 .text.dhcp_network_changed_link_up
                0x00000000       0x40 CMakeFiles/nano_http_client.dir/C_/Users/yoyom/Desktop/Pico/pico-sdk/lib/lwip/src/core/ipv4/dhcp.c.obj
 .text.dhcp_renew
                0x00000000      0x1b8 CMakeFiles/nano_http_client.dir/C_/Users/yoyom/Desktop/Pico/pico-sdk/lib/lwip/src/core/ipv4/dhcp.c.obj
 .text.dhcp_release_and_stop
                0x00000000      0x180 CMakeFiles/nano_http_client.dir/C_/Users/yoyom/Desktop/Pico/pico-sdk/lib/lwip/src/core/ipv4/dhcp.c.obj
 .text.dhcp_start
                0x00000000       0xb0 CMakeFiles/nano_http_client.dir/C_/Users/yoyom/Desktop/Pico/pico-sdk/lib/lwip/src/core/ipv4/dhcp.c.obj
 .text.dhcp_coarse_tmr
                0x00000000      0x238 CMakeFiles/nano_http_client.dir/C_/Users/yoyom/Desktop/Pico/pico-sdk/lib/lwip/src/core/ipv4/dhcp.c.obj
 .text.dhcp_fine_tmr
                0x00000000       0x78 CMakeFiles/nano_http_client.dir/C_/Users/yoyom/Desktop/Pico/pico-sdk/lib/lwip/src/core/ipv4/dhcp.c.obj
 .text.dhcp_release
                0x00000000      0x184 CMakeFiles/nano_http_client.dir/C_/Users/yoyom/Desktop/Pico/pico-sdk/lib/lwip/src/core/ipv4/dhcp.c.obj
 .text.dhcp_stop
                0x00000000      0x180 CMakeFiles/nano_http_client.dir/C_/Users/yoyom/Desktop/Pico/pico-sdk/lib/lwip/src/core/ipv4/dhcp.c.obj
 .text.dhcp_supplied_address
                0x00000000       0x28 CMakeFiles/nano_http_client.dir/C_/Users/yoyom/Desktop/Pico/pico-sdk/lib/lwip/src/core/ipv4/dhcp.c.obj
 .bss.dhcp_pcb  0x00000000        0x4 CMakeFiles/nano_http_client.dir/C_/Users/yoyom/Desktop/Pico/pico-sdk/lib/lwip/src/core/ipv4/dhcp.c.obj
 .bss.dhcp_pcb_refcount
                0x00000000        0x1 CMakeFiles/nano_http_client.dir/C_/Users/yoyom/Desktop/Pico/pico-sdk/lib/lwip/src/core/ipv4/dhcp.c.obj
 .bss.dhcp_rx_options_given
                0x00000000        0xa CMakeFiles/nano_http_client.dir/C_/Users/yoyom/Desktop/Pico/pico-sdk/lib/lwip/src/core/ipv4/dhcp.c.obj
 .bss.dhcp_rx_options_val
                0x00000000       0x28 CMakeFiles/nano_http_client.dir/C_/Users/yoyom/Desktop/Pico/pico-sdk/lib/lwip/src/core/ipv4/dhcp.c.obj
 .bss.xid.0     0x00000000        0x4 CMakeFiles/nano_http_client.dir/C_/Users/yoyom/Desktop/Pico/pico-sdk/lib/lwip/src/core/ipv4/dhcp.c.obj
 .debug_info    0x00000000     0x3db1 CMakeFiles/nano_http_client.dir/C_/Users/yoyom/Desktop/Pico/pico-sdk/lib/lwip/src/core/ipv4/dhcp.c.obj
 .debug_abbrev  0x00000000      0x4bd CMakeFiles/nano_http_client.dir/C_/Users/yoyom/Desktop/Pico/pico-sdk/lib/lwip/src/core/ipv4/dhcp.c.obj
 .debug_loc     0x00000000     0x4496 CMakeFiles/nano_http_client.dir/C_/Users/yoyom/Desktop/Pico/pico-sdk/lib/lwip/src/core/ipv4/dhcp.c.obj
 .debug_aranges
                0x00000000       0xc0 CMakeFiles/nano_http_client.dir/C_/Users/yoyom/Desktop/Pico/pico-sdk/lib/lwip/src/core/ipv4/dhcp.c.obj
 .debug_ranges  0x00000000      0xb20 CMakeFiles/nano_http_client.dir/C_/Users/yoyom/Desktop/Pico/pico-sdk/lib/lwip/src/core/ipv4/dhcp.c.obj
 .debug_line    0x00000000     0x2f74 CMakeFiles/nano_http_client.dir/C_/Users/yoyom/Desktop/Pico/pico-sdk/lib/lwip/src/core/ipv4/dhcp.c.obj
 .debug_str     0x00000000     0x10a1 CMakeFiles/nano_http_client.dir/C_/Users/yoyom/Desktop/Pico/pico-sdk/lib/lwip/src/core/ipv4/dhcp.c.obj
 .comment       0x00000000       0x4a CMakeFiles/nano_http_client.dir/C_/Users/yoyom/Desktop/Pico/pico-sdk/lib/lwip/src/core/ipv4/dhcp.c.obj
 .debug_frame   0x00000000      0x2f8 CMakeFiles/nano_http_client.dir/C_/Users/yoyom/Desktop/Pico/pico-sdk/lib/lwip/src/core/ipv4/dhcp.c.obj
 .ARM.attributes
                0x00000000       0x2c CMakeFiles/nano_http_client.dir/C_/Users/yoyom/Desktop/Pico/pico-sdk/lib/lwip/src/core/ipv4/dhcp.c.obj
 .text          0x00000000        0x0 CMakeFiles/nano_http_client.dir/C_/Users/yoyom/Desktop/Pico/pico-sdk/lib/lwip/src/core/ipv4/etharp.c.obj
 .data          0x00000000        0x0 CMakeFiles/nano_http_client.dir/C_/Users/yoyom/Desktop/Pico/pico-sdk/lib/lwip/src/core/ipv4/etharp.c.obj
 .bss           0x00000000        0x0 CMakeFiles/nano_http_client.dir/C_/Users/yoyom/Desktop/Pico/pico-sdk/lib/lwip/src/core/ipv4/etharp.c.obj
 .rodata.etharp_find_entry.str1.4
                0x00000000       0x41 CMakeFiles/nano_http_client.dir/C_/Users/yoyom/Desktop/Pico/pico-sdk/lib/lwip/src/core/ipv4/etharp.c.obj
 .text.etharp_find_entry
                0x00000000     0x1fbc CMakeFiles/nano_http_client.dir/C_/Users/yoyom/Desktop/Pico/pico-sdk/lib/lwip/src/core/ipv4/etharp.c.obj
 .rodata.etharp_raw.str1.4
                0x00000000       0x85 CMakeFiles/nano_http_client.dir/C_/Users/yoyom/Desktop/Pico/pico-sdk/lib/lwip/src/core/ipv4/etharp.c.obj
 .text.etharp_raw
                0x00000000       0xec CMakeFiles/nano_http_client.dir/C_/Users/yoyom/Desktop/Pico/pico-sdk/lib/lwip/src/core/ipv4/etharp.c.obj
 .rodata.etharp_output_to_arp_index.str1.4
                0x00000000       0x30 CMakeFiles/nano_http_client.dir/C_/Users/yoyom/Desktop/Pico/pico-sdk/lib/lwip/src/core/ipv4/etharp.c.obj
 .text.etharp_output_to_arp_index
                0x00000000       0xe4 CMakeFiles/nano_http_client.dir/C_/Users/yoyom/Desktop/Pico/pico-sdk/lib/lwip/src/core/ipv4/etharp.c.obj
 .text.etharp_tmr
                0x00000000       0x94 CMakeFiles/nano_http_client.dir/C_/Users/yoyom/Desktop/Pico/pico-sdk/lib/lwip/src/core/ipv4/etharp.c.obj
 .text.etharp_cleanup_netif
                0x00000000      0x188 CMakeFiles/nano_http_client.dir/C_/Users/yoyom/Desktop/Pico/pico-sdk/lib/lwip/src/core/ipv4/etharp.c.obj
 .rodata.etharp_find_addr.str1.4
                0x00000000       0x22 CMakeFiles/nano_http_client.dir/C_/Users/yoyom/Desktop/Pico/pico-sdk/lib/lwip/src/core/ipv4/etharp.c.obj
 .text.etharp_find_addr
                0x00000000       0x54 CMakeFiles/nano_http_client.dir/C_/Users/yoyom/Desktop/Pico/pico-sdk/lib/lwip/src/core/ipv4/etharp.c.obj
 .rodata.etharp_get_entry.str1.4
                0x00000000       0x20 CMakeFiles/nano_http_client.dir/C_/Users/yoyom/Desktop/Pico/pico-sdk/lib/lwip/src/core/ipv4/etharp.c.obj
 .text.etharp_get_entry
                0x00000000       0x60 CMakeFiles/nano_http_client.dir/C_/Users/yoyom/Desktop/Pico/pico-sdk/lib/lwip/src/core/ipv4/etharp.c.obj
 .rodata.etharp_input.str1.4
                0x00000000       0x24 CMakeFiles/nano_http_client.dir/C_/Users/yoyom/Desktop/Pico/pico-sdk/lib/lwip/src/core/ipv4/etharp.c.obj
 .text.etharp_input
                0x00000000      0x1b0 CMakeFiles/nano_http_client.dir/C_/Users/yoyom/Desktop/Pico/pico-sdk/lib/lwip/src/core/ipv4/etharp.c.obj
 .rodata.etharp_query.str1.4
                0x00000000       0x2a CMakeFiles/nano_http_client.dir/C_/Users/yoyom/Desktop/Pico/pico-sdk/lib/lwip/src/core/ipv4/etharp.c.obj
 .text.etharp_query
                0x00000000      0x1c0 CMakeFiles/nano_http_client.dir/C_/Users/yoyom/Desktop/Pico/pico-sdk/lib/lwip/src/core/ipv4/etharp.c.obj
 .rodata.etharp_output.str1.4
                0x00000000        0xa CMakeFiles/nano_http_client.dir/C_/Users/yoyom/Desktop/Pico/pico-sdk/lib/lwip/src/core/ipv4/etharp.c.obj
 .text.etharp_output
                0x00000000      0x24c CMakeFiles/nano_http_client.dir/C_/Users/yoyom/Desktop/Pico/pico-sdk/lib/lwip/src/core/ipv4/etharp.c.obj
 .text.etharp_request
                0x00000000       0x2c CMakeFiles/nano_http_client.dir/C_/Users/yoyom/Desktop/Pico/pico-sdk/lib/lwip/src/core/ipv4/etharp.c.obj
 .bss.arp_table
                0x00000000       0xf0 CMakeFiles/nano_http_client.dir/C_/Users/yoyom/Desktop/Pico/pico-sdk/lib/lwip/src/core/ipv4/etharp.c.obj
 .bss.etharp_cached_entry
                0x00000000        0x1 CMakeFiles/nano_http_client.dir/C_/Users/yoyom/Desktop/Pico/pico-sdk/lib/lwip/src/core/ipv4/etharp.c.obj
 .debug_info    0x00000000     0x199a CMakeFiles/nano_http_client.dir/C_/Users/yoyom/Desktop/Pico/pico-sdk/lib/lwip/src/core/ipv4/etharp.c.obj
 .debug_abbrev  0x00000000      0x3e8 CMakeFiles/nano_http_client.dir/C_/Users/yoyom/Desktop/Pico/pico-sdk/lib/lwip/src/core/ipv4/etharp.c.obj
 .debug_loc     0x00000000     0x66ba CMakeFiles/nano_http_client.dir/C_/Users/yoyom/Desktop/Pico/pico-sdk/lib/lwip/src/core/ipv4/etharp.c.obj
 .debug_aranges
                0x00000000       0x70 CMakeFiles/nano_http_client.dir/C_/Users/yoyom/Desktop/Pico/pico-sdk/lib/lwip/src/core/ipv4/etharp.c.obj
 .debug_ranges  0x00000000      0xc10 CMakeFiles/nano_http_client.dir/C_/Users/yoyom/Desktop/Pico/pico-sdk/lib/lwip/src/core/ipv4/etharp.c.obj
 .debug_line    0x00000000     0x3dc5 CMakeFiles/nano_http_client.dir/C_/Users/yoyom/Desktop/Pico/pico-sdk/lib/lwip/src/core/ipv4/etharp.c.obj
 .debug_str     0x00000000      0xac6 CMakeFiles/nano_http_client.dir/C_/Users/yoyom/Desktop/Pico/pico-sdk/lib/lwip/src/core/ipv4/etharp.c.obj
 .comment       0x00000000       0x4a CMakeFiles/nano_http_client.dir/C_/Users/yoyom/Desktop/Pico/pico-sdk/lib/lwip/src/core/ipv4/etharp.c.obj
 .debug_frame   0x00000000      0x1ac CMakeFiles/nano_http_client.dir/C_/Users/yoyom/Desktop/Pico/pico-sdk/lib/lwip/src/core/ipv4/etharp.c.obj
 .ARM.attributes
                0x00000000       0x2c CMakeFiles/nano_http_client.dir/C_/Users/yoyom/Desktop/Pico/pico-sdk/lib/lwip/src/core/ipv4/etharp.c.obj
 .text          0x00000000        0x0 CMakeFiles/nano_http_client.dir/C_/Users/yoyom/Desktop/Pico/pico-sdk/lib/lwip/src/core/ipv4/icmp.c.obj
 .data          0x00000000        0x0 CMakeFiles/nano_http_client.dir/C_/Users/yoyom/Desktop/Pico/pico-sdk/lib/lwip/src/core/ipv4/icmp.c.obj
 .bss           0x00000000        0x0 CMakeFiles/nano_http_client.dir/C_/Users/yoyom/Desktop/Pico/pico-sdk/lib/lwip/src/core/ipv4/icmp.c.obj
 .rodata.icmp_input.str1.4
                0x00000000       0x65 CMakeFiles/nano_http_client.dir/C_/Users/yoyom/Desktop/Pico/pico-sdk/lib/lwip/src/core/ipv4/icmp.c.obj
 .text.icmp_input
                0x00000000      0x1e8 CMakeFiles/nano_http_client.dir/C_/Users/yoyom/Desktop/Pico/pico-sdk/lib/lwip/src/core/ipv4/icmp.c.obj
 .rodata.icmp_dest_unreach.str1.4
                0x00000000       0x2c CMakeFiles/nano_http_client.dir/C_/Users/yoyom/Desktop/Pico/pico-sdk/lib/lwip/src/core/ipv4/icmp.c.obj
 .text.icmp_dest_unreach
                0x00000000       0xd0 CMakeFiles/nano_http_client.dir/C_/Users/yoyom/Desktop/Pico/pico-sdk/lib/lwip/src/core/ipv4/icmp.c.obj
 .text.icmp_time_exceeded
                0x00000000       0xd0 CMakeFiles/nano_http_client.dir/C_/Users/yoyom/Desktop/Pico/pico-sdk/lib/lwip/src/core/ipv4/icmp.c.obj
 .debug_info    0x00000000      0xecf CMakeFiles/nano_http_client.dir/C_/Users/yoyom/Desktop/Pico/pico-sdk/lib/lwip/src/core/ipv4/icmp.c.obj
 .debug_abbrev  0x00000000      0x2df CMakeFiles/nano_http_client.dir/C_/Users/yoyom/Desktop/Pico/pico-sdk/lib/lwip/src/core/ipv4/icmp.c.obj
 .debug_loc     0x00000000      0x655 CMakeFiles/nano_http_client.dir/C_/Users/yoyom/Desktop/Pico/pico-sdk/lib/lwip/src/core/ipv4/icmp.c.obj
 .debug_aranges
                0x00000000       0x30 CMakeFiles/nano_http_client.dir/C_/Users/yoyom/Desktop/Pico/pico-sdk/lib/lwip/src/core/ipv4/icmp.c.obj
 .debug_ranges  0x00000000       0xa8 CMakeFiles/nano_http_client.dir/C_/Users/yoyom/Desktop/Pico/pico-sdk/lib/lwip/src/core/ipv4/icmp.c.obj
 .debug_line    0x00000000      0x694 CMakeFiles/nano_http_client.dir/C_/Users/yoyom/Desktop/Pico/pico-sdk/lib/lwip/src/core/ipv4/icmp.c.obj
 .debug_str     0x00000000      0x77c CMakeFiles/nano_http_client.dir/C_/Users/yoyom/Desktop/Pico/pico-sdk/lib/lwip/src/core/ipv4/icmp.c.obj
 .comment       0x00000000       0x4a CMakeFiles/nano_http_client.dir/C_/Users/yoyom/Desktop/Pico/pico-sdk/lib/lwip/src/core/ipv4/icmp.c.obj
 .debug_frame   0x00000000       0x8c CMakeFiles/nano_http_client.dir/C_/Users/yoyom/Desktop/Pico/pico-sdk/lib/lwip/src/core/ipv4/icmp.c.obj
 .ARM.attributes
                0x00000000       0x2c CMakeFiles/nano_http_client.dir/C_/Users/yoyom/Desktop/Pico/pico-sdk/lib/lwip/src/core/ipv4/icmp.c.obj
 .text          0x00000000        0x0 CMakeFiles/nano_http_client.dir/C_/Users/yoyom/Desktop/Pico/pico-sdk/lib/lwip/src/core/ipv4/igmp.c.obj
 .data          0x00000000        0x0 CMakeFiles/nano_http_client.dir/C_/Users/yoyom/Desktop/Pico/pico-sdk/lib/lwip/src/core/ipv4/igmp.c.obj
 .bss           0x00000000        0x0 CMakeFiles/nano_http_client.dir/C_/Users/yoyom/Desktop/Pico/pico-sdk/lib/lwip/src/core/ipv4/igmp.c.obj
 .debug_info    0x00000000       0x72 CMakeFiles/nano_http_client.dir/C_/Users/yoyom/Desktop/Pico/pico-sdk/lib/lwip/src/core/ipv4/igmp.c.obj
 .debug_abbrev  0x00000000       0x26 CMakeFiles/nano_http_client.dir/C_/Users/yoyom/Desktop/Pico/pico-sdk/lib/lwip/src/core/ipv4/igmp.c.obj
 .debug_aranges
                0x00000000       0x18 CMakeFiles/nano_http_client.dir/C_/Users/yoyom/Desktop/Pico/pico-sdk/lib/lwip/src/core/ipv4/igmp.c.obj
 .debug_line    0x00000000       0x1d CMakeFiles/nano_http_client.dir/C_/Users/yoyom/Desktop/Pico/pico-sdk/lib/lwip/src/core/ipv4/igmp.c.obj
 .debug_str     0x00000000      0x197 CMakeFiles/nano_http_client.dir/C_/Users/yoyom/Desktop/Pico/pico-sdk/lib/lwip/src/core/ipv4/igmp.c.obj
 .comment       0x00000000       0x4a CMakeFiles/nano_http_client.dir/C_/Users/yoyom/Desktop/Pico/pico-sdk/lib/lwip/src/core/ipv4/igmp.c.obj
 .ARM.attributes
                0x00000000       0x2c CMakeFiles/nano_http_client.dir/C_/Users/yoyom/Desktop/Pico/pico-sdk/lib/lwip/src/core/ipv4/igmp.c.obj
 .text          0x00000000        0x0 CMakeFiles/nano_http_client.dir/C_/Users/yoyom/Desktop/Pico/pico-sdk/lib/lwip/src/core/ipv4/ip4_frag.c.obj
 .data          0x00000000        0x0 CMakeFiles/nano_http_client.dir/C_/Users/yoyom/Desktop/Pico/pico-sdk/lib/lwip/src/core/ipv4/ip4_frag.c.obj
 .bss           0x00000000        0x0 CMakeFiles/nano_http_client.dir/C_/Users/yoyom/Desktop/Pico/pico-sdk/lib/lwip/src/core/ipv4/ip4_frag.c.obj
 .rodata.ip_reass_free_complete_datagram.str1.4
                0x00000000       0x7e CMakeFiles/nano_http_client.dir/C_/Users/yoyom/Desktop/Pico/pico-sdk/lib/lwip/src/core/ipv4/ip4_frag.c.obj
 .text.ip_reass_free_complete_datagram
                0x00000000      0x114 CMakeFiles/nano_http_client.dir/C_/Users/yoyom/Desktop/Pico/pico-sdk/lib/lwip/src/core/ipv4/ip4_frag.c.obj
 .text.ip_reass_remove_oldest_datagram
                0x00000000       0xd8 CMakeFiles/nano_http_client.dir/C_/Users/yoyom/Desktop/Pico/pico-sdk/lib/lwip/src/core/ipv4/ip4_frag.c.obj
 .text.ip_reass_tmr
                0x00000000       0x38 CMakeFiles/nano_http_client.dir/C_/Users/yoyom/Desktop/Pico/pico-sdk/lib/lwip/src/core/ipv4/ip4_frag.c.obj
 .rodata.ip4_reass.str1.4
                0x00000000       0x4c CMakeFiles/nano_http_client.dir/C_/Users/yoyom/Desktop/Pico/pico-sdk/lib/lwip/src/core/ipv4/ip4_frag.c.obj
 .text.ip4_reass
                0x00000000      0x534 CMakeFiles/nano_http_client.dir/C_/Users/yoyom/Desktop/Pico/pico-sdk/lib/lwip/src/core/ipv4/ip4_frag.c.obj
 .bss.ip_reass_pbufcount
                0x00000000        0x2 CMakeFiles/nano_http_client.dir/C_/Users/yoyom/Desktop/Pico/pico-sdk/lib/lwip/src/core/ipv4/ip4_frag.c.obj
 .bss.reassdatagrams
                0x00000000        0x4 CMakeFiles/nano_http_client.dir/C_/Users/yoyom/Desktop/Pico/pico-sdk/lib/lwip/src/core/ipv4/ip4_frag.c.obj
 .text          0x00000000        0x0 CMakeFiles/nano_http_client.dir/C_/Users/yoyom/Desktop/Pico/pico-sdk/lib/lwip/src/core/ipv4/ip4.c.obj
 .data          0x00000000        0x0 CMakeFiles/nano_http_client.dir/C_/Users/yoyom/Desktop/Pico/pico-sdk/lib/lwip/src/core/ipv4/ip4.c.obj
 .bss           0x00000000        0x0 CMakeFiles/nano_http_client.dir/C_/Users/yoyom/Desktop/Pico/pico-sdk/lib/lwip/src/core/ipv4/ip4.c.obj
 .text.ip4_input
                0x00000000      0x2cc CMakeFiles/nano_http_client.dir/C_/Users/yoyom/Desktop/Pico/pico-sdk/lib/lwip/src/core/ipv4/ip4.c.obj
 .text.ip4_output_if_src
                0x00000000      0x17c CMakeFiles/nano_http_client.dir/C_/Users/yoyom/Desktop/Pico/pico-sdk/lib/lwip/src/core/ipv4/ip4.c.obj
 .text.ip4_output
                0x00000000      0x1b0 CMakeFiles/nano_http_client.dir/C_/Users/yoyom/Desktop/Pico/pico-sdk/lib/lwip/src/core/ipv4/ip4.c.obj
 .text          0x00000000        0x0 CMakeFiles/nano_http_client.dir/C_/Users/yoyom/Desktop/Pico/pico-sdk/lib/lwip/src/core/ipv4/ip4_addr.c.obj
 .data          0x00000000        0x0 CMakeFiles/nano_http_client.dir/C_/Users/yoyom/Desktop/Pico/pico-sdk/lib/lwip/src/core/ipv4/ip4_addr.c.obj
 .bss           0x00000000        0x0 CMakeFiles/nano_http_client.dir/C_/Users/yoyom/Desktop/Pico/pico-sdk/lib/lwip/src/core/ipv4/ip4_addr.c.obj
 .text.ip4_addr_isbroadcast_u32
                0x00000000       0x3c CMakeFiles/nano_http_client.dir/C_/Users/yoyom/Desktop/Pico/pico-sdk/lib/lwip/src/core/ipv4/ip4_addr.c.obj
 .text.ip4_addr_netmask_valid
                0x00000000       0x30 CMakeFiles/nano_http_client.dir/C_/Users/yoyom/Desktop/Pico/pico-sdk/lib/lwip/src/core/ipv4/ip4_addr.c.obj
 .text.ipaddr_addr
                0x00000000       0x1c CMakeFiles/nano_http_client.dir/C_/Users/yoyom/Desktop/Pico/pico-sdk/lib/lwip/src/core/ipv4/ip4_addr.c.obj
 .text.ip4addr_ntoa
                0x00000000       0xdc CMakeFiles/nano_http_client.dir/C_/Users/yoyom/Desktop/Pico/pico-sdk/lib/lwip/src/core/ipv4/ip4_addr.c.obj
 .text.ip4addr_ntoa_r
                0x00000000       0xd8 CMakeFiles/nano_http_client.dir/C_/Users/yoyom/Desktop/Pico/pico-sdk/lib/lwip/src/core/ipv4/ip4_addr.c.obj
 .bss.str.0     0x00000000       0x10 CMakeFiles/nano_http_client.dir/C_/Users/yoyom/Desktop/Pico/pico-sdk/lib/lwip/src/core/ipv4/ip4_addr.c.obj
 .rodata.ip_addr_any
                0x00000000        0x4 CMakeFiles/nano_http_client.dir/C_/Users/yoyom/Desktop/Pico/pico-sdk/lib/lwip/src/core/ipv4/ip4_addr.c.obj
 .rodata.ip_addr_broadcast
                0x00000000        0x4 CMakeFiles/nano_http_client.dir/C_/Users/yoyom/Desktop/Pico/pico-sdk/lib/lwip/src/core/ipv4/ip4_addr.c.obj
 .text          0x00000000        0x0 CMakeFiles/nano_http_client.dir/C_/Users/yoyom/Desktop/Pico/pico-sdk/lib/lwip/src/core/ipv4/acd.c.obj
 .data          0x00000000        0x0 CMakeFiles/nano_http_client.dir/C_/Users/yoyom/Desktop/Pico/pico-sdk/lib/lwip/src/core/ipv4/acd.c.obj
 .bss           0x00000000        0x0 CMakeFiles/nano_http_client.dir/C_/Users/yoyom/Desktop/Pico/pico-sdk/lib/lwip/src/core/ipv4/acd.c.obj
 .debug_info    0x00000000       0x72 CMakeFiles/nano_http_client.dir/C_/Users/yoyom/Desktop/Pico/pico-sdk/lib/lwip/src/core/ipv4/acd.c.obj
 .debug_abbrev  0x00000000       0x26 CMakeFiles/nano_http_client.dir/C_/Users/yoyom/Desktop/Pico/pico-sdk/lib/lwip/src/core/ipv4/acd.c.obj
 .debug_aranges
                0x00000000       0x18 CMakeFiles/nano_http_client.dir/C_/Users/yoyom/Desktop/Pico/pico-sdk/lib/lwip/src/core/ipv4/acd.c.obj
 .debug_line    0x00000000       0x1d CMakeFiles/nano_http_client.dir/C_/Users/yoyom/Desktop/Pico/pico-sdk/lib/lwip/src/core/ipv4/acd.c.obj
 .debug_str     0x00000000      0x196 CMakeFiles/nano_http_client.dir/C_/Users/yoyom/Desktop/Pico/pico-sdk/lib/lwip/src/core/ipv4/acd.c.obj
 .comment       0x00000000       0x4a CMakeFiles/nano_http_client.dir/C_/Users/yoyom/Desktop/Pico/pico-sdk/lib/lwip/src/core/ipv4/acd.c.obj
 .ARM.attributes
                0x00000000       0x2c CMakeFiles/nano_http_client.dir/C_/Users/yoyom/Desktop/Pico/pico-sdk/lib/lwip/src/core/ipv4/acd.c.obj
 .text          0x00000000        0x0 CMakeFiles/nano_http_client.dir/C_/Users/yoyom/Desktop/Pico/pico-sdk/lib/lwip/src/core/ipv6/dhcp6.c.obj
 .data          0x00000000        0x0 CMakeFiles/nano_http_client.dir/C_/Users/yoyom/Desktop/Pico/pico-sdk/lib/lwip/src/core/ipv6/dhcp6.c.obj
 .bss           0x00000000        0x0 CMakeFiles/nano_http_client.dir/C_/Users/yoyom/Desktop/Pico/pico-sdk/lib/lwip/src/core/ipv6/dhcp6.c.obj
 .debug_info    0x00000000       0x72 CMakeFiles/nano_http_client.dir/C_/Users/yoyom/Desktop/Pico/pico-sdk/lib/lwip/src/core/ipv6/dhcp6.c.obj
 .debug_abbrev  0x00000000       0x26 CMakeFiles/nano_http_client.dir/C_/Users/yoyom/Desktop/Pico/pico-sdk/lib/lwip/src/core/ipv6/dhcp6.c.obj
 .debug_aranges
                0x00000000       0x18 CMakeFiles/nano_http_client.dir/C_/Users/yoyom/Desktop/Pico/pico-sdk/lib/lwip/src/core/ipv6/dhcp6.c.obj
 .debug_line    0x00000000       0x1d CMakeFiles/nano_http_client.dir/C_/Users/yoyom/Desktop/Pico/pico-sdk/lib/lwip/src/core/ipv6/dhcp6.c.obj
 .debug_str     0x00000000      0x198 CMakeFiles/nano_http_client.dir/C_/Users/yoyom/Desktop/Pico/pico-sdk/lib/lwip/src/core/ipv6/dhcp6.c.obj
 .comment       0x00000000       0x4a CMakeFiles/nano_http_client.dir/C_/Users/yoyom/Desktop/Pico/pico-sdk/lib/lwip/src/core/ipv6/dhcp6.c.obj
 .ARM.attributes
                0x00000000       0x2c CMakeFiles/nano_http_client.dir/C_/Users/yoyom/Desktop/Pico/pico-sdk/lib/lwip/src/core/ipv6/dhcp6.c.obj
 .text          0x00000000        0x0 CMakeFiles/nano_http_client.dir/C_/Users/yoyom/Desktop/Pico/pico-sdk/lib/lwip/src/core/ipv6/ethip6.c.obj
 .data          0x00000000        0x0 CMakeFiles/nano_http_client.dir/C_/Users/yoyom/Desktop/Pico/pico-sdk/lib/lwip/src/core/ipv6/ethip6.c.obj
 .bss           0x00000000        0x0 CMakeFiles/nano_http_client.dir/C_/Users/yoyom/Desktop/Pico/pico-sdk/lib/lwip/src/core/ipv6/ethip6.c.obj
 .debug_info    0x00000000       0x72 CMakeFiles/nano_http_client.dir/C_/Users/yoyom/Desktop/Pico/pico-sdk/lib/lwip/src/core/ipv6/ethip6.c.obj
 .debug_abbrev  0x00000000       0x26 CMakeFiles/nano_http_client.dir/C_/Users/yoyom/Desktop/Pico/pico-sdk/lib/lwip/src/core/ipv6/ethip6.c.obj
 .debug_aranges
                0x00000000       0x18 CMakeFiles/nano_http_client.dir/C_/Users/yoyom/Desktop/Pico/pico-sdk/lib/lwip/src/core/ipv6/ethip6.c.obj
 .debug_line    0x00000000       0x1d CMakeFiles/nano_http_client.dir/C_/Users/yoyom/Desktop/Pico/pico-sdk/lib/lwip/src/core/ipv6/ethip6.c.obj
 .debug_str     0x00000000      0x199 CMakeFiles/nano_http_client.dir/C_/Users/yoyom/Desktop/Pico/pico-sdk/lib/lwip/src/core/ipv6/ethip6.c.obj
 .comment       0x00000000       0x4a CMakeFiles/nano_http_client.dir/C_/Users/yoyom/Desktop/Pico/pico-sdk/lib/lwip/src/core/ipv6/ethip6.c.obj
 .ARM.attributes
                0x00000000       0x2c CMakeFiles/nano_http_client.dir/C_/Users/yoyom/Desktop/Pico/pico-sdk/lib/lwip/src/core/ipv6/ethip6.c.obj
 .text          0x00000000        0x0 CMakeFiles/nano_http_client.dir/C_/Users/yoyom/Desktop/Pico/pico-sdk/lib/lwip/src/core/ipv6/icmp6.c.obj
 .data          0x00000000        0x0 CMakeFiles/nano_http_client.dir/C_/Users/yoyom/Desktop/Pico/pico-sdk/lib/lwip/src/core/ipv6/icmp6.c.obj
 .bss           0x00000000        0x0 CMakeFiles/nano_http_client.dir/C_/Users/yoyom/Desktop/Pico/pico-sdk/lib/lwip/src/core/ipv6/icmp6.c.obj
 .debug_info    0x00000000       0x72 CMakeFiles/nano_http_client.dir/C_/Users/yoyom/Desktop/Pico/pico-sdk/lib/lwip/src/core/ipv6/icmp6.c.obj
 .debug_abbrev  0x00000000       0x26 CMakeFiles/nano_http_client.dir/C_/Users/yoyom/Desktop/Pico/pico-sdk/lib/lwip/src/core/ipv6/icmp6.c.obj
 .debug_aranges
                0x00000000       0x18 CMakeFiles/nano_http_client.dir/C_/Users/yoyom/Desktop/Pico/pico-sdk/lib/lwip/src/core/ipv6/icmp6.c.obj
 .debug_line    0x00000000       0x1d CMakeFiles/nano_http_client.dir/C_/Users/yoyom/Desktop/Pico/pico-sdk/lib/lwip/src/core/ipv6/icmp6.c.obj
 .debug_str     0x00000000      0x198 CMakeFiles/nano_http_client.dir/C_/Users/yoyom/Desktop/Pico/pico-sdk/lib/lwip/src/core/ipv6/icmp6.c.obj
 .comment       0x00000000       0x4a CMakeFiles/nano_http_client.dir/C_/Users/yoyom/Desktop/Pico/pico-sdk/lib/lwip/src/core/ipv6/icmp6.c.obj
 .ARM.attributes
                0x00000000       0x2c CMakeFiles/nano_http_client.dir/C_/Users/yoyom/Desktop/Pico/pico-sdk/lib/lwip/src/core/ipv6/icmp6.c.obj
 .text          0x00000000        0x0 CMakeFiles/nano_http_client.dir/C_/Users/yoyom/Desktop/Pico/pico-sdk/lib/lwip/src/core/ipv6/inet6.c.obj
 .data          0x00000000        0x0 CMakeFiles/nano_http_client.dir/C_/Users/yoyom/Desktop/Pico/pico-sdk/lib/lwip/src/core/ipv6/inet6.c.obj
 .bss           0x00000000        0x0 CMakeFiles/nano_http_client.dir/C_/Users/yoyom/Desktop/Pico/pico-sdk/lib/lwip/src/core/ipv6/inet6.c.obj
 .debug_info    0x00000000       0x72 CMakeFiles/nano_http_client.dir/C_/Users/yoyom/Desktop/Pico/pico-sdk/lib/lwip/src/core/ipv6/inet6.c.obj
 .debug_abbrev  0x00000000       0x26 CMakeFiles/nano_http_client.dir/C_/Users/yoyom/Desktop/Pico/pico-sdk/lib/lwip/src/core/ipv6/inet6.c.obj
 .debug_aranges
                0x00000000       0x18 CMakeFiles/nano_http_client.dir/C_/Users/yoyom/Desktop/Pico/pico-sdk/lib/lwip/src/core/ipv6/inet6.c.obj
 .debug_line    0x00000000       0x1d CMakeFiles/nano_http_client.dir/C_/Users/yoyom/Desktop/Pico/pico-sdk/lib/lwip/src/core/ipv6/inet6.c.obj
 .debug_str     0x00000000      0x198 CMakeFiles/nano_http_client.dir/C_/Users/yoyom/Desktop/Pico/pico-sdk/lib/lwip/src/core/ipv6/inet6.c.obj
 .comment       0x00000000       0x4a CMakeFiles/nano_http_client.dir/C_/Users/yoyom/Desktop/Pico/pico-sdk/lib/lwip/src/core/ipv6/inet6.c.obj
 .ARM.attributes
                0x00000000       0x2c CMakeFiles/nano_http_client.dir/C_/Users/yoyom/Desktop/Pico/pico-sdk/lib/lwip/src/core/ipv6/inet6.c.obj
 .text          0x00000000        0x0 CMakeFiles/nano_http_client.dir/C_/Users/yoyom/Desktop/Pico/pico-sdk/lib/lwip/src/core/ipv6/ip6.c.obj
 .data          0x00000000        0x0 CMakeFiles/nano_http_client.dir/C_/Users/yoyom/Desktop/Pico/pico-sdk/lib/lwip/src/core/ipv6/ip6.c.obj
 .bss           0x00000000        0x0 CMakeFiles/nano_http_client.dir/C_/Users/yoyom/Desktop/Pico/pico-sdk/lib/lwip/src/core/ipv6/ip6.c.obj
 .debug_info    0x00000000       0x72 CMakeFiles/nano_http_client.dir/C_/Users/yoyom/Desktop/Pico/pico-sdk/lib/lwip/src/core/ipv6/ip6.c.obj
 .debug_abbrev  0x00000000       0x26 CMakeFiles/nano_http_client.dir/C_/Users/yoyom/Desktop/Pico/pico-sdk/lib/lwip/src/core/ipv6/ip6.c.obj
 .debug_aranges
                0x00000000       0x18 CMakeFiles/nano_http_client.dir/C_/Users/yoyom/Desktop/Pico/pico-sdk/lib/lwip/src/core/ipv6/ip6.c.obj
 .debug_line    0x00000000       0x1d CMakeFiles/nano_http_client.dir/C_/Users/yoyom/Desktop/Pico/pico-sdk/lib/lwip/src/core/ipv6/ip6.c.obj
 .debug_str     0x00000000      0x196 CMakeFiles/nano_http_client.dir/C_/Users/yoyom/Desktop/Pico/pico-sdk/lib/lwip/src/core/ipv6/ip6.c.obj
 .comment       0x00000000       0x4a CMakeFiles/nano_http_client.dir/C_/Users/yoyom/Desktop/Pico/pico-sdk/lib/lwip/src/core/ipv6/ip6.c.obj
 .ARM.attributes
                0x00000000       0x2c CMakeFiles/nano_http_client.dir/C_/Users/yoyom/Desktop/Pico/pico-sdk/lib/lwip/src/core/ipv6/ip6.c.obj
 .text          0x00000000        0x0 CMakeFiles/nano_http_client.dir/C_/Users/yoyom/Desktop/Pico/pico-sdk/lib/lwip/src/core/ipv6/ip6_addr.c.obj
 .data          0x00000000        0x0 CMakeFiles/nano_http_client.dir/C_/Users/yoyom/Desktop/Pico/pico-sdk/lib/lwip/src/core/ipv6/ip6_addr.c.obj
 .bss           0x00000000        0x0 CMakeFiles/nano_http_client.dir/C_/Users/yoyom/Desktop/Pico/pico-sdk/lib/lwip/src/core/ipv6/ip6_addr.c.obj
 .debug_info    0x00000000       0x72 CMakeFiles/nano_http_client.dir/C_/Users/yoyom/Desktop/Pico/pico-sdk/lib/lwip/src/core/ipv6/ip6_addr.c.obj
 .debug_abbrev  0x00000000       0x26 CMakeFiles/nano_http_client.dir/C_/Users/yoyom/Desktop/Pico/pico-sdk/lib/lwip/src/core/ipv6/ip6_addr.c.obj
 .debug_aranges
                0x00000000       0x18 CMakeFiles/nano_http_client.dir/C_/Users/yoyom/Desktop/Pico/pico-sdk/lib/lwip/src/core/ipv6/ip6_addr.c.obj
 .debug_line    0x00000000       0x1d CMakeFiles/nano_http_client.dir/C_/Users/yoyom/Desktop/Pico/pico-sdk/lib/lwip/src/core/ipv6/ip6_addr.c.obj
 .debug_str     0x00000000      0x19b CMakeFiles/nano_http_client.dir/C_/Users/yoyom/Desktop/Pico/pico-sdk/lib/lwip/src/core/ipv6/ip6_addr.c.obj
 .comment       0x00000000       0x4a CMakeFiles/nano_http_client.dir/C_/Users/yoyom/Desktop/Pico/pico-sdk/lib/lwip/src/core/ipv6/ip6_addr.c.obj
 .ARM.attributes
                0x00000000       0x2c CMakeFiles/nano_http_client.dir/C_/Users/yoyom/Desktop/Pico/pico-sdk/lib/lwip/src/core/ipv6/ip6_addr.c.obj
 .text          0x00000000        0x0 CMakeFiles/nano_http_client.dir/C_/Users/yoyom/Desktop/Pico/pico-sdk/lib/lwip/src/core/ipv6/ip6_frag.c.obj
 .data          0x00000000        0x0 CMakeFiles/nano_http_client.dir/C_/Users/yoyom/Desktop/Pico/pico-sdk/lib/lwip/src/core/ipv6/ip6_frag.c.obj
 .bss           0x00000000        0x0 CMakeFiles/nano_http_client.dir/C_/Users/yoyom/Desktop/Pico/pico-sdk/lib/lwip/src/core/ipv6/ip6_frag.c.obj
 .debug_info    0x00000000       0x72 CMakeFiles/nano_http_client.dir/C_/Users/yoyom/Desktop/Pico/pico-sdk/lib/lwip/src/core/ipv6/ip6_frag.c.obj
 .debug_abbrev  0x00000000       0x26 CMakeFiles/nano_http_client.dir/C_/Users/yoyom/Desktop/Pico/pico-sdk/lib/lwip/src/core/ipv6/ip6_frag.c.obj
 .debug_aranges
                0x00000000       0x18 CMakeFiles/nano_http_client.dir/C_/Users/yoyom/Desktop/Pico/pico-sdk/lib/lwip/src/core/ipv6/ip6_frag.c.obj
 .debug_line    0x00000000       0x1d CMakeFiles/nano_http_client.dir/C_/Users/yoyom/Desktop/Pico/pico-sdk/lib/lwip/src/core/ipv6/ip6_frag.c.obj
 .debug_str     0x00000000      0x19b CMakeFiles/nano_http_client.dir/C_/Users/yoyom/Desktop/Pico/pico-sdk/lib/lwip/src/core/ipv6/ip6_frag.c.obj
 .comment       0x00000000       0x4a CMakeFiles/nano_http_client.dir/C_/Users/yoyom/Desktop/Pico/pico-sdk/lib/lwip/src/core/ipv6/ip6_frag.c.obj
 .ARM.attributes
                0x00000000       0x2c CMakeFiles/nano_http_client.dir/C_/Users/yoyom/Desktop/Pico/pico-sdk/lib/lwip/src/core/ipv6/ip6_frag.c.obj
 .text          0x00000000        0x0 CMakeFiles/nano_http_client.dir/C_/Users/yoyom/Desktop/Pico/pico-sdk/lib/lwip/src/core/ipv6/mld6.c.obj
 .data          0x00000000        0x0 CMakeFiles/nano_http_client.dir/C_/Users/yoyom/Desktop/Pico/pico-sdk/lib/lwip/src/core/ipv6/mld6.c.obj
 .bss           0x00000000        0x0 CMakeFiles/nano_http_client.dir/C_/Users/yoyom/Desktop/Pico/pico-sdk/lib/lwip/src/core/ipv6/mld6.c.obj
 .debug_info    0x00000000       0x72 CMakeFiles/nano_http_client.dir/C_/Users/yoyom/Desktop/Pico/pico-sdk/lib/lwip/src/core/ipv6/mld6.c.obj
 .debug_abbrev  0x00000000       0x26 CMakeFiles/nano_http_client.dir/C_/Users/yoyom/Desktop/Pico/pico-sdk/lib/lwip/src/core/ipv6/mld6.c.obj
 .debug_aranges
                0x00000000       0x18 CMakeFiles/nano_http_client.dir/C_/Users/yoyom/Desktop/Pico/pico-sdk/lib/lwip/src/core/ipv6/mld6.c.obj
 .debug_line    0x00000000       0x1d CMakeFiles/nano_http_client.dir/C_/Users/yoyom/Desktop/Pico/pico-sdk/lib/lwip/src/core/ipv6/mld6.c.obj
 .debug_str     0x00000000      0x197 CMakeFiles/nano_http_client.dir/C_/Users/yoyom/Desktop/Pico/pico-sdk/lib/lwip/src/core/ipv6/mld6.c.obj
 .comment       0x00000000       0x4a CMakeFiles/nano_http_client.dir/C_/Users/yoyom/Desktop/Pico/pico-sdk/lib/lwip/src/core/ipv6/mld6.c.obj
 .ARM.attributes
                0x00000000       0x2c CMakeFiles/nano_http_client.dir/C_/Users/yoyom/Desktop/Pico/pico-sdk/lib/lwip/src/core/ipv6/mld6.c.obj
 .text          0x00000000        0x0 CMakeFiles/nano_http_client.dir/C_/Users/yoyom/Desktop/Pico/pico-sdk/lib/lwip/src/core/ipv6/nd6.c.obj
 .data          0x00000000        0x0 CMakeFiles/nano_http_client.dir/C_/Users/yoyom/Desktop/Pico/pico-sdk/lib/lwip/src/core/ipv6/nd6.c.obj
 .bss           0x00000000        0x0 CMakeFiles/nano_http_client.dir/C_/Users/yoyom/Desktop/Pico/pico-sdk/lib/lwip/src/core/ipv6/nd6.c.obj
 .debug_info    0x00000000       0x72 CMakeFiles/nano_http_client.dir/C_/Users/yoyom/Desktop/Pico/pico-sdk/lib/lwip/src/core/ipv6/nd6.c.obj
 .debug_abbrev  0x00000000       0x26 CMakeFiles/nano_http_client.dir/C_/Users/yoyom/Desktop/Pico/pico-sdk/lib/lwip/src/core/ipv6/nd6.c.obj
 .debug_aranges
                0x00000000       0x18 CMakeFiles/nano_http_client.dir/C_/Users/yoyom/Desktop/Pico/pico-sdk/lib/lwip/src/core/ipv6/nd6.c.obj
 .debug_line    0x00000000       0x1d CMakeFiles/nano_http_client.dir/C_/Users/yoyom/Desktop/Pico/pico-sdk/lib/lwip/src/core/ipv6/nd6.c.obj
 .debug_str     0x00000000      0x196 CMakeFiles/nano_http_client.dir/C_/Users/yoyom/Desktop/Pico/pico-sdk/lib/lwip/src/core/ipv6/nd6.c.obj
 .comment       0x00000000       0x4a CMakeFiles/nano_http_client.dir/C_/Users/yoyom/Desktop/Pico/pico-sdk/lib/lwip/src/core/ipv6/nd6.c.obj
 .ARM.attributes
                0x00000000       0x2c CMakeFiles/nano_http_client.dir/C_/Users/yoyom/Desktop/Pico/pico-sdk/lib/lwip/src/core/ipv6/nd6.c.obj
 .text          0x00000000        0x0 CMakeFiles/nano_http_client.dir/C_/Users/yoyom/Desktop/Pico/pico-sdk/lib/lwip/src/api/api_lib.c.obj
 .data          0x00000000        0x0 CMakeFiles/nano_http_client.dir/C_/Users/yoyom/Desktop/Pico/pico-sdk/lib/lwip/src/api/api_lib.c.obj
 .bss           0x00000000        0x0 CMakeFiles/nano_http_client.dir/C_/Users/yoyom/Desktop/Pico/pico-sdk/lib/lwip/src/api/api_lib.c.obj
 .debug_info    0x00000000       0x72 CMakeFiles/nano_http_client.dir/C_/Users/yoyom/Desktop/Pico/pico-sdk/lib/lwip/src/api/api_lib.c.obj
 .debug_abbrev  0x00000000       0x26 CMakeFiles/nano_http_client.dir/C_/Users/yoyom/Desktop/Pico/pico-sdk/lib/lwip/src/api/api_lib.c.obj
 .debug_aranges
                0x00000000       0x18 CMakeFiles/nano_http_client.dir/C_/Users/yoyom/Desktop/Pico/pico-sdk/lib/lwip/src/api/api_lib.c.obj
 .debug_line    0x00000000       0x1d CMakeFiles/nano_http_client.dir/C_/Users/yoyom/Desktop/Pico/pico-sdk/lib/lwip/src/api/api_lib.c.obj
 .debug_str     0x00000000      0x194 CMakeFiles/nano_http_client.dir/C_/Users/yoyom/Desktop/Pico/pico-sdk/lib/lwip/src/api/api_lib.c.obj
 .comment       0x00000000       0x4a CMakeFiles/nano_http_client.dir/C_/Users/yoyom/Desktop/Pico/pico-sdk/lib/lwip/src/api/api_lib.c.obj
 .ARM.attributes
                0x00000000       0x2c CMakeFiles/nano_http_client.dir/C_/Users/yoyom/Desktop/Pico/pico-sdk/lib/lwip/src/api/api_lib.c.obj
 .text          0x00000000        0x0 CMakeFiles/nano_http_client.dir/C_/Users/yoyom/Desktop/Pico/pico-sdk/lib/lwip/src/api/api_msg.c.obj
 .data          0x00000000        0x0 CMakeFiles/nano_http_client.dir/C_/Users/yoyom/Desktop/Pico/pico-sdk/lib/lwip/src/api/api_msg.c.obj
 .bss           0x00000000        0x0 CMakeFiles/nano_http_client.dir/C_/Users/yoyom/Desktop/Pico/pico-sdk/lib/lwip/src/api/api_msg.c.obj
 .debug_info    0x00000000       0x72 CMakeFiles/nano_http_client.dir/C_/Users/yoyom/Desktop/Pico/pico-sdk/lib/lwip/src/api/api_msg.c.obj
 .debug_abbrev  0x00000000       0x26 CMakeFiles/nano_http_client.dir/C_/Users/yoyom/Desktop/Pico/pico-sdk/lib/lwip/src/api/api_msg.c.obj
 .debug_aranges
                0x00000000       0x18 CMakeFiles/nano_http_client.dir/C_/Users/yoyom/Desktop/Pico/pico-sdk/lib/lwip/src/api/api_msg.c.obj
 .debug_line    0x00000000       0x1d CMakeFiles/nano_http_client.dir/C_/Users/yoyom/Desktop/Pico/pico-sdk/lib/lwip/src/api/api_msg.c.obj
 .debug_str     0x00000000      0x194 CMakeFiles/nano_http_client.dir/C_/Users/yoyom/Desktop/Pico/pico-sdk/lib/lwip/src/api/api_msg.c.obj
 .comment       0x00000000       0x4a CMakeFiles/nano_http_client.dir/C_/Users/yoyom/Desktop/Pico/pico-sdk/lib/lwip/src/api/api_msg.c.obj
 .ARM.attributes
                0x00000000       0x2c CMakeFiles/nano_http_client.dir/C_/Users/yoyom/Desktop/Pico/pico-sdk/lib/lwip/src/api/api_msg.c.obj
 .text          0x00000000        0x0 CMakeFiles/nano_http_client.dir/C_/Users/yoyom/Desktop/Pico/pico-sdk/lib/lwip/src/api/err.c.obj
 .data          0x00000000        0x0 CMakeFiles/nano_http_client.dir/C_/Users/yoyom/Desktop/Pico/pico-sdk/lib/lwip/src/api/err.c.obj
 .bss           0x00000000        0x0 CMakeFiles/nano_http_client.dir/C_/Users/yoyom/Desktop/Pico/pico-sdk/lib/lwip/src/api/err.c.obj
 .debug_info    0x00000000       0x72 CMakeFiles/nano_http_client.dir/C_/Users/yoyom/Desktop/Pico/pico-sdk/lib/lwip/src/api/err.c.obj
 .debug_abbrev  0x00000000       0x26 CMakeFiles/nano_http_client.dir/C_/Users/yoyom/Desktop/Pico/pico-sdk/lib/lwip/src/api/err.c.obj
 .debug_aranges
                0x00000000       0x18 CMakeFiles/nano_http_client.dir/C_/Users/yoyom/Desktop/Pico/pico-sdk/lib/lwip/src/api/err.c.obj
 .debug_line    0x00000000       0x1d CMakeFiles/nano_http_client.dir/C_/Users/yoyom/Desktop/Pico/pico-sdk/lib/lwip/src/api/err.c.obj
 .debug_str     0x00000000      0x190 CMakeFiles/nano_http_client.dir/C_/Users/yoyom/Desktop/Pico/pico-sdk/lib/lwip/src/api/err.c.obj
 .comment       0x00000000       0x4a CMakeFiles/nano_http_client.dir/C_/Users/yoyom/Desktop/Pico/pico-sdk/lib/lwip/src/api/err.c.obj
 .ARM.attributes
                0x00000000       0x2c CMakeFiles/nano_http_client.dir/C_/Users/yoyom/Desktop/Pico/pico-sdk/lib/lwip/src/api/err.c.obj
 .text          0x00000000        0x0 CMakeFiles/nano_http_client.dir/C_/Users/yoyom/Desktop/Pico/pico-sdk/lib/lwip/src/api/if_api.c.obj
 .data          0x00000000        0x0 CMakeFiles/nano_http_client.dir/C_/Users/yoyom/Desktop/Pico/pico-sdk/lib/lwip/src/api/if_api.c.obj
 .bss           0x00000000        0x0 CMakeFiles/nano_http_client.dir/C_/Users/yoyom/Desktop/Pico/pico-sdk/lib/lwip/src/api/if_api.c.obj
 .debug_info    0x00000000       0x72 CMakeFiles/nano_http_client.dir/C_/Users/yoyom/Desktop/Pico/pico-sdk/lib/lwip/src/api/if_api.c.obj
 .debug_abbrev  0x00000000       0x26 CMakeFiles/nano_http_client.dir/C_/Users/yoyom/Desktop/Pico/pico-sdk/lib/lwip/src/api/if_api.c.obj
 .debug_aranges
                0x00000000       0x18 CMakeFiles/nano_http_client.dir/C_/Users/yoyom/Desktop/Pico/pico-sdk/lib/lwip/src/api/if_api.c.obj
 .debug_line    0x00000000       0x1d CMakeFiles/nano_http_client.dir/C_/Users/yoyom/Desktop/Pico/pico-sdk/lib/lwip/src/api/if_api.c.obj
 .debug_str     0x00000000      0x193 CMakeFiles/nano_http_client.dir/C_/Users/yoyom/Desktop/Pico/pico-sdk/lib/lwip/src/api/if_api.c.obj
 .comment       0x00000000       0x4a CMakeFiles/nano_http_client.dir/C_/Users/yoyom/Desktop/Pico/pico-sdk/lib/lwip/src/api/if_api.c.obj
 .ARM.attributes
                0x00000000       0x2c CMakeFiles/nano_http_client.dir/C_/Users/yoyom/Desktop/Pico/pico-sdk/lib/lwip/src/api/if_api.c.obj
 .text          0x00000000        0x0 CMakeFiles/nano_http_client.dir/C_/Users/yoyom/Desktop/Pico/pico-sdk/lib/lwip/src/api/netbuf.c.obj
 .data          0x00000000        0x0 CMakeFiles/nano_http_client.dir/C_/Users/yoyom/Desktop/Pico/pico-sdk/lib/lwip/src/api/netbuf.c.obj
 .bss           0x00000000        0x0 CMakeFiles/nano_http_client.dir/C_/Users/yoyom/Desktop/Pico/pico-sdk/lib/lwip/src/api/netbuf.c.obj
 .debug_info    0x00000000       0x72 CMakeFiles/nano_http_client.dir/C_/Users/yoyom/Desktop/Pico/pico-sdk/lib/lwip/src/api/netbuf.c.obj
 .debug_abbrev  0x00000000       0x26 CMakeFiles/nano_http_client.dir/C_/Users/yoyom/Desktop/Pico/pico-sdk/lib/lwip/src/api/netbuf.c.obj
 .debug_aranges
                0x00000000       0x18 CMakeFiles/nano_http_client.dir/C_/Users/yoyom/Desktop/Pico/pico-sdk/lib/lwip/src/api/netbuf.c.obj
 .debug_line    0x00000000       0x1d CMakeFiles/nano_http_client.dir/C_/Users/yoyom/Desktop/Pico/pico-sdk/lib/lwip/src/api/netbuf.c.obj
 .debug_str     0x00000000      0x193 CMakeFiles/nano_http_client.dir/C_/Users/yoyom/Desktop/Pico/pico-sdk/lib/lwip/src/api/netbuf.c.obj
 .comment       0x00000000       0x4a CMakeFiles/nano_http_client.dir/C_/Users/yoyom/Desktop/Pico/pico-sdk/lib/lwip/src/api/netbuf.c.obj
 .ARM.attributes
                0x00000000       0x2c CMakeFiles/nano_http_client.dir/C_/Users/yoyom/Desktop/Pico/pico-sdk/lib/lwip/src/api/netbuf.c.obj
 .text          0x00000000        0x0 CMakeFiles/nano_http_client.dir/C_/Users/yoyom/Desktop/Pico/pico-sdk/lib/lwip/src/api/netdb.c.obj
 .data          0x00000000        0x0 CMakeFiles/nano_http_client.dir/C_/Users/yoyom/Desktop/Pico/pico-sdk/lib/lwip/src/api/netdb.c.obj
 .bss           0x00000000        0x0 CMakeFiles/nano_http_client.dir/C_/Users/yoyom/Desktop/Pico/pico-sdk/lib/lwip/src/api/netdb.c.obj
 .debug_info    0x00000000       0x72 CMakeFiles/nano_http_client.dir/C_/Users/yoyom/Desktop/Pico/pico-sdk/lib/lwip/src/api/netdb.c.obj
 .debug_abbrev  0x00000000       0x26 CMakeFiles/nano_http_client.dir/C_/Users/yoyom/Desktop/Pico/pico-sdk/lib/lwip/src/api/netdb.c.obj
 .debug_aranges
                0x00000000       0x18 CMakeFiles/nano_http_client.dir/C_/Users/yoyom/Desktop/Pico/pico-sdk/lib/lwip/src/api/netdb.c.obj
 .debug_line    0x00000000       0x1d CMakeFiles/nano_http_client.dir/C_/Users/yoyom/Desktop/Pico/pico-sdk/lib/lwip/src/api/netdb.c.obj
 .debug_str     0x00000000      0x192 CMakeFiles/nano_http_client.dir/C_/Users/yoyom/Desktop/Pico/pico-sdk/lib/lwip/src/api/netdb.c.obj
 .comment       0x00000000       0x4a CMakeFiles/nano_http_client.dir/C_/Users/yoyom/Desktop/Pico/pico-sdk/lib/lwip/src/api/netdb.c.obj
 .ARM.attributes
                0x00000000       0x2c CMakeFiles/nano_http_client.dir/C_/Users/yoyom/Desktop/Pico/pico-sdk/lib/lwip/src/api/netdb.c.obj
 .text          0x00000000        0x0 CMakeFiles/nano_http_client.dir/C_/Users/yoyom/Desktop/Pico/pico-sdk/lib/lwip/src/api/netifapi.c.obj
 .data          0x00000000        0x0 CMakeFiles/nano_http_client.dir/C_/Users/yoyom/Desktop/Pico/pico-sdk/lib/lwip/src/api/netifapi.c.obj
 .bss           0x00000000        0x0 CMakeFiles/nano_http_client.dir/C_/Users/yoyom/Desktop/Pico/pico-sdk/lib/lwip/src/api/netifapi.c.obj
 .debug_info    0x00000000       0x72 CMakeFiles/nano_http_client.dir/C_/Users/yoyom/Desktop/Pico/pico-sdk/lib/lwip/src/api/netifapi.c.obj
 .debug_abbrev  0x00000000       0x26 CMakeFiles/nano_http_client.dir/C_/Users/yoyom/Desktop/Pico/pico-sdk/lib/lwip/src/api/netifapi.c.obj
 .debug_aranges
                0x00000000       0x18 CMakeFiles/nano_http_client.dir/C_/Users/yoyom/Desktop/Pico/pico-sdk/lib/lwip/src/api/netifapi.c.obj
 .debug_line    0x00000000       0x1d CMakeFiles/nano_http_client.dir/C_/Users/yoyom/Desktop/Pico/pico-sdk/lib/lwip/src/api/netifapi.c.obj
 .debug_str     0x00000000      0x195 CMakeFiles/nano_http_client.dir/C_/Users/yoyom/Desktop/Pico/pico-sdk/lib/lwip/src/api/netifapi.c.obj
 .comment       0x00000000       0x4a CMakeFiles/nano_http_client.dir/C_/Users/yoyom/Desktop/Pico/pico-sdk/lib/lwip/src/api/netifapi.c.obj
 .ARM.attributes
                0x00000000       0x2c CMakeFiles/nano_http_client.dir/C_/Users/yoyom/Desktop/Pico/pico-sdk/lib/lwip/src/api/netifapi.c.obj
 .text          0x00000000        0x0 CMakeFiles/nano_http_client.dir/C_/Users/yoyom/Desktop/Pico/pico-sdk/lib/lwip/src/api/sockets.c.obj
 .data          0x00000000        0x0 CMakeFiles/nano_http_client.dir/C_/Users/yoyom/Desktop/Pico/pico-sdk/lib/lwip/src/api/sockets.c.obj
 .bss           0x00000000        0x0 CMakeFiles/nano_http_client.dir/C_/Users/yoyom/Desktop/Pico/pico-sdk/lib/lwip/src/api/sockets.c.obj
 .debug_info    0x00000000       0x72 CMakeFiles/nano_http_client.dir/C_/Users/yoyom/Desktop/Pico/pico-sdk/lib/lwip/src/api/sockets.c.obj
 .debug_abbrev  0x00000000       0x26 CMakeFiles/nano_http_client.dir/C_/Users/yoyom/Desktop/Pico/pico-sdk/lib/lwip/src/api/sockets.c.obj
 .debug_aranges
                0x00000000       0x18 CMakeFiles/nano_http_client.dir/C_/Users/yoyom/Desktop/Pico/pico-sdk/lib/lwip/src/api/sockets.c.obj
 .debug_line    0x00000000       0x1d CMakeFiles/nano_http_client.dir/C_/Users/yoyom/Desktop/Pico/pico-sdk/lib/lwip/src/api/sockets.c.obj
 .debug_str     0x00000000      0x194 CMakeFiles/nano_http_client.dir/C_/Users/yoyom/Desktop/Pico/pico-sdk/lib/lwip/src/api/sockets.c.obj
 .comment       0x00000000       0x4a CMakeFiles/nano_http_client.dir/C_/Users/yoyom/Desktop/Pico/pico-sdk/lib/lwip/src/api/sockets.c.obj
 .ARM.attributes
                0x00000000       0x2c CMakeFiles/nano_http_client.dir/C_/Users/yoyom/Desktop/Pico/pico-sdk/lib/lwip/src/api/sockets.c.obj
 .text          0x00000000        0x0 CMakeFiles/nano_http_client.dir/C_/Users/yoyom/Desktop/Pico/pico-sdk/lib/lwip/src/api/tcpip.c.obj
 .data          0x00000000        0x0 CMakeFiles/nano_http_client.dir/C_/Users/yoyom/Desktop/Pico/pico-sdk/lib/lwip/src/api/tcpip.c.obj
 .bss           0x00000000        0x0 CMakeFiles/nano_http_client.dir/C_/Users/yoyom/Desktop/Pico/pico-sdk/lib/lwip/src/api/tcpip.c.obj
 .debug_info    0x00000000       0x72 CMakeFiles/nano_http_client.dir/C_/Users/yoyom/Desktop/Pico/pico-sdk/lib/lwip/src/api/tcpip.c.obj
 .debug_abbrev  0x00000000       0x26 CMakeFiles/nano_http_client.dir/C_/Users/yoyom/Desktop/Pico/pico-sdk/lib/lwip/src/api/tcpip.c.obj
 .debug_aranges
                0x00000000       0x18 CMakeFiles/nano_http_client.dir/C_/Users/yoyom/Desktop/Pico/pico-sdk/lib/lwip/src/api/tcpip.c.obj
 .debug_line    0x00000000       0x1d CMakeFiles/nano_http_client.dir/C_/Users/yoyom/Desktop/Pico/pico-sdk/lib/lwip/src/api/tcpip.c.obj
 .debug_str     0x00000000      0x192 CMakeFiles/nano_http_client.dir/C_/Users/yoyom/Desktop/Pico/pico-sdk/lib/lwip/src/api/tcpip.c.obj
 .comment       0x00000000       0x4a CMakeFiles/nano_http_client.dir/C_/Users/yoyom/Desktop/Pico/pico-sdk/lib/lwip/src/api/tcpip.c.obj
 .ARM.attributes
                0x00000000       0x2c CMakeFiles/nano_http_client.dir/C_/Users/yoyom/Desktop/Pico/pico-sdk/lib/lwip/src/api/tcpip.c.obj
 .text          0x00000000        0x0 CMakeFiles/nano_http_client.dir/C_/Users/yoyom/Desktop/Pico/pico-sdk/lib/lwip/src/netif/ethernet.c.obj
 .data          0x00000000        0x0 CMakeFiles/nano_http_client.dir/C_/Users/yoyom/Desktop/Pico/pico-sdk/lib/lwip/src/netif/ethernet.c.obj
 .bss           0x00000000        0x0 CMakeFiles/nano_http_client.dir/C_/Users/yoyom/Desktop/Pico/pico-sdk/lib/lwip/src/netif/ethernet.c.obj
 .text.ethernet_input
                0x00000000       0xd4 CMakeFiles/nano_http_client.dir/C_/Users/yoyom/Desktop/Pico/pico-sdk/lib/lwip/src/netif/ethernet.c.obj
 .rodata.ethernet_output.str1.4
                0x00000000       0x31 CMakeFiles/nano_http_client.dir/C_/Users/yoyom/Desktop/Pico/pico-sdk/lib/lwip/src/netif/ethernet.c.obj
 .text.ethernet_output
                0x00000000       0x6c CMakeFiles/nano_http_client.dir/C_/Users/yoyom/Desktop/Pico/pico-sdk/lib/lwip/src/netif/ethernet.c.obj
 .rodata.ethbroadcast
                0x00000000        0x6 CMakeFiles/nano_http_client.dir/C_/Users/yoyom/Desktop/Pico/pico-sdk/lib/lwip/src/netif/ethernet.c.obj
 .rodata.ethzero
                0x00000000        0x6 CMakeFiles/nano_http_client.dir/C_/Users/yoyom/Desktop/Pico/pico-sdk/lib/lwip/src/netif/ethernet.c.obj
 .debug_info    0x00000000      0x9a3 CMakeFiles/nano_http_client.dir/C_/Users/yoyom/Desktop/Pico/pico-sdk/lib/lwip/src/netif/ethernet.c.obj
 .debug_abbrev  0x00000000      0x28f CMakeFiles/nano_http_client.dir/C_/Users/yoyom/Desktop/Pico/pico-sdk/lib/lwip/src/netif/ethernet.c.obj
 .debug_loc     0x00000000      0x25c CMakeFiles/nano_http_client.dir/C_/Users/yoyom/Desktop/Pico/pico-sdk/lib/lwip/src/netif/ethernet.c.obj
 .debug_aranges
                0x00000000       0x28 CMakeFiles/nano_http_client.dir/C_/Users/yoyom/Desktop/Pico/pico-sdk/lib/lwip/src/netif/ethernet.c.obj
 .debug_ranges  0x00000000       0x18 CMakeFiles/nano_http_client.dir/C_/Users/yoyom/Desktop/Pico/pico-sdk/lib/lwip/src/netif/ethernet.c.obj
 .debug_line    0x00000000      0x44d CMakeFiles/nano_http_client.dir/C_/Users/yoyom/Desktop/Pico/pico-sdk/lib/lwip/src/netif/ethernet.c.obj
 .debug_str     0x00000000      0x741 CMakeFiles/nano_http_client.dir/C_/Users/yoyom/Desktop/Pico/pico-sdk/lib/lwip/src/netif/ethernet.c.obj
 .comment       0x00000000       0x4a CMakeFiles/nano_http_client.dir/C_/Users/yoyom/Desktop/Pico/pico-sdk/lib/lwip/src/netif/ethernet.c.obj
 .debug_frame   0x00000000       0x54 CMakeFiles/nano_http_client.dir/C_/Users/yoyom/Desktop/Pico/pico-sdk/lib/lwip/src/netif/ethernet.c.obj
 .ARM.attributes
                0x00000000       0x2c CMakeFiles/nano_http_client.dir/C_/Users/yoyom/Desktop/Pico/pico-sdk/lib/lwip/src/netif/ethernet.c.obj
 .text          0x00000000        0x0 CMakeFiles/nano_http_client.dir/C_/Users/yoyom/Desktop/Pico/pico-sdk/lib/lwip/src/netif/bridgeif.c.obj
 .data          0x00000000        0x0 CMakeFiles/nano_http_client.dir/C_/Users/yoyom/Desktop/Pico/pico-sdk/lib/lwip/src/netif/bridgeif.c.obj
 .bss           0x00000000        0x0 CMakeFiles/nano_http_client.dir/C_/Users/yoyom/Desktop/Pico/pico-sdk/lib/lwip/src/netif/bridgeif.c.obj
 .debug_info    0x00000000       0x72 CMakeFiles/nano_http_client.dir/C_/Users/yoyom/Desktop/Pico/pico-sdk/lib/lwip/src/netif/bridgeif.c.obj
 .debug_abbrev  0x00000000       0x26 CMakeFiles/nano_http_client.dir/C_/Users/yoyom/Desktop/Pico/pico-sdk/lib/lwip/src/netif/bridgeif.c.obj
 .debug_aranges
                0x00000000       0x18 CMakeFiles/nano_http_client.dir/C_/Users/yoyom/Desktop/Pico/pico-sdk/lib/lwip/src/netif/bridgeif.c.obj
 .debug_line    0x00000000       0x1d CMakeFiles/nano_http_client.dir/C_/Users/yoyom/Desktop/Pico/pico-sdk/lib/lwip/src/netif/bridgeif.c.obj
 .debug_str     0x00000000      0x197 CMakeFiles/nano_http_client.dir/C_/Users/yoyom/Desktop/Pico/pico-sdk/lib/lwip/src/netif/bridgeif.c.obj
 .comment       0x00000000       0x4a CMakeFiles/nano_http_client.dir/C_/Users/yoyom/Desktop/Pico/pico-sdk/lib/lwip/src/netif/bridgeif.c.obj
 .ARM.attributes
                0x00000000       0x2c CMakeFiles/nano_http_client.dir/C_/Users/yoyom/Desktop/Pico/pico-sdk/lib/lwip/src/netif/bridgeif.c.obj
 .text          0x00000000        0x0 CMakeFiles/nano_http_client.dir/C_/Users/yoyom/Desktop/Pico/pico-sdk/lib/lwip/src/netif/bridgeif_fdb.c.obj
 .data          0x00000000        0x0 CMakeFiles/nano_http_client.dir/C_/Users/yoyom/Desktop/Pico/pico-sdk/lib/lwip/src/netif/bridgeif_fdb.c.obj
 .bss           0x00000000        0x0 CMakeFiles/nano_http_client.dir/C_/Users/yoyom/Desktop/Pico/pico-sdk/lib/lwip/src/netif/bridgeif_fdb.c.obj
 .rodata.bridgeif_age_tmr.str1.4
                0x00000000        0xc CMakeFiles/nano_http_client.dir/C_/Users/yoyom/Desktop/Pico/pico-sdk/lib/lwip/src/netif/bridgeif_fdb.c.obj
 .text.bridgeif_age_tmr
                0x00000000       0x54 CMakeFiles/nano_http_client.dir/C_/Users/yoyom/Desktop/Pico/pico-sdk/lib/lwip/src/netif/bridgeif_fdb.c.obj
 .text.bridgeif_fdb_update_src
                0x00000000       0xa0 CMakeFiles/nano_http_client.dir/C_/Users/yoyom/Desktop/Pico/pico-sdk/lib/lwip/src/netif/bridgeif_fdb.c.obj
 .text.bridgeif_fdb_get_dst_ports
                0x00000000       0x60 CMakeFiles/nano_http_client.dir/C_/Users/yoyom/Desktop/Pico/pico-sdk/lib/lwip/src/netif/bridgeif_fdb.c.obj
 .rodata.bridgeif_fdb_init.str1.4
                0x00000000       0x1d CMakeFiles/nano_http_client.dir/C_/Users/yoyom/Desktop/Pico/pico-sdk/lib/lwip/src/netif/bridgeif_fdb.c.obj
 .text.bridgeif_fdb_init
                0x00000000       0x44 CMakeFiles/nano_http_client.dir/C_/Users/yoyom/Desktop/Pico/pico-sdk/lib/lwip/src/netif/bridgeif_fdb.c.obj
 .debug_info    0x00000000      0x663 CMakeFiles/nano_http_client.dir/C_/Users/yoyom/Desktop/Pico/pico-sdk/lib/lwip/src/netif/bridgeif_fdb.c.obj
 .debug_abbrev  0x00000000      0x224 CMakeFiles/nano_http_client.dir/C_/Users/yoyom/Desktop/Pico/pico-sdk/lib/lwip/src/netif/bridgeif_fdb.c.obj
 .debug_loc     0x00000000      0x550 CMakeFiles/nano_http_client.dir/C_/Users/yoyom/Desktop/Pico/pico-sdk/lib/lwip/src/netif/bridgeif_fdb.c.obj
 .debug_aranges
                0x00000000       0x38 CMakeFiles/nano_http_client.dir/C_/Users/yoyom/Desktop/Pico/pico-sdk/lib/lwip/src/netif/bridgeif_fdb.c.obj
 .debug_ranges  0x00000000       0x88 CMakeFiles/nano_http_client.dir/C_/Users/yoyom/Desktop/Pico/pico-sdk/lib/lwip/src/netif/bridgeif_fdb.c.obj
 .debug_line    0x00000000      0x616 CMakeFiles/nano_http_client.dir/C_/Users/yoyom/Desktop/Pico/pico-sdk/lib/lwip/src/netif/bridgeif_fdb.c.obj
 .debug_str     0x00000000      0x3ab CMakeFiles/nano_http_client.dir/C_/Users/yoyom/Desktop/Pico/pico-sdk/lib/lwip/src/netif/bridgeif_fdb.c.obj
 .comment       0x00000000       0x4a CMakeFiles/nano_http_client.dir/C_/Users/yoyom/Desktop/Pico/pico-sdk/lib/lwip/src/netif/bridgeif_fdb.c.obj
 .debug_frame   0x00000000       0x94 CMakeFiles/nano_http_client.dir/C_/Users/yoyom/Desktop/Pico/pico-sdk/lib/lwip/src/netif/bridgeif_fdb.c.obj
 .ARM.attributes
                0x00000000       0x2c CMakeFiles/nano_http_client.dir/C_/Users/yoyom/Desktop/Pico/pico-sdk/lib/lwip/src/netif/bridgeif_fdb.c.obj
 .text          0x00000000        0x0 CMakeFiles/nano_http_client.dir/C_/Users/yoyom/Desktop/Pico/pico-sdk/lib/lwip/src/netif/slipif.c.obj
 .data          0x00000000        0x0 CMakeFiles/nano_http_client.dir/C_/Users/yoyom/Desktop/Pico/pico-sdk/lib/lwip/src/netif/slipif.c.obj
 .bss           0x00000000        0x0 CMakeFiles/nano_http_client.dir/C_/Users/yoyom/Desktop/Pico/pico-sdk/lib/lwip/src/netif/slipif.c.obj
 .rodata.slipif_output_v4.str1.4
                0x00000000       0x32 CMakeFiles/nano_http_client.dir/C_/Users/yoyom/Desktop/Pico/pico-sdk/lib/lwip/src/netif/slipif.c.obj
 .text.slipif_output_v4
                0x00000000       0x9c CMakeFiles/nano_http_client.dir/C_/Users/yoyom/Desktop/Pico/pico-sdk/lib/lwip/src/netif/slipif.c.obj
 .rodata.slipif_init.str1.4
                0x00000000       0x1f CMakeFiles/nano_http_client.dir/C_/Users/yoyom/Desktop/Pico/pico-sdk/lib/lwip/src/netif/slipif.c.obj
 .text.slipif_init
                0x00000000       0x6c CMakeFiles/nano_http_client.dir/C_/Users/yoyom/Desktop/Pico/pico-sdk/lib/lwip/src/netif/slipif.c.obj
 .text.slipif_poll
                0x00000000      0x150 CMakeFiles/nano_http_client.dir/C_/Users/yoyom/Desktop/Pico/pico-sdk/lib/lwip/src/netif/slipif.c.obj
 .debug_info    0x00000000      0xa02 CMakeFiles/nano_http_client.dir/C_/Users/yoyom/Desktop/Pico/pico-sdk/lib/lwip/src/netif/slipif.c.obj
 .debug_abbrev  0x00000000      0x335 CMakeFiles/nano_http_client.dir/C_/Users/yoyom/Desktop/Pico/pico-sdk/lib/lwip/src/netif/slipif.c.obj
 .debug_loc     0x00000000      0x63b CMakeFiles/nano_http_client.dir/C_/Users/yoyom/Desktop/Pico/pico-sdk/lib/lwip/src/netif/slipif.c.obj
 .debug_aranges
                0x00000000       0x30 CMakeFiles/nano_http_client.dir/C_/Users/yoyom/Desktop/Pico/pico-sdk/lib/lwip/src/netif/slipif.c.obj
 .debug_ranges  0x00000000       0xb0 CMakeFiles/nano_http_client.dir/C_/Users/yoyom/Desktop/Pico/pico-sdk/lib/lwip/src/netif/slipif.c.obj
 .debug_line    0x00000000      0x644 CMakeFiles/nano_http_client.dir/C_/Users/yoyom/Desktop/Pico/pico-sdk/lib/lwip/src/netif/slipif.c.obj
 .debug_str     0x00000000      0x544 CMakeFiles/nano_http_client.dir/C_/Users/yoyom/Desktop/Pico/pico-sdk/lib/lwip/src/netif/slipif.c.obj
 .comment       0x00000000       0x4a CMakeFiles/nano_http_client.dir/C_/Users/yoyom/Desktop/Pico/pico-sdk/lib/lwip/src/netif/slipif.c.obj
 .debug_frame   0x00000000       0x74 CMakeFiles/nano_http_client.dir/C_/Users/yoyom/Desktop/Pico/pico-sdk/lib/lwip/src/netif/slipif.c.obj
 .ARM.attributes
                0x00000000       0x2c CMakeFiles/nano_http_client.dir/C_/Users/yoyom/Desktop/Pico/pico-sdk/lib/lwip/src/netif/slipif.c.obj
 .text          0x00000000        0x0 CMakeFiles/nano_http_client.dir/C_/Users/yoyom/Desktop/Pico/pico-sdk/lib/lwip/src/netif/lowpan6_common.c.obj
 .data          0x00000000        0x0 CMakeFiles/nano_http_client.dir/C_/Users/yoyom/Desktop/Pico/pico-sdk/lib/lwip/src/netif/lowpan6_common.c.obj
 .bss           0x00000000        0x0 CMakeFiles/nano_http_client.dir/C_/Users/yoyom/Desktop/Pico/pico-sdk/lib/lwip/src/netif/lowpan6_common.c.obj
 .debug_info    0x00000000       0x72 CMakeFiles/nano_http_client.dir/C_/Users/yoyom/Desktop/Pico/pico-sdk/lib/lwip/src/netif/lowpan6_common.c.obj
 .debug_abbrev  0x00000000       0x26 CMakeFiles/nano_http_client.dir/C_/Users/yoyom/Desktop/Pico/pico-sdk/lib/lwip/src/netif/lowpan6_common.c.obj
 .debug_aranges
                0x00000000       0x18 CMakeFiles/nano_http_client.dir/C_/Users/yoyom/Desktop/Pico/pico-sdk/lib/lwip/src/netif/lowpan6_common.c.obj
 .debug_line    0x00000000       0x1d CMakeFiles/nano_http_client.dir/C_/Users/yoyom/Desktop/Pico/pico-sdk/lib/lwip/src/netif/lowpan6_common.c.obj
 .debug_str     0x00000000      0x19d CMakeFiles/nano_http_client.dir/C_/Users/yoyom/Desktop/Pico/pico-sdk/lib/lwip/src/netif/lowpan6_common.c.obj
 .comment       0x00000000       0x4a CMakeFiles/nano_http_client.dir/C_/Users/yoyom/Desktop/Pico/pico-sdk/lib/lwip/src/netif/lowpan6_common.c.obj
 .ARM.attributes
                0x00000000       0x2c CMakeFiles/nano_http_client.dir/C_/Users/yoyom/Desktop/Pico/pico-sdk/lib/lwip/src/netif/lowpan6_common.c.obj
 .text          0x00000000        0x0 CMakeFiles/nano_http_client.dir/C_/Users/yoyom/Desktop/Pico/pico-sdk/lib/lwip/src/netif/lowpan6.c.obj
 .data          0x00000000        0x0 CMakeFiles/nano_http_client.dir/C_/Users/yoyom/Desktop/Pico/pico-sdk/lib/lwip/src/netif/lowpan6.c.obj
 .bss           0x00000000        0x0 CMakeFiles/nano_http_client.dir/C_/Users/yoyom/Desktop/Pico/pico-sdk/lib/lwip/src/netif/lowpan6.c.obj
 .debug_info    0x00000000       0x72 CMakeFiles/nano_http_client.dir/C_/Users/yoyom/Desktop/Pico/pico-sdk/lib/lwip/src/netif/lowpan6.c.obj
 .debug_abbrev  0x00000000       0x26 CMakeFiles/nano_http_client.dir/C_/Users/yoyom/Desktop/Pico/pico-sdk/lib/lwip/src/netif/lowpan6.c.obj
 .debug_aranges
                0x00000000       0x18 CMakeFiles/nano_http_client.dir/C_/Users/yoyom/Desktop/Pico/pico-sdk/lib/lwip/src/netif/lowpan6.c.obj
 .debug_line    0x00000000       0x1d CMakeFiles/nano_http_client.dir/C_/Users/yoyom/Desktop/Pico/pico-sdk/lib/lwip/src/netif/lowpan6.c.obj
 .debug_str     0x00000000      0x196 CMakeFiles/nano_http_client.dir/C_/Users/yoyom/Desktop/Pico/pico-sdk/lib/lwip/src/netif/lowpan6.c.obj
 .comment       0x00000000       0x4a CMakeFiles/nano_http_client.dir/C_/Users/yoyom/Desktop/Pico/pico-sdk/lib/lwip/src/netif/lowpan6.c.obj
 .ARM.attributes
                0x00000000       0x2c CMakeFiles/nano_http_client.dir/C_/Users/yoyom/Desktop/Pico/pico-sdk/lib/lwip/src/netif/lowpan6.c.obj
 .text          0x00000000        0x0 CMakeFiles/nano_http_client.dir/C_/Users/yoyom/Desktop/Pico/pico-sdk/lib/lwip/src/netif/lowpan6_ble.c.obj
 .data          0x00000000        0x0 CMakeFiles/nano_http_client.dir/C_/Users/yoyom/Desktop/Pico/pico-sdk/lib/lwip/src/netif/lowpan6_ble.c.obj
 .bss           0x00000000        0x0 CMakeFiles/nano_http_client.dir/C_/Users/yoyom/Desktop/Pico/pico-sdk/lib/lwip/src/netif/lowpan6_ble.c.obj
 .debug_info    0x00000000       0x72 CMakeFiles/nano_http_client.dir/C_/Users/yoyom/Desktop/Pico/pico-sdk/lib/lwip/src/netif/lowpan6_ble.c.obj
 .debug_abbrev  0x00000000       0x26 CMakeFiles/nano_http_client.dir/C_/Users/yoyom/Desktop/Pico/pico-sdk/lib/lwip/src/netif/lowpan6_ble.c.obj
 .debug_aranges
                0x00000000       0x18 CMakeFiles/nano_http_client.dir/C_/Users/yoyom/Desktop/Pico/pico-sdk/lib/lwip/src/netif/lowpan6_ble.c.obj
 .debug_line    0x00000000       0x1d CMakeFiles/nano_http_client.dir/C_/Users/yoyom/Desktop/Pico/pico-sdk/lib/lwip/src/netif/lowpan6_ble.c.obj
 .debug_str     0x00000000      0x19a CMakeFiles/nano_http_client.dir/C_/Users/yoyom/Desktop/Pico/pico-sdk/lib/lwip/src/netif/lowpan6_ble.c.obj
 .comment       0x00000000       0x4a CMakeFiles/nano_http_client.dir/C_/Users/yoyom/Desktop/Pico/pico-sdk/lib/lwip/src/netif/lowpan6_ble.c.obj
 .ARM.attributes
                0x00000000       0x2c CMakeFiles/nano_http_client.dir/C_/Users/yoyom/Desktop/Pico/pico-sdk/lib/lwip/src/netif/lowpan6_ble.c.obj
 .text          0x00000000        0x0 CMakeFiles/nano_http_client.dir/C_/Users/yoyom/Desktop/Pico/pico-sdk/lib/lwip/src/netif/zepif.c.obj
 .data          0x00000000        0x0 CMakeFiles/nano_http_client.dir/C_/Users/yoyom/Desktop/Pico/pico-sdk/lib/lwip/src/netif/zepif.c.obj
 .bss           0x00000000        0x0 CMakeFiles/nano_http_client.dir/C_/Users/yoyom/Desktop/Pico/pico-sdk/lib/lwip/src/netif/zepif.c.obj
 .debug_info    0x00000000       0x72 CMakeFiles/nano_http_client.dir/C_/Users/yoyom/Desktop/Pico/pico-sdk/lib/lwip/src/netif/zepif.c.obj
 .debug_abbrev  0x00000000       0x26 CMakeFiles/nano_http_client.dir/C_/Users/yoyom/Desktop/Pico/pico-sdk/lib/lwip/src/netif/zepif.c.obj
 .debug_aranges
                0x00000000       0x18 CMakeFiles/nano_http_client.dir/C_/Users/yoyom/Desktop/Pico/pico-sdk/lib/lwip/src/netif/zepif.c.obj
 .debug_line    0x00000000       0x1d CMakeFiles/nano_http_client.dir/C_/Users/yoyom/Desktop/Pico/pico-sdk/lib/lwip/src/netif/zepif.c.obj
 .debug_str     0x00000000      0x194 CMakeFiles/nano_http_client.dir/C_/Users/yoyom/Desktop/Pico/pico-sdk/lib/lwip/src/netif/zepif.c.obj
 .comment       0x00000000       0x4a CMakeFiles/nano_http_client.dir/C_/Users/yoyom/Desktop/Pico/pico-sdk/lib/lwip/src/netif/zepif.c.obj
 .ARM.attributes
                0x00000000       0x2c CMakeFiles/nano_http_client.dir/C_/Users/yoyom/Desktop/Pico/pico-sdk/lib/lwip/src/netif/zepif.c.obj
 .text          0x00000000        0x0 CMakeFiles/nano_http_client.dir/C_/Users/yoyom/Desktop/Pico/pico-sdk/lib/lwip/src/netif/ppp/auth.c.obj
 .data          0x00000000        0x0 CMakeFiles/nano_http_client.dir/C_/Users/yoyom/Desktop/Pico/pico-sdk/lib/lwip/src/netif/ppp/auth.c.obj
 .bss           0x00000000        0x0 CMakeFiles/nano_http_client.dir/C_/Users/yoyom/Desktop/Pico/pico-sdk/lib/lwip/src/netif/ppp/auth.c.obj
 .debug_info    0x00000000       0x72 CMakeFiles/nano_http_client.dir/C_/Users/yoyom/Desktop/Pico/pico-sdk/lib/lwip/src/netif/ppp/auth.c.obj
 .debug_abbrev  0x00000000       0x26 CMakeFiles/nano_http_client.dir/C_/Users/yoyom/Desktop/Pico/pico-sdk/lib/lwip/src/netif/ppp/auth.c.obj
 .debug_aranges
                0x00000000       0x18 CMakeFiles/nano_http_client.dir/C_/Users/yoyom/Desktop/Pico/pico-sdk/lib/lwip/src/netif/ppp/auth.c.obj
 .debug_line    0x00000000       0x1d CMakeFiles/nano_http_client.dir/C_/Users/yoyom/Desktop/Pico/pico-sdk/lib/lwip/src/netif/ppp/auth.c.obj
 .debug_str     0x00000000      0x197 CMakeFiles/nano_http_client.dir/C_/Users/yoyom/Desktop/Pico/pico-sdk/lib/lwip/src/netif/ppp/auth.c.obj
 .comment       0x00000000       0x4a CMakeFiles/nano_http_client.dir/C_/Users/yoyom/Desktop/Pico/pico-sdk/lib/lwip/src/netif/ppp/auth.c.obj
 .ARM.attributes
                0x00000000       0x2c CMakeFiles/nano_http_client.dir/C_/Users/yoyom/Desktop/Pico/pico-sdk/lib/lwip/src/netif/ppp/auth.c.obj
 .text          0x00000000        0x0 CMakeFiles/nano_http_client.dir/C_/Users/yoyom/Desktop/Pico/pico-sdk/lib/lwip/src/netif/ppp/ccp.c.obj
 .data          0x00000000        0x0 CMakeFiles/nano_http_client.dir/C_/Users/yoyom/Desktop/Pico/pico-sdk/lib/lwip/src/netif/ppp/ccp.c.obj
 .bss           0x00000000        0x0 CMakeFiles/nano_http_client.dir/C_/Users/yoyom/Desktop/Pico/pico-sdk/lib/lwip/src/netif/ppp/ccp.c.obj
 .debug_info    0x00000000       0x72 CMakeFiles/nano_http_client.dir/C_/Users/yoyom/Desktop/Pico/pico-sdk/lib/lwip/src/netif/ppp/ccp.c.obj
 .debug_abbrev  0x00000000       0x26 CMakeFiles/nano_http_client.dir/C_/Users/yoyom/Desktop/Pico/pico-sdk/lib/lwip/src/netif/ppp/ccp.c.obj
 .debug_aranges
                0x00000000       0x18 CMakeFiles/nano_http_client.dir/C_/Users/yoyom/Desktop/Pico/pico-sdk/lib/lwip/src/netif/ppp/ccp.c.obj
 .debug_line    0x00000000       0x1d CMakeFiles/nano_http_client.dir/C_/Users/yoyom/Desktop/Pico/pico-sdk/lib/lwip/src/netif/ppp/ccp.c.obj
 .debug_str     0x00000000      0x196 CMakeFiles/nano_http_client.dir/C_/Users/yoyom/Desktop/Pico/pico-sdk/lib/lwip/src/netif/ppp/ccp.c.obj
 .comment       0x00000000       0x4a CMakeFiles/nano_http_client.dir/C_/Users/yoyom/Desktop/Pico/pico-sdk/lib/lwip/src/netif/ppp/ccp.c.obj
 .ARM.attributes
                0x00000000       0x2c CMakeFiles/nano_http_client.dir/C_/Users/yoyom/Desktop/Pico/pico-sdk/lib/lwip/src/netif/ppp/ccp.c.obj
 .text          0x00000000        0x0 CMakeFiles/nano_http_client.dir/C_/Users/yoyom/Desktop/Pico/pico-sdk/lib/lwip/src/netif/ppp/chap-md5.c.obj
 .data          0x00000000        0x0 CMakeFiles/nano_http_client.dir/C_/Users/yoyom/Desktop/Pico/pico-sdk/lib/lwip/src/netif/ppp/chap-md5.c.obj
 .bss           0x00000000        0x0 CMakeFiles/nano_http_client.dir/C_/Users/yoyom/Desktop/Pico/pico-sdk/lib/lwip/src/netif/ppp/chap-md5.c.obj
 .debug_info    0x00000000       0x72 CMakeFiles/nano_http_client.dir/C_/Users/yoyom/Desktop/Pico/pico-sdk/lib/lwip/src/netif/ppp/chap-md5.c.obj
 .debug_abbrev  0x00000000       0x26 CMakeFiles/nano_http_client.dir/C_/Users/yoyom/Desktop/Pico/pico-sdk/lib/lwip/src/netif/ppp/chap-md5.c.obj
 .debug_aranges
                0x00000000       0x18 CMakeFiles/nano_http_client.dir/C_/Users/yoyom/Desktop/Pico/pico-sdk/lib/lwip/src/netif/ppp/chap-md5.c.obj
 .debug_line    0x00000000       0x1d CMakeFiles/nano_http_client.dir/C_/Users/yoyom/Desktop/Pico/pico-sdk/lib/lwip/src/netif/ppp/chap-md5.c.obj
 .debug_str     0x00000000      0x19b CMakeFiles/nano_http_client.dir/C_/Users/yoyom/Desktop/Pico/pico-sdk/lib/lwip/src/netif/ppp/chap-md5.c.obj
 .comment       0x00000000       0x4a CMakeFiles/nano_http_client.dir/C_/Users/yoyom/Desktop/Pico/pico-sdk/lib/lwip/src/netif/ppp/chap-md5.c.obj
 .ARM.attributes
                0x00000000       0x2c CMakeFiles/nano_http_client.dir/C_/Users/yoyom/Desktop/Pico/pico-sdk/lib/lwip/src/netif/ppp/chap-md5.c.obj
 .text          0x00000000        0x0 CMakeFiles/nano_http_client.dir/C_/Users/yoyom/Desktop/Pico/pico-sdk/lib/lwip/src/netif/ppp/chap_ms.c.obj
 .data          0x00000000        0x0 CMakeFiles/nano_http_client.dir/C_/Users/yoyom/Desktop/Pico/pico-sdk/lib/lwip/src/netif/ppp/chap_ms.c.obj
 .bss           0x00000000        0x0 CMakeFiles/nano_http_client.dir/C_/Users/yoyom/Desktop/Pico/pico-sdk/lib/lwip/src/netif/ppp/chap_ms.c.obj
 .debug_info    0x00000000       0x72 CMakeFiles/nano_http_client.dir/C_/Users/yoyom/Desktop/Pico/pico-sdk/lib/lwip/src/netif/ppp/chap_ms.c.obj
 .debug_abbrev  0x00000000       0x26 CMakeFiles/nano_http_client.dir/C_/Users/yoyom/Desktop/Pico/pico-sdk/lib/lwip/src/netif/ppp/chap_ms.c.obj
 .debug_aranges
                0x00000000       0x18 CMakeFiles/nano_http_client.dir/C_/Users/yoyom/Desktop/Pico/pico-sdk/lib/lwip/src/netif/ppp/chap_ms.c.obj
 .debug_line    0x00000000       0x1d CMakeFiles/nano_http_client.dir/C_/Users/yoyom/Desktop/Pico/pico-sdk/lib/lwip/src/netif/ppp/chap_ms.c.obj
 .debug_str     0x00000000      0x19a CMakeFiles/nano_http_client.dir/C_/Users/yoyom/Desktop/Pico/pico-sdk/lib/lwip/src/netif/ppp/chap_ms.c.obj
 .comment       0x00000000       0x4a CMakeFiles/nano_http_client.dir/C_/Users/yoyom/Desktop/Pico/pico-sdk/lib/lwip/src/netif/ppp/chap_ms.c.obj
 .ARM.attributes
                0x00000000       0x2c CMakeFiles/nano_http_client.dir/C_/Users/yoyom/Desktop/Pico/pico-sdk/lib/lwip/src/netif/ppp/chap_ms.c.obj
 .text          0x00000000        0x0 CMakeFiles/nano_http_client.dir/C_/Users/yoyom/Desktop/Pico/pico-sdk/lib/lwip/src/netif/ppp/chap-new.c.obj
 .data          0x00000000        0x0 CMakeFiles/nano_http_client.dir/C_/Users/yoyom/Desktop/Pico/pico-sdk/lib/lwip/src/netif/ppp/chap-new.c.obj
 .bss           0x00000000        0x0 CMakeFiles/nano_http_client.dir/C_/Users/yoyom/Desktop/Pico/pico-sdk/lib/lwip/src/netif/ppp/chap-new.c.obj
 .debug_info    0x00000000       0x72 CMakeFiles/nano_http_client.dir/C_/Users/yoyom/Desktop/Pico/pico-sdk/lib/lwip/src/netif/ppp/chap-new.c.obj
 .debug_abbrev  0x00000000       0x26 CMakeFiles/nano_http_client.dir/C_/Users/yoyom/Desktop/Pico/pico-sdk/lib/lwip/src/netif/ppp/chap-new.c.obj
 .debug_aranges
                0x00000000       0x18 CMakeFiles/nano_http_client.dir/C_/Users/yoyom/Desktop/Pico/pico-sdk/lib/lwip/src/netif/ppp/chap-new.c.obj
 .debug_line    0x00000000       0x1d CMakeFiles/nano_http_client.dir/C_/Users/yoyom/Desktop/Pico/pico-sdk/lib/lwip/src/netif/ppp/chap-new.c.obj
 .debug_str     0x00000000      0x19b CMakeFiles/nano_http_client.dir/C_/Users/yoyom/Desktop/Pico/pico-sdk/lib/lwip/src/netif/ppp/chap-new.c.obj
 .comment       0x00000000       0x4a CMakeFiles/nano_http_client.dir/C_/Users/yoyom/Desktop/Pico/pico-sdk/lib/lwip/src/netif/ppp/chap-new.c.obj
 .ARM.attributes
                0x00000000       0x2c CMakeFiles/nano_http_client.dir/C_/Users/yoyom/Desktop/Pico/pico-sdk/lib/lwip/src/netif/ppp/chap-new.c.obj
 .text          0x00000000        0x0 CMakeFiles/nano_http_client.dir/C_/Users/yoyom/Desktop/Pico/pico-sdk/lib/lwip/src/netif/ppp/demand.c.obj
 .data          0x00000000        0x0 CMakeFiles/nano_http_client.dir/C_/Users/yoyom/Desktop/Pico/pico-sdk/lib/lwip/src/netif/ppp/demand.c.obj
 .bss           0x00000000        0x0 CMakeFiles/nano_http_client.dir/C_/Users/yoyom/Desktop/Pico/pico-sdk/lib/lwip/src/netif/ppp/demand.c.obj
 .debug_info    0x00000000       0x72 CMakeFiles/nano_http_client.dir/C_/Users/yoyom/Desktop/Pico/pico-sdk/lib/lwip/src/netif/ppp/demand.c.obj
 .debug_abbrev  0x00000000       0x26 CMakeFiles/nano_http_client.dir/C_/Users/yoyom/Desktop/Pico/pico-sdk/lib/lwip/src/netif/ppp/demand.c.obj
 .debug_aranges
                0x00000000       0x18 CMakeFiles/nano_http_client.dir/C_/Users/yoyom/Desktop/Pico/pico-sdk/lib/lwip/src/netif/ppp/demand.c.obj
 .debug_line    0x00000000       0x1d CMakeFiles/nano_http_client.dir/C_/Users/yoyom/Desktop/Pico/pico-sdk/lib/lwip/src/netif/ppp/demand.c.obj
 .debug_str     0x00000000      0x199 CMakeFiles/nano_http_client.dir/C_/Users/yoyom/Desktop/Pico/pico-sdk/lib/lwip/src/netif/ppp/demand.c.obj
 .comment       0x00000000       0x4a CMakeFiles/nano_http_client.dir/C_/Users/yoyom/Desktop/Pico/pico-sdk/lib/lwip/src/netif/ppp/demand.c.obj
 .ARM.attributes
                0x00000000       0x2c CMakeFiles/nano_http_client.dir/C_/Users/yoyom/Desktop/Pico/pico-sdk/lib/lwip/src/netif/ppp/demand.c.obj
 .text          0x00000000        0x0 CMakeFiles/nano_http_client.dir/C_/Users/yoyom/Desktop/Pico/pico-sdk/lib/lwip/src/netif/ppp/eap.c.obj
 .data          0x00000000        0x0 CMakeFiles/nano_http_client.dir/C_/Users/yoyom/Desktop/Pico/pico-sdk/lib/lwip/src/netif/ppp/eap.c.obj
 .bss           0x00000000        0x0 CMakeFiles/nano_http_client.dir/C_/Users/yoyom/Desktop/Pico/pico-sdk/lib/lwip/src/netif/ppp/eap.c.obj
 .debug_info    0x00000000       0x72 CMakeFiles/nano_http_client.dir/C_/Users/yoyom/Desktop/Pico/pico-sdk/lib/lwip/src/netif/ppp/eap.c.obj
 .debug_abbrev  0x00000000       0x26 CMakeFiles/nano_http_client.dir/C_/Users/yoyom/Desktop/Pico/pico-sdk/lib/lwip/src/netif/ppp/eap.c.obj
 .debug_aranges
                0x00000000       0x18 CMakeFiles/nano_http_client.dir/C_/Users/yoyom/Desktop/Pico/pico-sdk/lib/lwip/src/netif/ppp/eap.c.obj
 .debug_line    0x00000000       0x1d CMakeFiles/nano_http_client.dir/C_/Users/yoyom/Desktop/Pico/pico-sdk/lib/lwip/src/netif/ppp/eap.c.obj
 .debug_str     0x00000000      0x196 CMakeFiles/nano_http_client.dir/C_/Users/yoyom/Desktop/Pico/pico-sdk/lib/lwip/src/netif/ppp/eap.c.obj
 .comment       0x00000000       0x4a CMakeFiles/nano_http_client.dir/C_/Users/yoyom/Desktop/Pico/pico-sdk/lib/lwip/src/netif/ppp/eap.c.obj
 .ARM.attributes
                0x00000000       0x2c CMakeFiles/nano_http_client.dir/C_/Users/yoyom/Desktop/Pico/pico-sdk/lib/lwip/src/netif/ppp/eap.c.obj
 .text          0x00000000        0x0 CMakeFiles/nano_http_client.dir/C_/Users/yoyom/Desktop/Pico/pico-sdk/lib/lwip/src/netif/ppp/ecp.c.obj
 .data          0x00000000        0x0 CMakeFiles/nano_http_client.dir/C_/Users/yoyom/Desktop/Pico/pico-sdk/lib/lwip/src/netif/ppp/ecp.c.obj
 .bss           0x00000000        0x0 CMakeFiles/nano_http_client.dir/C_/Users/yoyom/Desktop/Pico/pico-sdk/lib/lwip/src/netif/ppp/ecp.c.obj
 .debug_info    0x00000000       0x72 CMakeFiles/nano_http_client.dir/C_/Users/yoyom/Desktop/Pico/pico-sdk/lib/lwip/src/netif/ppp/ecp.c.obj
 .debug_abbrev  0x00000000       0x26 CMakeFiles/nano_http_client.dir/C_/Users/yoyom/Desktop/Pico/pico-sdk/lib/lwip/src/netif/ppp/ecp.c.obj
 .debug_aranges
                0x00000000       0x18 CMakeFiles/nano_http_client.dir/C_/Users/yoyom/Desktop/Pico/pico-sdk/lib/lwip/src/netif/ppp/ecp.c.obj
 .debug_line    0x00000000       0x1d CMakeFiles/nano_http_client.dir/C_/Users/yoyom/Desktop/Pico/pico-sdk/lib/lwip/src/netif/ppp/ecp.c.obj
 .debug_str     0x00000000      0x196 CMakeFiles/nano_http_client.dir/C_/Users/yoyom/Desktop/Pico/pico-sdk/lib/lwip/src/netif/ppp/ecp.c.obj
 .comment       0x00000000       0x4a CMakeFiles/nano_http_client.dir/C_/Users/yoyom/Desktop/Pico/pico-sdk/lib/lwip/src/netif/ppp/ecp.c.obj
 .ARM.attributes
                0x00000000       0x2c CMakeFiles/nano_http_client.dir/C_/Users/yoyom/Desktop/Pico/pico-sdk/lib/lwip/src/netif/ppp/ecp.c.obj
 .text          0x00000000        0x0 CMakeFiles/nano_http_client.dir/C_/Users/yoyom/Desktop/Pico/pico-sdk/lib/lwip/src/netif/ppp/eui64.c.obj
 .data          0x00000000        0x0 CMakeFiles/nano_http_client.dir/C_/Users/yoyom/Desktop/Pico/pico-sdk/lib/lwip/src/netif/ppp/eui64.c.obj
 .bss           0x00000000        0x0 CMakeFiles/nano_http_client.dir/C_/Users/yoyom/Desktop/Pico/pico-sdk/lib/lwip/src/netif/ppp/eui64.c.obj
 .debug_info    0x00000000       0x72 CMakeFiles/nano_http_client.dir/C_/Users/yoyom/Desktop/Pico/pico-sdk/lib/lwip/src/netif/ppp/eui64.c.obj
 .debug_abbrev  0x00000000       0x26 CMakeFiles/nano_http_client.dir/C_/Users/yoyom/Desktop/Pico/pico-sdk/lib/lwip/src/netif/ppp/eui64.c.obj
 .debug_aranges
                0x00000000       0x18 CMakeFiles/nano_http_client.dir/C_/Users/yoyom/Desktop/Pico/pico-sdk/lib/lwip/src/netif/ppp/eui64.c.obj
 .debug_line    0x00000000       0x1d CMakeFiles/nano_http_client.dir/C_/Users/yoyom/Desktop/Pico/pico-sdk/lib/lwip/src/netif/ppp/eui64.c.obj
 .debug_str     0x00000000      0x198 CMakeFiles/nano_http_client.dir/C_/Users/yoyom/Desktop/Pico/pico-sdk/lib/lwip/src/netif/ppp/eui64.c.obj
 .comment       0x00000000       0x4a CMakeFiles/nano_http_client.dir/C_/Users/yoyom/Desktop/Pico/pico-sdk/lib/lwip/src/netif/ppp/eui64.c.obj
 .ARM.attributes
                0x00000000       0x2c CMakeFiles/nano_http_client.dir/C_/Users/yoyom/Desktop/Pico/pico-sdk/lib/lwip/src/netif/ppp/eui64.c.obj
 .text          0x00000000        0x0 CMakeFiles/nano_http_client.dir/C_/Users/yoyom/Desktop/Pico/pico-sdk/lib/lwip/src/netif/ppp/fsm.c.obj
 .data          0x00000000        0x0 CMakeFiles/nano_http_client.dir/C_/Users/yoyom/Desktop/Pico/pico-sdk/lib/lwip/src/netif/ppp/fsm.c.obj
 .bss           0x00000000        0x0 CMakeFiles/nano_http_client.dir/C_/Users/yoyom/Desktop/Pico/pico-sdk/lib/lwip/src/netif/ppp/fsm.c.obj
 .debug_info    0x00000000       0x72 CMakeFiles/nano_http_client.dir/C_/Users/yoyom/Desktop/Pico/pico-sdk/lib/lwip/src/netif/ppp/fsm.c.obj
 .debug_abbrev  0x00000000       0x26 CMakeFiles/nano_http_client.dir/C_/Users/yoyom/Desktop/Pico/pico-sdk/lib/lwip/src/netif/ppp/fsm.c.obj
 .debug_aranges
                0x00000000       0x18 CMakeFiles/nano_http_client.dir/C_/Users/yoyom/Desktop/Pico/pico-sdk/lib/lwip/src/netif/ppp/fsm.c.obj
 .debug_line    0x00000000       0x1d CMakeFiles/nano_http_client.dir/C_/Users/yoyom/Desktop/Pico/pico-sdk/lib/lwip/src/netif/ppp/fsm.c.obj
 .debug_str     0x00000000      0x196 CMakeFiles/nano_http_client.dir/C_/Users/yoyom/Desktop/Pico/pico-sdk/lib/lwip/src/netif/ppp/fsm.c.obj
 .comment       0x00000000       0x4a CMakeFiles/nano_http_client.dir/C_/Users/yoyom/Desktop/Pico/pico-sdk/lib/lwip/src/netif/ppp/fsm.c.obj
 .ARM.attributes
                0x00000000       0x2c CMakeFiles/nano_http_client.dir/C_/Users/yoyom/Desktop/Pico/pico-sdk/lib/lwip/src/netif/ppp/fsm.c.obj
 .text          0x00000000        0x0 CMakeFiles/nano_http_client.dir/C_/Users/yoyom/Desktop/Pico/pico-sdk/lib/lwip/src/netif/ppp/ipcp.c.obj
 .data          0x00000000        0x0 CMakeFiles/nano_http_client.dir/C_/Users/yoyom/Desktop/Pico/pico-sdk/lib/lwip/src/netif/ppp/ipcp.c.obj
 .bss           0x00000000        0x0 CMakeFiles/nano_http_client.dir/C_/Users/yoyom/Desktop/Pico/pico-sdk/lib/lwip/src/netif/ppp/ipcp.c.obj
 .debug_info    0x00000000       0x72 CMakeFiles/nano_http_client.dir/C_/Users/yoyom/Desktop/Pico/pico-sdk/lib/lwip/src/netif/ppp/ipcp.c.obj
 .debug_abbrev  0x00000000       0x26 CMakeFiles/nano_http_client.dir/C_/Users/yoyom/Desktop/Pico/pico-sdk/lib/lwip/src/netif/ppp/ipcp.c.obj
 .debug_aranges
                0x00000000       0x18 CMakeFiles/nano_http_client.dir/C_/Users/yoyom/Desktop/Pico/pico-sdk/lib/lwip/src/netif/ppp/ipcp.c.obj
 .debug_line    0x00000000       0x1d CMakeFiles/nano_http_client.dir/C_/Users/yoyom/Desktop/Pico/pico-sdk/lib/lwip/src/netif/ppp/ipcp.c.obj
 .debug_str     0x00000000      0x197 CMakeFiles/nano_http_client.dir/C_/Users/yoyom/Desktop/Pico/pico-sdk/lib/lwip/src/netif/ppp/ipcp.c.obj
 .comment       0x00000000       0x4a CMakeFiles/nano_http_client.dir/C_/Users/yoyom/Desktop/Pico/pico-sdk/lib/lwip/src/netif/ppp/ipcp.c.obj
 .ARM.attributes
                0x00000000       0x2c CMakeFiles/nano_http_client.dir/C_/Users/yoyom/Desktop/Pico/pico-sdk/lib/lwip/src/netif/ppp/ipcp.c.obj
 .text          0x00000000        0x0 CMakeFiles/nano_http_client.dir/C_/Users/yoyom/Desktop/Pico/pico-sdk/lib/lwip/src/netif/ppp/ipv6cp.c.obj
 .data          0x00000000        0x0 CMakeFiles/nano_http_client.dir/C_/Users/yoyom/Desktop/Pico/pico-sdk/lib/lwip/src/netif/ppp/ipv6cp.c.obj
 .bss           0x00000000        0x0 CMakeFiles/nano_http_client.dir/C_/Users/yoyom/Desktop/Pico/pico-sdk/lib/lwip/src/netif/ppp/ipv6cp.c.obj
 .debug_info    0x00000000       0x72 CMakeFiles/nano_http_client.dir/C_/Users/yoyom/Desktop/Pico/pico-sdk/lib/lwip/src/netif/ppp/ipv6cp.c.obj
 .debug_abbrev  0x00000000       0x26 CMakeFiles/nano_http_client.dir/C_/Users/yoyom/Desktop/Pico/pico-sdk/lib/lwip/src/netif/ppp/ipv6cp.c.obj
 .debug_aranges
                0x00000000       0x18 CMakeFiles/nano_http_client.dir/C_/Users/yoyom/Desktop/Pico/pico-sdk/lib/lwip/src/netif/ppp/ipv6cp.c.obj
 .debug_line    0x00000000       0x1d CMakeFiles/nano_http_client.dir/C_/Users/yoyom/Desktop/Pico/pico-sdk/lib/lwip/src/netif/ppp/ipv6cp.c.obj
 .debug_str     0x00000000      0x199 CMakeFiles/nano_http_client.dir/C_/Users/yoyom/Desktop/Pico/pico-sdk/lib/lwip/src/netif/ppp/ipv6cp.c.obj
 .comment       0x00000000       0x4a CMakeFiles/nano_http_client.dir/C_/Users/yoyom/Desktop/Pico/pico-sdk/lib/lwip/src/netif/ppp/ipv6cp.c.obj
 .ARM.attributes
                0x00000000       0x2c CMakeFiles/nano_http_client.dir/C_/Users/yoyom/Desktop/Pico/pico-sdk/lib/lwip/src/netif/ppp/ipv6cp.c.obj
 .text          0x00000000        0x0 CMakeFiles/nano_http_client.dir/C_/Users/yoyom/Desktop/Pico/pico-sdk/lib/lwip/src/netif/ppp/lcp.c.obj
 .data          0x00000000        0x0 CMakeFiles/nano_http_client.dir/C_/Users/yoyom/Desktop/Pico/pico-sdk/lib/lwip/src/netif/ppp/lcp.c.obj
 .bss           0x00000000        0x0 CMakeFiles/nano_http_client.dir/C_/Users/yoyom/Desktop/Pico/pico-sdk/lib/lwip/src/netif/ppp/lcp.c.obj
 .debug_info    0x00000000       0x72 CMakeFiles/nano_http_client.dir/C_/Users/yoyom/Desktop/Pico/pico-sdk/lib/lwip/src/netif/ppp/lcp.c.obj
 .debug_abbrev  0x00000000       0x26 CMakeFiles/nano_http_client.dir/C_/Users/yoyom/Desktop/Pico/pico-sdk/lib/lwip/src/netif/ppp/lcp.c.obj
 .debug_aranges
                0x00000000       0x18 CMakeFiles/nano_http_client.dir/C_/Users/yoyom/Desktop/Pico/pico-sdk/lib/lwip/src/netif/ppp/lcp.c.obj
 .debug_line    0x00000000       0x1d CMakeFiles/nano_http_client.dir/C_/Users/yoyom/Desktop/Pico/pico-sdk/lib/lwip/src/netif/ppp/lcp.c.obj
 .debug_str     0x00000000      0x196 CMakeFiles/nano_http_client.dir/C_/Users/yoyom/Desktop/Pico/pico-sdk/lib/lwip/src/netif/ppp/lcp.c.obj
 .comment       0x00000000       0x4a CMakeFiles/nano_http_client.dir/C_/Users/yoyom/Desktop/Pico/pico-sdk/lib/lwip/src/netif/ppp/lcp.c.obj
 .ARM.attributes
                0x00000000       0x2c CMakeFiles/nano_http_client.dir/C_/Users/yoyom/Desktop/Pico/pico-sdk/lib/lwip/src/netif/ppp/lcp.c.obj
 .text          0x00000000        0x0 CMakeFiles/nano_http_client.dir/C_/Users/yoyom/Desktop/Pico/pico-sdk/lib/lwip/src/netif/ppp/magic.c.obj
 .data          0x00000000        0x0 CMakeFiles/nano_http_client.dir/C_/Users/yoyom/Desktop/Pico/pico-sdk/lib/lwip/src/netif/ppp/magic.c.obj
 .bss           0x00000000        0x0 CMakeFiles/nano_http_client.dir/C_/Users/yoyom/Desktop/Pico/pico-sdk/lib/lwip/src/netif/ppp/magic.c.obj
 .debug_info    0x00000000       0x72 CMakeFiles/nano_http_client.dir/C_/Users/yoyom/Desktop/Pico/pico-sdk/lib/lwip/src/netif/ppp/magic.c.obj
 .debug_abbrev  0x00000000       0x26 CMakeFiles/nano_http_client.dir/C_/Users/yoyom/Desktop/Pico/pico-sdk/lib/lwip/src/netif/ppp/magic.c.obj
 .debug_aranges
                0x00000000       0x18 CMakeFiles/nano_http_client.dir/C_/Users/yoyom/Desktop/Pico/pico-sdk/lib/lwip/src/netif/ppp/magic.c.obj
 .debug_line    0x00000000       0x1d CMakeFiles/nano_http_client.dir/C_/Users/yoyom/Desktop/Pico/pico-sdk/lib/lwip/src/netif/ppp/magic.c.obj
 .debug_str     0x00000000      0x198 CMakeFiles/nano_http_client.dir/C_/Users/yoyom/Desktop/Pico/pico-sdk/lib/lwip/src/netif/ppp/magic.c.obj
 .comment       0x00000000       0x4a CMakeFiles/nano_http_client.dir/C_/Users/yoyom/Desktop/Pico/pico-sdk/lib/lwip/src/netif/ppp/magic.c.obj
 .ARM.attributes
                0x00000000       0x2c CMakeFiles/nano_http_client.dir/C_/Users/yoyom/Desktop/Pico/pico-sdk/lib/lwip/src/netif/ppp/magic.c.obj
 .text          0x00000000        0x0 CMakeFiles/nano_http_client.dir/C_/Users/yoyom/Desktop/Pico/pico-sdk/lib/lwip/src/netif/ppp/mppe.c.obj
 .data          0x00000000        0x0 CMakeFiles/nano_http_client.dir/C_/Users/yoyom/Desktop/Pico/pico-sdk/lib/lwip/src/netif/ppp/mppe.c.obj
 .bss           0x00000000        0x0 CMakeFiles/nano_http_client.dir/C_/Users/yoyom/Desktop/Pico/pico-sdk/lib/lwip/src/netif/ppp/mppe.c.obj
 .debug_info    0x00000000       0x72 CMakeFiles/nano_http_client.dir/C_/Users/yoyom/Desktop/Pico/pico-sdk/lib/lwip/src/netif/ppp/mppe.c.obj
 .debug_abbrev  0x00000000       0x26 CMakeFiles/nano_http_client.dir/C_/Users/yoyom/Desktop/Pico/pico-sdk/lib/lwip/src/netif/ppp/mppe.c.obj
 .debug_aranges
                0x00000000       0x18 CMakeFiles/nano_http_client.dir/C_/Users/yoyom/Desktop/Pico/pico-sdk/lib/lwip/src/netif/ppp/mppe.c.obj
 .debug_line    0x00000000       0x1d CMakeFiles/nano_http_client.dir/C_/Users/yoyom/Desktop/Pico/pico-sdk/lib/lwip/src/netif/ppp/mppe.c.obj
 .debug_str     0x00000000      0x197 CMakeFiles/nano_http_client.dir/C_/Users/yoyom/Desktop/Pico/pico-sdk/lib/lwip/src/netif/ppp/mppe.c.obj
 .comment       0x00000000       0x4a CMakeFiles/nano_http_client.dir/C_/Users/yoyom/Desktop/Pico/pico-sdk/lib/lwip/src/netif/ppp/mppe.c.obj
 .ARM.attributes
                0x00000000       0x2c CMakeFiles/nano_http_client.dir/C_/Users/yoyom/Desktop/Pico/pico-sdk/lib/lwip/src/netif/ppp/mppe.c.obj
 .text          0x00000000        0x0 CMakeFiles/nano_http_client.dir/C_/Users/yoyom/Desktop/Pico/pico-sdk/lib/lwip/src/netif/ppp/multilink.c.obj
 .data          0x00000000        0x0 CMakeFiles/nano_http_client.dir/C_/Users/yoyom/Desktop/Pico/pico-sdk/lib/lwip/src/netif/ppp/multilink.c.obj
 .bss           0x00000000        0x0 CMakeFiles/nano_http_client.dir/C_/Users/yoyom/Desktop/Pico/pico-sdk/lib/lwip/src/netif/ppp/multilink.c.obj
 .debug_info    0x00000000       0x72 CMakeFiles/nano_http_client.dir/C_/Users/yoyom/Desktop/Pico/pico-sdk/lib/lwip/src/netif/ppp/multilink.c.obj
 .debug_abbrev  0x00000000       0x26 CMakeFiles/nano_http_client.dir/C_/Users/yoyom/Desktop/Pico/pico-sdk/lib/lwip/src/netif/ppp/multilink.c.obj
 .debug_aranges
                0x00000000       0x18 CMakeFiles/nano_http_client.dir/C_/Users/yoyom/Desktop/Pico/pico-sdk/lib/lwip/src/netif/ppp/multilink.c.obj
 .debug_line    0x00000000       0x1d CMakeFiles/nano_http_client.dir/C_/Users/yoyom/Desktop/Pico/pico-sdk/lib/lwip/src/netif/ppp/multilink.c.obj
 .debug_str     0x00000000      0x19c CMakeFiles/nano_http_client.dir/C_/Users/yoyom/Desktop/Pico/pico-sdk/lib/lwip/src/netif/ppp/multilink.c.obj
 .comment       0x00000000       0x4a CMakeFiles/nano_http_client.dir/C_/Users/yoyom/Desktop/Pico/pico-sdk/lib/lwip/src/netif/ppp/multilink.c.obj
 .ARM.attributes
                0x00000000       0x2c CMakeFiles/nano_http_client.dir/C_/Users/yoyom/Desktop/Pico/pico-sdk/lib/lwip/src/netif/ppp/multilink.c.obj
 .text          0x00000000        0x0 CMakeFiles/nano_http_client.dir/C_/Users/yoyom/Desktop/Pico/pico-sdk/lib/lwip/src/netif/ppp/ppp.c.obj
 .data          0x00000000        0x0 CMakeFiles/nano_http_client.dir/C_/Users/yoyom/Desktop/Pico/pico-sdk/lib/lwip/src/netif/ppp/ppp.c.obj
 .bss           0x00000000        0x0 CMakeFiles/nano_http_client.dir/C_/Users/yoyom/Desktop/Pico/pico-sdk/lib/lwip/src/netif/ppp/ppp.c.obj
 .debug_info    0x00000000       0x72 CMakeFiles/nano_http_client.dir/C_/Users/yoyom/Desktop/Pico/pico-sdk/lib/lwip/src/netif/ppp/ppp.c.obj
 .debug_abbrev  0x00000000       0x26 CMakeFiles/nano_http_client.dir/C_/Users/yoyom/Desktop/Pico/pico-sdk/lib/lwip/src/netif/ppp/ppp.c.obj
 .debug_aranges
                0x00000000       0x18 CMakeFiles/nano_http_client.dir/C_/Users/yoyom/Desktop/Pico/pico-sdk/lib/lwip/src/netif/ppp/ppp.c.obj
 .debug_line    0x00000000       0x1d CMakeFiles/nano_http_client.dir/C_/Users/yoyom/Desktop/Pico/pico-sdk/lib/lwip/src/netif/ppp/ppp.c.obj
 .debug_str     0x00000000      0x196 CMakeFiles/nano_http_client.dir/C_/Users/yoyom/Desktop/Pico/pico-sdk/lib/lwip/src/netif/ppp/ppp.c.obj
 .comment       0x00000000       0x4a CMakeFiles/nano_http_client.dir/C_/Users/yoyom/Desktop/Pico/pico-sdk/lib/lwip/src/netif/ppp/ppp.c.obj
 .ARM.attributes
                0x00000000       0x2c CMakeFiles/nano_http_client.dir/C_/Users/yoyom/Desktop/Pico/pico-sdk/lib/lwip/src/netif/ppp/ppp.c.obj
 .text          0x00000000        0x0 CMakeFiles/nano_http_client.dir/C_/Users/yoyom/Desktop/Pico/pico-sdk/lib/lwip/src/netif/ppp/pppapi.c.obj
 .data          0x00000000        0x0 CMakeFiles/nano_http_client.dir/C_/Users/yoyom/Desktop/Pico/pico-sdk/lib/lwip/src/netif/ppp/pppapi.c.obj
 .bss           0x00000000        0x0 CMakeFiles/nano_http_client.dir/C_/Users/yoyom/Desktop/Pico/pico-sdk/lib/lwip/src/netif/ppp/pppapi.c.obj
 .debug_info    0x00000000       0x72 CMakeFiles/nano_http_client.dir/C_/Users/yoyom/Desktop/Pico/pico-sdk/lib/lwip/src/netif/ppp/pppapi.c.obj
 .debug_abbrev  0x00000000       0x26 CMakeFiles/nano_http_client.dir/C_/Users/yoyom/Desktop/Pico/pico-sdk/lib/lwip/src/netif/ppp/pppapi.c.obj
 .debug_aranges
                0x00000000       0x18 CMakeFiles/nano_http_client.dir/C_/Users/yoyom/Desktop/Pico/pico-sdk/lib/lwip/src/netif/ppp/pppapi.c.obj
 .debug_line    0x00000000       0x1d CMakeFiles/nano_http_client.dir/C_/Users/yoyom/Desktop/Pico/pico-sdk/lib/lwip/src/netif/ppp/pppapi.c.obj
 .debug_str     0x00000000      0x199 CMakeFiles/nano_http_client.dir/C_/Users/yoyom/Desktop/Pico/pico-sdk/lib/lwip/src/netif/ppp/pppapi.c.obj
 .comment       0x00000000       0x4a CMakeFiles/nano_http_client.dir/C_/Users/yoyom/Desktop/Pico/pico-sdk/lib/lwip/src/netif/ppp/pppapi.c.obj
 .ARM.attributes
                0x00000000       0x2c CMakeFiles/nano_http_client.dir/C_/Users/yoyom/Desktop/Pico/pico-sdk/lib/lwip/src/netif/ppp/pppapi.c.obj
 .text          0x00000000        0x0 CMakeFiles/nano_http_client.dir/C_/Users/yoyom/Desktop/Pico/pico-sdk/lib/lwip/src/netif/ppp/pppcrypt.c.obj
 .data          0x00000000        0x0 CMakeFiles/nano_http_client.dir/C_/Users/yoyom/Desktop/Pico/pico-sdk/lib/lwip/src/netif/ppp/pppcrypt.c.obj
 .bss           0x00000000        0x0 CMakeFiles/nano_http_client.dir/C_/Users/yoyom/Desktop/Pico/pico-sdk/lib/lwip/src/netif/ppp/pppcrypt.c.obj
 .debug_info    0x00000000       0x72 CMakeFiles/nano_http_client.dir/C_/Users/yoyom/Desktop/Pico/pico-sdk/lib/lwip/src/netif/ppp/pppcrypt.c.obj
 .debug_abbrev  0x00000000       0x26 CMakeFiles/nano_http_client.dir/C_/Users/yoyom/Desktop/Pico/pico-sdk/lib/lwip/src/netif/ppp/pppcrypt.c.obj
 .debug_aranges
                0x00000000       0x18 CMakeFiles/nano_http_client.dir/C_/Users/yoyom/Desktop/Pico/pico-sdk/lib/lwip/src/netif/ppp/pppcrypt.c.obj
 .debug_line    0x00000000       0x1d CMakeFiles/nano_http_client.dir/C_/Users/yoyom/Desktop/Pico/pico-sdk/lib/lwip/src/netif/ppp/pppcrypt.c.obj
 .debug_str     0x00000000      0x19b CMakeFiles/nano_http_client.dir/C_/Users/yoyom/Desktop/Pico/pico-sdk/lib/lwip/src/netif/ppp/pppcrypt.c.obj
 .comment       0x00000000       0x4a CMakeFiles/nano_http_client.dir/C_/Users/yoyom/Desktop/Pico/pico-sdk/lib/lwip/src/netif/ppp/pppcrypt.c.obj
 .ARM.attributes
                0x00000000       0x2c CMakeFiles/nano_http_client.dir/C_/Users/yoyom/Desktop/Pico/pico-sdk/lib/lwip/src/netif/ppp/pppcrypt.c.obj
 .text          0x00000000        0x0 CMakeFiles/nano_http_client.dir/C_/Users/yoyom/Desktop/Pico/pico-sdk/lib/lwip/src/netif/ppp/pppoe.c.obj
 .data          0x00000000        0x0 CMakeFiles/nano_http_client.dir/C_/Users/yoyom/Desktop/Pico/pico-sdk/lib/lwip/src/netif/ppp/pppoe.c.obj
 .bss           0x00000000        0x0 CMakeFiles/nano_http_client.dir/C_/Users/yoyom/Desktop/Pico/pico-sdk/lib/lwip/src/netif/ppp/pppoe.c.obj
 .debug_info    0x00000000       0x72 CMakeFiles/nano_http_client.dir/C_/Users/yoyom/Desktop/Pico/pico-sdk/lib/lwip/src/netif/ppp/pppoe.c.obj
 .debug_abbrev  0x00000000       0x26 CMakeFiles/nano_http_client.dir/C_/Users/yoyom/Desktop/Pico/pico-sdk/lib/lwip/src/netif/ppp/pppoe.c.obj
 .debug_aranges
                0x00000000       0x18 CMakeFiles/nano_http_client.dir/C_/Users/yoyom/Desktop/Pico/pico-sdk/lib/lwip/src/netif/ppp/pppoe.c.obj
 .debug_line    0x00000000       0x1d CMakeFiles/nano_http_client.dir/C_/Users/yoyom/Desktop/Pico/pico-sdk/lib/lwip/src/netif/ppp/pppoe.c.obj
 .debug_str     0x00000000      0x198 CMakeFiles/nano_http_client.dir/C_/Users/yoyom/Desktop/Pico/pico-sdk/lib/lwip/src/netif/ppp/pppoe.c.obj
 .comment       0x00000000       0x4a CMakeFiles/nano_http_client.dir/C_/Users/yoyom/Desktop/Pico/pico-sdk/lib/lwip/src/netif/ppp/pppoe.c.obj
 .ARM.attributes
                0x00000000       0x2c CMakeFiles/nano_http_client.dir/C_/Users/yoyom/Desktop/Pico/pico-sdk/lib/lwip/src/netif/ppp/pppoe.c.obj
 .text          0x00000000        0x0 CMakeFiles/nano_http_client.dir/C_/Users/yoyom/Desktop/Pico/pico-sdk/lib/lwip/src/netif/ppp/pppol2tp.c.obj
 .data          0x00000000        0x0 CMakeFiles/nano_http_client.dir/C_/Users/yoyom/Desktop/Pico/pico-sdk/lib/lwip/src/netif/ppp/pppol2tp.c.obj
 .bss           0x00000000        0x0 CMakeFiles/nano_http_client.dir/C_/Users/yoyom/Desktop/Pico/pico-sdk/lib/lwip/src/netif/ppp/pppol2tp.c.obj
 .debug_info    0x00000000       0x72 CMakeFiles/nano_http_client.dir/C_/Users/yoyom/Desktop/Pico/pico-sdk/lib/lwip/src/netif/ppp/pppol2tp.c.obj
 .debug_abbrev  0x00000000       0x26 CMakeFiles/nano_http_client.dir/C_/Users/yoyom/Desktop/Pico/pico-sdk/lib/lwip/src/netif/ppp/pppol2tp.c.obj
 .debug_aranges
                0x00000000       0x18 CMakeFiles/nano_http_client.dir/C_/Users/yoyom/Desktop/Pico/pico-sdk/lib/lwip/src/netif/ppp/pppol2tp.c.obj
 .debug_line    0x00000000       0x1d CMakeFiles/nano_http_client.dir/C_/Users/yoyom/Desktop/Pico/pico-sdk/lib/lwip/src/netif/ppp/pppol2tp.c.obj
 .debug_str     0x00000000      0x19b CMakeFiles/nano_http_client.dir/C_/Users/yoyom/Desktop/Pico/pico-sdk/lib/lwip/src/netif/ppp/pppol2tp.c.obj
 .comment       0x00000000       0x4a CMakeFiles/nano_http_client.dir/C_/Users/yoyom/Desktop/Pico/pico-sdk/lib/lwip/src/netif/ppp/pppol2tp.c.obj
 .ARM.attributes
                0x00000000       0x2c CMakeFiles/nano_http_client.dir/C_/Users/yoyom/Desktop/Pico/pico-sdk/lib/lwip/src/netif/ppp/pppol2tp.c.obj
 .text          0x00000000        0x0 CMakeFiles/nano_http_client.dir/C_/Users/yoyom/Desktop/Pico/pico-sdk/lib/lwip/src/netif/ppp/pppos.c.obj
 .data          0x00000000        0x0 CMakeFiles/nano_http_client.dir/C_/Users/yoyom/Desktop/Pico/pico-sdk/lib/lwip/src/netif/ppp/pppos.c.obj
 .bss           0x00000000        0x0 CMakeFiles/nano_http_client.dir/C_/Users/yoyom/Desktop/Pico/pico-sdk/lib/lwip/src/netif/ppp/pppos.c.obj
 .debug_info    0x00000000       0x72 CMakeFiles/nano_http_client.dir/C_/Users/yoyom/Desktop/Pico/pico-sdk/lib/lwip/src/netif/ppp/pppos.c.obj
 .debug_abbrev  0x00000000       0x26 CMakeFiles/nano_http_client.dir/C_/Users/yoyom/Desktop/Pico/pico-sdk/lib/lwip/src/netif/ppp/pppos.c.obj
 .debug_aranges
                0x00000000       0x18 CMakeFiles/nano_http_client.dir/C_/Users/yoyom/Desktop/Pico/pico-sdk/lib/lwip/src/netif/ppp/pppos.c.obj
 .debug_line    0x00000000       0x1d CMakeFiles/nano_http_client.dir/C_/Users/yoyom/Desktop/Pico/pico-sdk/lib/lwip/src/netif/ppp/pppos.c.obj
 .debug_str     0x00000000      0x198 CMakeFiles/nano_http_client.dir/C_/Users/yoyom/Desktop/Pico/pico-sdk/lib/lwip/src/netif/ppp/pppos.c.obj
 .comment       0x00000000       0x4a CMakeFiles/nano_http_client.dir/C_/Users/yoyom/Desktop/Pico/pico-sdk/lib/lwip/src/netif/ppp/pppos.c.obj
 .ARM.attributes
                0x00000000       0x2c CMakeFiles/nano_http_client.dir/C_/Users/yoyom/Desktop/Pico/pico-sdk/lib/lwip/src/netif/ppp/pppos.c.obj
 .text          0x00000000        0x0 CMakeFiles/nano_http_client.dir/C_/Users/yoyom/Desktop/Pico/pico-sdk/lib/lwip/src/netif/ppp/upap.c.obj
 .data          0x00000000        0x0 CMakeFiles/nano_http_client.dir/C_/Users/yoyom/Desktop/Pico/pico-sdk/lib/lwip/src/netif/ppp/upap.c.obj
 .bss           0x00000000        0x0 CMakeFiles/nano_http_client.dir/C_/Users/yoyom/Desktop/Pico/pico-sdk/lib/lwip/src/netif/ppp/upap.c.obj
 .debug_info    0x00000000       0x72 CMakeFiles/nano_http_client.dir/C_/Users/yoyom/Desktop/Pico/pico-sdk/lib/lwip/src/netif/ppp/upap.c.obj
 .debug_abbrev  0x00000000       0x26 CMakeFiles/nano_http_client.dir/C_/Users/yoyom/Desktop/Pico/pico-sdk/lib/lwip/src/netif/ppp/upap.c.obj
 .debug_aranges
                0x00000000       0x18 CMakeFiles/nano_http_client.dir/C_/Users/yoyom/Desktop/Pico/pico-sdk/lib/lwip/src/netif/ppp/upap.c.obj
 .debug_line    0x00000000       0x1d CMakeFiles/nano_http_client.dir/C_/Users/yoyom/Desktop/Pico/pico-sdk/lib/lwip/src/netif/ppp/upap.c.obj
 .debug_str     0x00000000      0x197 CMakeFiles/nano_http_client.dir/C_/Users/yoyom/Desktop/Pico/pico-sdk/lib/lwip/src/netif/ppp/upap.c.obj
 .comment       0x00000000       0x4a CMakeFiles/nano_http_client.dir/C_/Users/yoyom/Desktop/Pico/pico-sdk/lib/lwip/src/netif/ppp/upap.c.obj
 .ARM.attributes
                0x00000000       0x2c CMakeFiles/nano_http_client.dir/C_/Users/yoyom/Desktop/Pico/pico-sdk/lib/lwip/src/netif/ppp/upap.c.obj
 .text          0x00000000        0x0 CMakeFiles/nano_http_client.dir/C_/Users/yoyom/Desktop/Pico/pico-sdk/lib/lwip/src/netif/ppp/utils.c.obj
 .data          0x00000000        0x0 CMakeFiles/nano_http_client.dir/C_/Users/yoyom/Desktop/Pico/pico-sdk/lib/lwip/src/netif/ppp/utils.c.obj
 .bss           0x00000000        0x0 CMakeFiles/nano_http_client.dir/C_/Users/yoyom/Desktop/Pico/pico-sdk/lib/lwip/src/netif/ppp/utils.c.obj
 .debug_info    0x00000000       0x72 CMakeFiles/nano_http_client.dir/C_/Users/yoyom/Desktop/Pico/pico-sdk/lib/lwip/src/netif/ppp/utils.c.obj
 .debug_abbrev  0x00000000       0x26 CMakeFiles/nano_http_client.dir/C_/Users/yoyom/Desktop/Pico/pico-sdk/lib/lwip/src/netif/ppp/utils.c.obj
 .debug_aranges
                0x00000000       0x18 CMakeFiles/nano_http_client.dir/C_/Users/yoyom/Desktop/Pico/pico-sdk/lib/lwip/src/netif/ppp/utils.c.obj
 .debug_line    0x00000000       0x1d CMakeFiles/nano_http_client.dir/C_/Users/yoyom/Desktop/Pico/pico-sdk/lib/lwip/src/netif/ppp/utils.c.obj
 .debug_str     0x00000000      0x198 CMakeFiles/nano_http_client.dir/C_/Users/yoyom/Desktop/Pico/pico-sdk/lib/lwip/src/netif/ppp/utils.c.obj
 .comment       0x00000000       0x4a CMakeFiles/nano_http_client.dir/C_/Users/yoyom/Desktop/Pico/pico-sdk/lib/lwip/src/netif/ppp/utils.c.obj
 .ARM.attributes
                0x00000000       0x2c CMakeFiles/nano_http_client.dir/C_/Users/yoyom/Desktop/Pico/pico-sdk/lib/lwip/src/netif/ppp/utils.c.obj
 .text          0x00000000        0x0 CMakeFiles/nano_http_client.dir/C_/Users/yoyom/Desktop/Pico/pico-sdk/lib/lwip/src/netif/ppp/vj.c.obj
 .data          0x00000000        0x0 CMakeFiles/nano_http_client.dir/C_/Users/yoyom/Desktop/Pico/pico-sdk/lib/lwip/src/netif/ppp/vj.c.obj
 .bss           0x00000000        0x0 CMakeFiles/nano_http_client.dir/C_/Users/yoyom/Desktop/Pico/pico-sdk/lib/lwip/src/netif/ppp/vj.c.obj
 .debug_info    0x00000000       0x72 CMakeFiles/nano_http_client.dir/C_/Users/yoyom/Desktop/Pico/pico-sdk/lib/lwip/src/netif/ppp/vj.c.obj
 .debug_abbrev  0x00000000       0x26 CMakeFiles/nano_http_client.dir/C_/Users/yoyom/Desktop/Pico/pico-sdk/lib/lwip/src/netif/ppp/vj.c.obj
 .debug_aranges
                0x00000000       0x18 CMakeFiles/nano_http_client.dir/C_/Users/yoyom/Desktop/Pico/pico-sdk/lib/lwip/src/netif/ppp/vj.c.obj
 .debug_line    0x00000000       0x1d CMakeFiles/nano_http_client.dir/C_/Users/yoyom/Desktop/Pico/pico-sdk/lib/lwip/src/netif/ppp/vj.c.obj
 .debug_str     0x00000000      0x195 CMakeFiles/nano_http_client.dir/C_/Users/yoyom/Desktop/Pico/pico-sdk/lib/lwip/src/netif/ppp/vj.c.obj
 .comment       0x00000000       0x4a CMakeFiles/nano_http_client.dir/C_/Users/yoyom/Desktop/Pico/pico-sdk/lib/lwip/src/netif/ppp/vj.c.obj
 .ARM.attributes
                0x00000000       0x2c CMakeFiles/nano_http_client.dir/C_/Users/yoyom/Desktop/Pico/pico-sdk/lib/lwip/src/netif/ppp/vj.c.obj
 .text          0x00000000        0x0 CMakeFiles/nano_http_client.dir/C_/Users/yoyom/Desktop/Pico/pico-sdk/lib/lwip/src/netif/ppp/polarssl/arc4.c.obj
 .data          0x00000000        0x0 CMakeFiles/nano_http_client.dir/C_/Users/yoyom/Desktop/Pico/pico-sdk/lib/lwip/src/netif/ppp/polarssl/arc4.c.obj
 .bss           0x00000000        0x0 CMakeFiles/nano_http_client.dir/C_/Users/yoyom/Desktop/Pico/pico-sdk/lib/lwip/src/netif/ppp/polarssl/arc4.c.obj
 .debug_info    0x00000000       0x72 CMakeFiles/nano_http_client.dir/C_/Users/yoyom/Desktop/Pico/pico-sdk/lib/lwip/src/netif/ppp/polarssl/arc4.c.obj
 .debug_abbrev  0x00000000       0x26 CMakeFiles/nano_http_client.dir/C_/Users/yoyom/Desktop/Pico/pico-sdk/lib/lwip/src/netif/ppp/polarssl/arc4.c.obj
 .debug_aranges
                0x00000000       0x18 CMakeFiles/nano_http_client.dir/C_/Users/yoyom/Desktop/Pico/pico-sdk/lib/lwip/src/netif/ppp/polarssl/arc4.c.obj
 .debug_line    0x00000000       0x1d CMakeFiles/nano_http_client.dir/C_/Users/yoyom/Desktop/Pico/pico-sdk/lib/lwip/src/netif/ppp/polarssl/arc4.c.obj
 .debug_str     0x00000000      0x1a0 CMakeFiles/nano_http_client.dir/C_/Users/yoyom/Desktop/Pico/pico-sdk/lib/lwip/src/netif/ppp/polarssl/arc4.c.obj
 .comment       0x00000000       0x4a CMakeFiles/nano_http_client.dir/C_/Users/yoyom/Desktop/Pico/pico-sdk/lib/lwip/src/netif/ppp/polarssl/arc4.c.obj
 .ARM.attributes
                0x00000000       0x2c CMakeFiles/nano_http_client.dir/C_/Users/yoyom/Desktop/Pico/pico-sdk/lib/lwip/src/netif/ppp/polarssl/arc4.c.obj
 .text          0x00000000        0x0 CMakeFiles/nano_http_client.dir/C_/Users/yoyom/Desktop/Pico/pico-sdk/lib/lwip/src/netif/ppp/polarssl/des.c.obj
 .data          0x00000000        0x0 CMakeFiles/nano_http_client.dir/C_/Users/yoyom/Desktop/Pico/pico-sdk/lib/lwip/src/netif/ppp/polarssl/des.c.obj
 .bss           0x00000000        0x0 CMakeFiles/nano_http_client.dir/C_/Users/yoyom/Desktop/Pico/pico-sdk/lib/lwip/src/netif/ppp/polarssl/des.c.obj
 .debug_info    0x00000000       0x72 CMakeFiles/nano_http_client.dir/C_/Users/yoyom/Desktop/Pico/pico-sdk/lib/lwip/src/netif/ppp/polarssl/des.c.obj
 .debug_abbrev  0x00000000       0x26 CMakeFiles/nano_http_client.dir/C_/Users/yoyom/Desktop/Pico/pico-sdk/lib/lwip/src/netif/ppp/polarssl/des.c.obj
 .debug_aranges
                0x00000000       0x18 CMakeFiles/nano_http_client.dir/C_/Users/yoyom/Desktop/Pico/pico-sdk/lib/lwip/src/netif/ppp/polarssl/des.c.obj
 .debug_line    0x00000000       0x1d CMakeFiles/nano_http_client.dir/C_/Users/yoyom/Desktop/Pico/pico-sdk/lib/lwip/src/netif/ppp/polarssl/des.c.obj
 .debug_str     0x00000000      0x19f CMakeFiles/nano_http_client.dir/C_/Users/yoyom/Desktop/Pico/pico-sdk/lib/lwip/src/netif/ppp/polarssl/des.c.obj
 .comment       0x00000000       0x4a CMakeFiles/nano_http_client.dir/C_/Users/yoyom/Desktop/Pico/pico-sdk/lib/lwip/src/netif/ppp/polarssl/des.c.obj
 .ARM.attributes
                0x00000000       0x2c CMakeFiles/nano_http_client.dir/C_/Users/yoyom/Desktop/Pico/pico-sdk/lib/lwip/src/netif/ppp/polarssl/des.c.obj
 .text          0x00000000        0x0 CMakeFiles/nano_http_client.dir/C_/Users/yoyom/Desktop/Pico/pico-sdk/lib/lwip/src/netif/ppp/polarssl/md4.c.obj
 .data          0x00000000        0x0 CMakeFiles/nano_http_client.dir/C_/Users/yoyom/Desktop/Pico/pico-sdk/lib/lwip/src/netif/ppp/polarssl/md4.c.obj
 .bss           0x00000000        0x0 CMakeFiles/nano_http_client.dir/C_/Users/yoyom/Desktop/Pico/pico-sdk/lib/lwip/src/netif/ppp/polarssl/md4.c.obj
 .debug_info    0x00000000       0x72 CMakeFiles/nano_http_client.dir/C_/Users/yoyom/Desktop/Pico/pico-sdk/lib/lwip/src/netif/ppp/polarssl/md4.c.obj
 .debug_abbrev  0x00000000       0x26 CMakeFiles/nano_http_client.dir/C_/Users/yoyom/Desktop/Pico/pico-sdk/lib/lwip/src/netif/ppp/polarssl/md4.c.obj
 .debug_aranges
                0x00000000       0x18 CMakeFiles/nano_http_client.dir/C_/Users/yoyom/Desktop/Pico/pico-sdk/lib/lwip/src/netif/ppp/polarssl/md4.c.obj
 .debug_line    0x00000000       0x1d CMakeFiles/nano_http_client.dir/C_/Users/yoyom/Desktop/Pico/pico-sdk/lib/lwip/src/netif/ppp/polarssl/md4.c.obj
 .debug_str     0x00000000      0x19f CMakeFiles/nano_http_client.dir/C_/Users/yoyom/Desktop/Pico/pico-sdk/lib/lwip/src/netif/ppp/polarssl/md4.c.obj
 .comment       0x00000000       0x4a CMakeFiles/nano_http_client.dir/C_/Users/yoyom/Desktop/Pico/pico-sdk/lib/lwip/src/netif/ppp/polarssl/md4.c.obj
 .ARM.attributes
                0x00000000       0x2c CMakeFiles/nano_http_client.dir/C_/Users/yoyom/Desktop/Pico/pico-sdk/lib/lwip/src/netif/ppp/polarssl/md4.c.obj
 .text          0x00000000        0x0 CMakeFiles/nano_http_client.dir/C_/Users/yoyom/Desktop/Pico/pico-sdk/lib/lwip/src/netif/ppp/polarssl/md5.c.obj
 .data          0x00000000        0x0 CMakeFiles/nano_http_client.dir/C_/Users/yoyom/Desktop/Pico/pico-sdk/lib/lwip/src/netif/ppp/polarssl/md5.c.obj
 .bss           0x00000000        0x0 CMakeFiles/nano_http_client.dir/C_/Users/yoyom/Desktop/Pico/pico-sdk/lib/lwip/src/netif/ppp/polarssl/md5.c.obj
 .debug_info    0x00000000       0x72 CMakeFiles/nano_http_client.dir/C_/Users/yoyom/Desktop/Pico/pico-sdk/lib/lwip/src/netif/ppp/polarssl/md5.c.obj
 .debug_abbrev  0x00000000       0x26 CMakeFiles/nano_http_client.dir/C_/Users/yoyom/Desktop/Pico/pico-sdk/lib/lwip/src/netif/ppp/polarssl/md5.c.obj
 .debug_aranges
                0x00000000       0x18 CMakeFiles/nano_http_client.dir/C_/Users/yoyom/Desktop/Pico/pico-sdk/lib/lwip/src/netif/ppp/polarssl/md5.c.obj
 .debug_line    0x00000000       0x1d CMakeFiles/nano_http_client.dir/C_/Users/yoyom/Desktop/Pico/pico-sdk/lib/lwip/src/netif/ppp/polarssl/md5.c.obj
 .debug_str     0x00000000      0x19f CMakeFiles/nano_http_client.dir/C_/Users/yoyom/Desktop/Pico/pico-sdk/lib/lwip/src/netif/ppp/polarssl/md5.c.obj
 .comment       0x00000000       0x4a CMakeFiles/nano_http_client.dir/C_/Users/yoyom/Desktop/Pico/pico-sdk/lib/lwip/src/netif/ppp/polarssl/md5.c.obj
 .ARM.attributes
                0x00000000       0x2c CMakeFiles/nano_http_client.dir/C_/Users/yoyom/Desktop/Pico/pico-sdk/lib/lwip/src/netif/ppp/polarssl/md5.c.obj
 .text          0x00000000        0x0 CMakeFiles/nano_http_client.dir/C_/Users/yoyom/Desktop/Pico/pico-sdk/lib/lwip/src/netif/ppp/polarssl/sha1.c.obj
 .data          0x00000000        0x0 CMakeFiles/nano_http_client.dir/C_/Users/yoyom/Desktop/Pico/pico-sdk/lib/lwip/src/netif/ppp/polarssl/sha1.c.obj
 .bss           0x00000000        0x0 CMakeFiles/nano_http_client.dir/C_/Users/yoyom/Desktop/Pico/pico-sdk/lib/lwip/src/netif/ppp/polarssl/sha1.c.obj
 .debug_info    0x00000000       0x72 CMakeFiles/nano_http_client.dir/C_/Users/yoyom/Desktop/Pico/pico-sdk/lib/lwip/src/netif/ppp/polarssl/sha1.c.obj
 .debug_abbrev  0x00000000       0x26 CMakeFiles/nano_http_client.dir/C_/Users/yoyom/Desktop/Pico/pico-sdk/lib/lwip/src/netif/ppp/polarssl/sha1.c.obj
 .debug_aranges
                0x00000000       0x18 CMakeFiles/nano_http_client.dir/C_/Users/yoyom/Desktop/Pico/pico-sdk/lib/lwip/src/netif/ppp/polarssl/sha1.c.obj
 .debug_line    0x00000000       0x1d CMakeFiles/nano_http_client.dir/C_/Users/yoyom/Desktop/Pico/pico-sdk/lib/lwip/src/netif/ppp/polarssl/sha1.c.obj
 .debug_str     0x00000000      0x1a0 CMakeFiles/nano_http_client.dir/C_/Users/yoyom/Desktop/Pico/pico-sdk/lib/lwip/src/netif/ppp/polarssl/sha1.c.obj
 .comment       0x00000000       0x4a CMakeFiles/nano_http_client.dir/C_/Users/yoyom/Desktop/Pico/pico-sdk/lib/lwip/src/netif/ppp/polarssl/sha1.c.obj
 .ARM.attributes
                0x00000000       0x2c CMakeFiles/nano_http_client.dir/C_/Users/yoyom/Desktop/Pico/pico-sdk/lib/lwip/src/netif/ppp/polarssl/sha1.c.obj
 .text          0x00000000        0x0 CMakeFiles/nano_http_client.dir/C_/Users/yoyom/Desktop/Pico/pico-sdk/src/rp2_common/hardware_adc/adc.c.obj
 .data          0x00000000        0x0 CMakeFiles/nano_http_client.dir/C_/Users/yoyom/Desktop/Pico/pico-sdk/src/rp2_common/hardware_adc/adc.c.obj
 .bss           0x00000000        0x0 CMakeFiles/nano_http_client.dir/C_/Users/yoyom/Desktop/Pico/pico-sdk/src/rp2_common/hardware_adc/adc.c.obj
 .text.adc_init
                0x00000000       0x38 CMakeFiles/nano_http_client.dir/C_/Users/yoyom/Desktop/Pico/pico-sdk/src/rp2_common/hardware_adc/adc.c.obj
 .debug_info    0x00000000      0x415 CMakeFiles/nano_http_client.dir/C_/Users/yoyom/Desktop/Pico/pico-sdk/src/rp2_common/hardware_adc/adc.c.obj
 .debug_abbrev  0x00000000      0x13a CMakeFiles/nano_http_client.dir/C_/Users/yoyom/Desktop/Pico/pico-sdk/src/rp2_common/hardware_adc/adc.c.obj
 .debug_loc     0x00000000       0xf0 CMakeFiles/nano_http_client.dir/C_/Users/yoyom/Desktop/Pico/pico-sdk/src/rp2_common/hardware_adc/adc.c.obj
 .debug_aranges
                0x00000000       0x20 CMakeFiles/nano_http_client.dir/C_/Users/yoyom/Desktop/Pico/pico-sdk/src/rp2_common/hardware_adc/adc.c.obj
 .debug_ranges  0x00000000       0x70 CMakeFiles/nano_http_client.dir/C_/Users/yoyom/Desktop/Pico/pico-sdk/src/rp2_common/hardware_adc/adc.c.obj
 .debug_line    0x00000000      0x3df CMakeFiles/nano_http_client.dir/C_/Users/yoyom/Desktop/Pico/pico-sdk/src/rp2_common/hardware_adc/adc.c.obj
 .debug_str     0x00000000      0x421 CMakeFiles/nano_http_client.dir/C_/Users/yoyom/Desktop/Pico/pico-sdk/src/rp2_common/hardware_adc/adc.c.obj
 .comment       0x00000000       0x4a CMakeFiles/nano_http_client.dir/C_/Users/yoyom/Desktop/Pico/pico-sdk/src/rp2_common/hardware_adc/adc.c.obj
 .debug_frame   0x00000000       0x20 CMakeFiles/nano_http_client.dir/C_/Users/yoyom/Desktop/Pico/pico-sdk/src/rp2_common/hardware_adc/adc.c.obj
 .ARM.attributes
                0x00000000       0x2c CMakeFiles/nano_http_client.dir/C_/Users/yoyom/Desktop/Pico/pico-sdk/src/rp2_common/hardware_adc/adc.c.obj
 .text          0x00000000        0x0 pico-sdk/src/rp2040/boot_stage2/CMakeFiles/bs2_default_library.dir/./bs2_default_padded_checksummed.S.obj
 .data          0x00000000        0x0 pico-sdk/src/rp2040/boot_stage2/CMakeFiles/bs2_default_library.dir/./bs2_default_padded_checksummed.S.obj
 .bss           0x00000000        0x0 pico-sdk/src/rp2040/boot_stage2/CMakeFiles/bs2_default_library.dir/./bs2_default_padded_checksummed.S.obj
 .data          0x00000000        0x0 c:/vsarm/armcc/102021~1.10/bin/../lib/gcc/arm-none-eabi/10.3.1/thumb/v6-m/nofp\libgcc.a(_dvmd_tls.o)
 .bss           0x00000000        0x0 c:/vsarm/armcc/102021~1.10/bin/../lib/gcc/arm-none-eabi/10.3.1/thumb/v6-m/nofp\libgcc.a(_dvmd_tls.o)
 .text          0x00000000        0x0 c:/vsarm/armcc/102021~1.10/bin/../lib/gcc/arm-none-eabi/10.3.1/../../../../arm-none-eabi/lib/thumb/v6-m/nofp\libg.a(lib_a-atoi.o)
 .data          0x00000000        0x0 c:/vsarm/armcc/102021~1.10/bin/../lib/gcc/arm-none-eabi/10.3.1/../../../../arm-none-eabi/lib/thumb/v6-m/nofp\libg.a(lib_a-atoi.o)
 .bss           0x00000000        0x0 c:/vsarm/armcc/102021~1.10/bin/../lib/gcc/arm-none-eabi/10.3.1/../../../../arm-none-eabi/lib/thumb/v6-m/nofp\libg.a(lib_a-atoi.o)
 .text.atoi     0x00000000        0xc c:/vsarm/armcc/102021~1.10/bin/../lib/gcc/arm-none-eabi/10.3.1/../../../../arm-none-eabi/lib/thumb/v6-m/nofp\libg.a(lib_a-atoi.o)
 .text._atoi_r  0x00000000        0xc c:/vsarm/armcc/102021~1.10/bin/../lib/gcc/arm-none-eabi/10.3.1/../../../../arm-none-eabi/lib/thumb/v6-m/nofp\libg.a(lib_a-atoi.o)
 .debug_frame   0x00000000       0x40 c:/vsarm/armcc/102021~1.10/bin/../lib/gcc/arm-none-eabi/10.3.1/../../../../arm-none-eabi/lib/thumb/v6-m/nofp\libg.a(lib_a-atoi.o)
 .ARM.attributes
                0x00000000       0x2c c:/vsarm/armcc/102021~1.10/bin/../lib/gcc/arm-none-eabi/10.3.1/../../../../arm-none-eabi/lib/thumb/v6-m/nofp\libg.a(lib_a-atoi.o)
 .text          0x00000000        0x0 c:/vsarm/armcc/102021~1.10/bin/../lib/gcc/arm-none-eabi/10.3.1/../../../../arm-none-eabi/lib/thumb/v6-m/nofp\libg.a(lib_a-calloc.o)
 .data          0x00000000        0x0 c:/vsarm/armcc/102021~1.10/bin/../lib/gcc/arm-none-eabi/10.3.1/../../../../arm-none-eabi/lib/thumb/v6-m/nofp\libg.a(lib_a-calloc.o)
 .bss           0x00000000        0x0 c:/vsarm/armcc/102021~1.10/bin/../lib/gcc/arm-none-eabi/10.3.1/../../../../arm-none-eabi/lib/thumb/v6-m/nofp\libg.a(lib_a-calloc.o)
 .text.calloc   0x00000000       0x18 c:/vsarm/armcc/102021~1.10/bin/../lib/gcc/arm-none-eabi/10.3.1/../../../../arm-none-eabi/lib/thumb/v6-m/nofp\libg.a(lib_a-calloc.o)
 .debug_frame   0x00000000       0x28 c:/vsarm/armcc/102021~1.10/bin/../lib/gcc/arm-none-eabi/10.3.1/../../../../arm-none-eabi/lib/thumb/v6-m/nofp\libg.a(lib_a-calloc.o)
 .ARM.attributes
                0x00000000       0x2c c:/vsarm/armcc/102021~1.10/bin/../lib/gcc/arm-none-eabi/10.3.1/../../../../arm-none-eabi/lib/thumb/v6-m/nofp\libg.a(lib_a-calloc.o)
 .text          0x00000000        0x0 c:/vsarm/armcc/102021~1.10/bin/../lib/gcc/arm-none-eabi/10.3.1/../../../../arm-none-eabi/lib/thumb/v6-m/nofp\libg.a(lib_a-callocr.o)
 .data          0x00000000        0x0 c:/vsarm/armcc/102021~1.10/bin/../lib/gcc/arm-none-eabi/10.3.1/../../../../arm-none-eabi/lib/thumb/v6-m/nofp\libg.a(lib_a-callocr.o)
 .bss           0x00000000        0x0 c:/vsarm/armcc/102021~1.10/bin/../lib/gcc/arm-none-eabi/10.3.1/../../../../arm-none-eabi/lib/thumb/v6-m/nofp\libg.a(lib_a-callocr.o)
 .text._calloc_r
                0x00000000       0x9c c:/vsarm/armcc/102021~1.10/bin/../lib/gcc/arm-none-eabi/10.3.1/../../../../arm-none-eabi/lib/thumb/v6-m/nofp\libg.a(lib_a-callocr.o)
 .debug_frame   0x00000000       0x2c c:/vsarm/armcc/102021~1.10/bin/../lib/gcc/arm-none-eabi/10.3.1/../../../../arm-none-eabi/lib/thumb/v6-m/nofp\libg.a(lib_a-callocr.o)
 .ARM.attributes
                0x00000000       0x2c c:/vsarm/armcc/102021~1.10/bin/../lib/gcc/arm-none-eabi/10.3.1/../../../../arm-none-eabi/lib/thumb/v6-m/nofp\libg.a(lib_a-callocr.o)
 .text          0x00000000        0x0 c:/vsarm/armcc/102021~1.10/bin/../lib/gcc/arm-none-eabi/10.3.1/../../../../arm-none-eabi/lib/thumb/v6-m/nofp\libg.a(lib_a-ctype_.o)
 .data          0x00000000        0x0 c:/vsarm/armcc/102021~1.10/bin/../lib/gcc/arm-none-eabi/10.3.1/../../../../arm-none-eabi/lib/thumb/v6-m/nofp\libg.a(lib_a-ctype_.o)
 .bss           0x00000000        0x0 c:/vsarm/armcc/102021~1.10/bin/../lib/gcc/arm-none-eabi/10.3.1/../../../../arm-none-eabi/lib/thumb/v6-m/nofp\libg.a(lib_a-ctype_.o)
 .text          0x00000000        0x0 c:/vsarm/armcc/102021~1.10/bin/../lib/gcc/arm-none-eabi/10.3.1/../../../../arm-none-eabi/lib/thumb/v6-m/nofp\libg.a(lib_a-errno.o)
 .data          0x00000000        0x0 c:/vsarm/armcc/102021~1.10/bin/../lib/gcc/arm-none-eabi/10.3.1/../../../../arm-none-eabi/lib/thumb/v6-m/nofp\libg.a(lib_a-errno.o)
 .bss           0x00000000        0x0 c:/vsarm/armcc/102021~1.10/bin/../lib/gcc/arm-none-eabi/10.3.1/../../../../arm-none-eabi/lib/thumb/v6-m/nofp\libg.a(lib_a-errno.o)
 .text.__errno  0x00000000        0xc c:/vsarm/armcc/102021~1.10/bin/../lib/gcc/arm-none-eabi/10.3.1/../../../../arm-none-eabi/lib/thumb/v6-m/nofp\libg.a(lib_a-errno.o)
 .debug_frame   0x00000000       0x20 c:/vsarm/armcc/102021~1.10/bin/../lib/gcc/arm-none-eabi/10.3.1/../../../../arm-none-eabi/lib/thumb/v6-m/nofp\libg.a(lib_a-errno.o)
 .ARM.attributes
                0x00000000       0x2c c:/vsarm/armcc/102021~1.10/bin/../lib/gcc/arm-none-eabi/10.3.1/../../../../arm-none-eabi/lib/thumb/v6-m/nofp\libg.a(lib_a-errno.o)
 .text          0x00000000        0x0 c:/vsarm/armcc/102021~1.10/bin/../lib/gcc/arm-none-eabi/10.3.1/../../../../arm-none-eabi/lib/thumb/v6-m/nofp\libg.a(lib_a-impure.o)
 .data          0x00000000        0x0 c:/vsarm/armcc/102021~1.10/bin/../lib/gcc/arm-none-eabi/10.3.1/../../../../arm-none-eabi/lib/thumb/v6-m/nofp\libg.a(lib_a-impure.o)
 .bss           0x00000000        0x0 c:/vsarm/armcc/102021~1.10/bin/../lib/gcc/arm-none-eabi/10.3.1/../../../../arm-none-eabi/lib/thumb/v6-m/nofp\libg.a(lib_a-impure.o)
 .data._impure_ptr
                0x00000000        0x4 c:/vsarm/armcc/102021~1.10/bin/../lib/gcc/arm-none-eabi/10.3.1/../../../../arm-none-eabi/lib/thumb/v6-m/nofp\libg.a(lib_a-impure.o)
 .data.impure_data
                0x00000000      0x428 c:/vsarm/armcc/102021~1.10/bin/../lib/gcc/arm-none-eabi/10.3.1/../../../../arm-none-eabi/lib/thumb/v6-m/nofp\libg.a(lib_a-impure.o)
 .rodata._global_impure_ptr
                0x00000000        0x4 c:/vsarm/armcc/102021~1.10/bin/../lib/gcc/arm-none-eabi/10.3.1/../../../../arm-none-eabi/lib/thumb/v6-m/nofp\libg.a(lib_a-impure.o)
 .ARM.attributes
                0x00000000       0x2c c:/vsarm/armcc/102021~1.10/bin/../lib/gcc/arm-none-eabi/10.3.1/../../../../arm-none-eabi/lib/thumb/v6-m/nofp\libg.a(lib_a-impure.o)
 .text          0x00000000        0x0 c:/vsarm/armcc/102021~1.10/bin/../lib/gcc/arm-none-eabi/10.3.1/../../../../arm-none-eabi/lib/thumb/v6-m/nofp\libg.a(lib_a-init.o)
 .data          0x00000000        0x0 c:/vsarm/armcc/102021~1.10/bin/../lib/gcc/arm-none-eabi/10.3.1/../../../../arm-none-eabi/lib/thumb/v6-m/nofp\libg.a(lib_a-init.o)
 .bss           0x00000000        0x0 c:/vsarm/armcc/102021~1.10/bin/../lib/gcc/arm-none-eabi/10.3.1/../../../../arm-none-eabi/lib/thumb/v6-m/nofp\libg.a(lib_a-init.o)
 .text.__libc_init_array
                0x00000000       0x44 c:/vsarm/armcc/102021~1.10/bin/../lib/gcc/arm-none-eabi/10.3.1/../../../../arm-none-eabi/lib/thumb/v6-m/nofp\libg.a(lib_a-init.o)
 .debug_frame   0x00000000       0x2c c:/vsarm/armcc/102021~1.10/bin/../lib/gcc/arm-none-eabi/10.3.1/../../../../arm-none-eabi/lib/thumb/v6-m/nofp\libg.a(lib_a-init.o)
 .ARM.attributes
                0x00000000       0x2c c:/vsarm/armcc/102021~1.10/bin/../lib/gcc/arm-none-eabi/10.3.1/../../../../arm-none-eabi/lib/thumb/v6-m/nofp\libg.a(lib_a-init.o)
 .text          0x00000000        0x0 c:/vsarm/armcc/102021~1.10/bin/../lib/gcc/arm-none-eabi/10.3.1/../../../../arm-none-eabi/lib/thumb/v6-m/nofp\libg.a(lib_a-lcltime_r.o)
 .data          0x00000000        0x0 c:/vsarm/armcc/102021~1.10/bin/../lib/gcc/arm-none-eabi/10.3.1/../../../../arm-none-eabi/lib/thumb/v6-m/nofp\libg.a(lib_a-lcltime_r.o)
 .bss           0x00000000        0x0 c:/vsarm/armcc/102021~1.10/bin/../lib/gcc/arm-none-eabi/10.3.1/../../../../arm-none-eabi/lib/thumb/v6-m/nofp\libg.a(lib_a-lcltime_r.o)
 .text.localtime_r
                0x00000000      0x244 c:/vsarm/armcc/102021~1.10/bin/../lib/gcc/arm-none-eabi/10.3.1/../../../../arm-none-eabi/lib/thumb/v6-m/nofp\libg.a(lib_a-lcltime_r.o)
 .debug_frame   0x00000000       0x38 c:/vsarm/armcc/102021~1.10/bin/../lib/gcc/arm-none-eabi/10.3.1/../../../../arm-none-eabi/lib/thumb/v6-m/nofp\libg.a(lib_a-lcltime_r.o)
 .ARM.attributes
                0x00000000       0x2c c:/vsarm/armcc/102021~1.10/bin/../lib/gcc/arm-none-eabi/10.3.1/../../../../arm-none-eabi/lib/thumb/v6-m/nofp\libg.a(lib_a-lcltime_r.o)
 .text          0x00000000        0x0 c:/vsarm/armcc/102021~1.10/bin/../lib/gcc/arm-none-eabi/10.3.1/../../../../arm-none-eabi/lib/thumb/v6-m/nofp\libg.a(lib_a-malloc.o)
 .data          0x00000000        0x0 c:/vsarm/armcc/102021~1.10/bin/../lib/gcc/arm-none-eabi/10.3.1/../../../../arm-none-eabi/lib/thumb/v6-m/nofp\libg.a(lib_a-malloc.o)
 .bss           0x00000000        0x0 c:/vsarm/armcc/102021~1.10/bin/../lib/gcc/arm-none-eabi/10.3.1/../../../../arm-none-eabi/lib/thumb/v6-m/nofp\libg.a(lib_a-malloc.o)
 .text.malloc   0x00000000       0x14 c:/vsarm/armcc/102021~1.10/bin/../lib/gcc/arm-none-eabi/10.3.1/../../../../arm-none-eabi/lib/thumb/v6-m/nofp\libg.a(lib_a-malloc.o)
 .text.free     0x00000000       0x14 c:/vsarm/armcc/102021~1.10/bin/../lib/gcc/arm-none-eabi/10.3.1/../../../../arm-none-eabi/lib/thumb/v6-m/nofp\libg.a(lib_a-malloc.o)
 .debug_frame   0x00000000       0x40 c:/vsarm/armcc/102021~1.10/bin/../lib/gcc/arm-none-eabi/10.3.1/../../../../arm-none-eabi/lib/thumb/v6-m/nofp\libg.a(lib_a-malloc.o)
 .ARM.attributes
                0x00000000       0x2c c:/vsarm/armcc/102021~1.10/bin/../lib/gcc/arm-none-eabi/10.3.1/../../../../arm-none-eabi/lib/thumb/v6-m/nofp\libg.a(lib_a-malloc.o)
 .text          0x00000000        0x0 c:/vsarm/armcc/102021~1.10/bin/../lib/gcc/arm-none-eabi/10.3.1/../../../../arm-none-eabi/lib/thumb/v6-m/nofp\libg.a(lib_a-mallocr.o)
 .data          0x00000000        0x0 c:/vsarm/armcc/102021~1.10/bin/../lib/gcc/arm-none-eabi/10.3.1/../../../../arm-none-eabi/lib/thumb/v6-m/nofp\libg.a(lib_a-mallocr.o)
 .bss           0x00000000        0x0 c:/vsarm/armcc/102021~1.10/bin/../lib/gcc/arm-none-eabi/10.3.1/../../../../arm-none-eabi/lib/thumb/v6-m/nofp\libg.a(lib_a-mallocr.o)
 .text._malloc_r
                0x00000000      0x584 c:/vsarm/armcc/102021~1.10/bin/../lib/gcc/arm-none-eabi/10.3.1/../../../../arm-none-eabi/lib/thumb/v6-m/nofp\libg.a(lib_a-mallocr.o)
 .bss.__malloc_current_mallinfo
                0x00000000       0x28 c:/vsarm/armcc/102021~1.10/bin/../lib/gcc/arm-none-eabi/10.3.1/../../../../arm-none-eabi/lib/thumb/v6-m/nofp\libg.a(lib_a-mallocr.o)
 .bss.__malloc_max_sbrked_mem
                0x00000000        0x4 c:/vsarm/armcc/102021~1.10/bin/../lib/gcc/arm-none-eabi/10.3.1/../../../../arm-none-eabi/lib/thumb/v6-m/nofp\libg.a(lib_a-mallocr.o)
 .bss.__malloc_max_total_mem
                0x00000000        0x4 c:/vsarm/armcc/102021~1.10/bin/../lib/gcc/arm-none-eabi/10.3.1/../../../../arm-none-eabi/lib/thumb/v6-m/nofp\libg.a(lib_a-mallocr.o)
 .bss.__malloc_top_pad
                0x00000000        0x4 c:/vsarm/armcc/102021~1.10/bin/../lib/gcc/arm-none-eabi/10.3.1/../../../../arm-none-eabi/lib/thumb/v6-m/nofp\libg.a(lib_a-mallocr.o)
 .data.__malloc_av_
                0x00000000      0x408 c:/vsarm/armcc/102021~1.10/bin/../lib/gcc/arm-none-eabi/10.3.1/../../../../arm-none-eabi/lib/thumb/v6-m/nofp\libg.a(lib_a-mallocr.o)
 .data.__malloc_sbrk_base
                0x00000000        0x4 c:/vsarm/armcc/102021~1.10/bin/../lib/gcc/arm-none-eabi/10.3.1/../../../../arm-none-eabi/lib/thumb/v6-m/nofp\libg.a(lib_a-mallocr.o)
 .data.__malloc_trim_threshold
                0x00000000        0x4 c:/vsarm/armcc/102021~1.10/bin/../lib/gcc/arm-none-eabi/10.3.1/../../../../arm-none-eabi/lib/thumb/v6-m/nofp\libg.a(lib_a-mallocr.o)
 .debug_frame   0x00000000       0x3c c:/vsarm/armcc/102021~1.10/bin/../lib/gcc/arm-none-eabi/10.3.1/../../../../arm-none-eabi/lib/thumb/v6-m/nofp\libg.a(lib_a-mallocr.o)
 .ARM.attributes
                0x00000000       0x2c c:/vsarm/armcc/102021~1.10/bin/../lib/gcc/arm-none-eabi/10.3.1/../../../../arm-none-eabi/lib/thumb/v6-m/nofp\libg.a(lib_a-mallocr.o)
 .text          0x00000000        0x0 c:/vsarm/armcc/102021~1.10/bin/../lib/gcc/arm-none-eabi/10.3.1/../../../../arm-none-eabi/lib/thumb/v6-m/nofp\libg.a(lib_a-memcmp.o)
 .data          0x00000000        0x0 c:/vsarm/armcc/102021~1.10/bin/../lib/gcc/arm-none-eabi/10.3.1/../../../../arm-none-eabi/lib/thumb/v6-m/nofp\libg.a(lib_a-memcmp.o)
 .bss           0x00000000        0x0 c:/vsarm/armcc/102021~1.10/bin/../lib/gcc/arm-none-eabi/10.3.1/../../../../arm-none-eabi/lib/thumb/v6-m/nofp\libg.a(lib_a-memcmp.o)
 .text.memcmp   0x00000000       0x48 c:/vsarm/armcc/102021~1.10/bin/../lib/gcc/arm-none-eabi/10.3.1/../../../../arm-none-eabi/lib/thumb/v6-m/nofp\libg.a(lib_a-memcmp.o)
 .debug_frame   0x00000000       0x2c c:/vsarm/armcc/102021~1.10/bin/../lib/gcc/arm-none-eabi/10.3.1/../../../../arm-none-eabi/lib/thumb/v6-m/nofp\libg.a(lib_a-memcmp.o)
 .ARM.attributes
                0x00000000       0x2c c:/vsarm/armcc/102021~1.10/bin/../lib/gcc/arm-none-eabi/10.3.1/../../../../arm-none-eabi/lib/thumb/v6-m/nofp\libg.a(lib_a-memcmp.o)
 .text          0x00000000        0x0 c:/vsarm/armcc/102021~1.10/bin/../lib/gcc/arm-none-eabi/10.3.1/../../../../arm-none-eabi/lib/thumb/v6-m/nofp\libg.a(lib_a-memmove.o)
 .data          0x00000000        0x0 c:/vsarm/armcc/102021~1.10/bin/../lib/gcc/arm-none-eabi/10.3.1/../../../../arm-none-eabi/lib/thumb/v6-m/nofp\libg.a(lib_a-memmove.o)
 .bss           0x00000000        0x0 c:/vsarm/armcc/102021~1.10/bin/../lib/gcc/arm-none-eabi/10.3.1/../../../../arm-none-eabi/lib/thumb/v6-m/nofp\libg.a(lib_a-memmove.o)
 .text.memmove  0x00000000       0xac c:/vsarm/armcc/102021~1.10/bin/../lib/gcc/arm-none-eabi/10.3.1/../../../../arm-none-eabi/lib/thumb/v6-m/nofp\libg.a(lib_a-memmove.o)
 .debug_frame   0x00000000       0x30 c:/vsarm/armcc/102021~1.10/bin/../lib/gcc/arm-none-eabi/10.3.1/../../../../arm-none-eabi/lib/thumb/v6-m/nofp\libg.a(lib_a-memmove.o)
 .ARM.attributes
                0x00000000       0x2c c:/vsarm/armcc/102021~1.10/bin/../lib/gcc/arm-none-eabi/10.3.1/../../../../arm-none-eabi/lib/thumb/v6-m/nofp\libg.a(lib_a-memmove.o)
 .text          0x00000000        0x0 c:/vsarm/armcc/102021~1.10/bin/../lib/gcc/arm-none-eabi/10.3.1/../../../../arm-none-eabi/lib/thumb/v6-m/nofp\libg.a(lib_a-mktime.o)
 .data          0x00000000        0x0 c:/vsarm/armcc/102021~1.10/bin/../lib/gcc/arm-none-eabi/10.3.1/../../../../arm-none-eabi/lib/thumb/v6-m/nofp\libg.a(lib_a-mktime.o)
 .bss           0x00000000        0x0 c:/vsarm/armcc/102021~1.10/bin/../lib/gcc/arm-none-eabi/10.3.1/../../../../arm-none-eabi/lib/thumb/v6-m/nofp\libg.a(lib_a-mktime.o)
 .text.validate_structure
                0x00000000      0x1e0 c:/vsarm/armcc/102021~1.10/bin/../lib/gcc/arm-none-eabi/10.3.1/../../../../arm-none-eabi/lib/thumb/v6-m/nofp\libg.a(lib_a-mktime.o)
 .text.mktime   0x00000000      0x3f8 c:/vsarm/armcc/102021~1.10/bin/../lib/gcc/arm-none-eabi/10.3.1/../../../../arm-none-eabi/lib/thumb/v6-m/nofp\libg.a(lib_a-mktime.o)
 .rodata.DAYS_IN_MONTH
                0x00000000       0x30 c:/vsarm/armcc/102021~1.10/bin/../lib/gcc/arm-none-eabi/10.3.1/../../../../arm-none-eabi/lib/thumb/v6-m/nofp\libg.a(lib_a-mktime.o)
 .rodata._DAYS_BEFORE_MONTH
                0x00000000       0x30 c:/vsarm/armcc/102021~1.10/bin/../lib/gcc/arm-none-eabi/10.3.1/../../../../arm-none-eabi/lib/thumb/v6-m/nofp\libg.a(lib_a-mktime.o)
 .debug_frame   0x00000000       0x64 c:/vsarm/armcc/102021~1.10/bin/../lib/gcc/arm-none-eabi/10.3.1/../../../../arm-none-eabi/lib/thumb/v6-m/nofp\libg.a(lib_a-mktime.o)
 .ARM.attributes
                0x00000000       0x2c c:/vsarm/armcc/102021~1.10/bin/../lib/gcc/arm-none-eabi/10.3.1/../../../../arm-none-eabi/lib/thumb/v6-m/nofp\libg.a(lib_a-mktime.o)
 .text          0x00000000        0x0 c:/vsarm/armcc/102021~1.10/bin/../lib/gcc/arm-none-eabi/10.3.1/../../../../arm-none-eabi/lib/thumb/v6-m/nofp\libg.a(lib_a-mlock.o)
 .data          0x00000000        0x0 c:/vsarm/armcc/102021~1.10/bin/../lib/gcc/arm-none-eabi/10.3.1/../../../../arm-none-eabi/lib/thumb/v6-m/nofp\libg.a(lib_a-mlock.o)
 .bss           0x00000000        0x0 c:/vsarm/armcc/102021~1.10/bin/../lib/gcc/arm-none-eabi/10.3.1/../../../../arm-none-eabi/lib/thumb/v6-m/nofp\libg.a(lib_a-mlock.o)
 .text.__malloc_lock
                0x00000000       0x10 c:/vsarm/armcc/102021~1.10/bin/../lib/gcc/arm-none-eabi/10.3.1/../../../../arm-none-eabi/lib/thumb/v6-m/nofp\libg.a(lib_a-mlock.o)
 .text.__malloc_unlock
                0x00000000       0x10 c:/vsarm/armcc/102021~1.10/bin/../lib/gcc/arm-none-eabi/10.3.1/../../../../arm-none-eabi/lib/thumb/v6-m/nofp\libg.a(lib_a-mlock.o)
 .debug_frame   0x00000000       0x40 c:/vsarm/armcc/102021~1.10/bin/../lib/gcc/arm-none-eabi/10.3.1/../../../../arm-none-eabi/lib/thumb/v6-m/nofp\libg.a(lib_a-mlock.o)
 .ARM.attributes
                0x00000000       0x2c c:/vsarm/armcc/102021~1.10/bin/../lib/gcc/arm-none-eabi/10.3.1/../../../../arm-none-eabi/lib/thumb/v6-m/nofp\libg.a(lib_a-mlock.o)
 .text          0x00000000        0x0 c:/vsarm/armcc/102021~1.10/bin/../lib/gcc/arm-none-eabi/10.3.1/../../../../arm-none-eabi/lib/thumb/v6-m/nofp\libg.a(lib_a-month_lengths.o)
 .data          0x00000000        0x0 c:/vsarm/armcc/102021~1.10/bin/../lib/gcc/arm-none-eabi/10.3.1/../../../../arm-none-eabi/lib/thumb/v6-m/nofp\libg.a(lib_a-month_lengths.o)
 .bss           0x00000000        0x0 c:/vsarm/armcc/102021~1.10/bin/../lib/gcc/arm-none-eabi/10.3.1/../../../../arm-none-eabi/lib/thumb/v6-m/nofp\libg.a(lib_a-month_lengths.o)
 .rodata.__month_lengths
                0x00000000       0x60 c:/vsarm/armcc/102021~1.10/bin/../lib/gcc/arm-none-eabi/10.3.1/../../../../arm-none-eabi/lib/thumb/v6-m/nofp\libg.a(lib_a-month_lengths.o)
 .ARM.attributes
                0x00000000       0x2c c:/vsarm/armcc/102021~1.10/bin/../lib/gcc/arm-none-eabi/10.3.1/../../../../arm-none-eabi/lib/thumb/v6-m/nofp\libg.a(lib_a-month_lengths.o)
 .text          0x00000000        0x0 c:/vsarm/armcc/102021~1.10/bin/../lib/gcc/arm-none-eabi/10.3.1/../../../../arm-none-eabi/lib/thumb/v6-m/nofp\libg.a(lib_a-realloc.o)
 .data          0x00000000        0x0 c:/vsarm/armcc/102021~1.10/bin/../lib/gcc/arm-none-eabi/10.3.1/../../../../arm-none-eabi/lib/thumb/v6-m/nofp\libg.a(lib_a-realloc.o)
 .bss           0x00000000        0x0 c:/vsarm/armcc/102021~1.10/bin/../lib/gcc/arm-none-eabi/10.3.1/../../../../arm-none-eabi/lib/thumb/v6-m/nofp\libg.a(lib_a-realloc.o)
 .text.realloc  0x00000000       0x18 c:/vsarm/armcc/102021~1.10/bin/../lib/gcc/arm-none-eabi/10.3.1/../../../../arm-none-eabi/lib/thumb/v6-m/nofp\libg.a(lib_a-realloc.o)
 .debug_frame   0x00000000       0x28 c:/vsarm/armcc/102021~1.10/bin/../lib/gcc/arm-none-eabi/10.3.1/../../../../arm-none-eabi/lib/thumb/v6-m/nofp\libg.a(lib_a-realloc.o)
 .ARM.attributes
                0x00000000       0x2c c:/vsarm/armcc/102021~1.10/bin/../lib/gcc/arm-none-eabi/10.3.1/../../../../arm-none-eabi/lib/thumb/v6-m/nofp\libg.a(lib_a-realloc.o)
 .text          0x00000000        0x0 c:/vsarm/armcc/102021~1.10/bin/../lib/gcc/arm-none-eabi/10.3.1/../../../../arm-none-eabi/lib/thumb/v6-m/nofp\libg.a(lib_a-reallocr.o)
 .data          0x00000000        0x0 c:/vsarm/armcc/102021~1.10/bin/../lib/gcc/arm-none-eabi/10.3.1/../../../../arm-none-eabi/lib/thumb/v6-m/nofp\libg.a(lib_a-reallocr.o)
 .bss           0x00000000        0x0 c:/vsarm/armcc/102021~1.10/bin/../lib/gcc/arm-none-eabi/10.3.1/../../../../arm-none-eabi/lib/thumb/v6-m/nofp\libg.a(lib_a-reallocr.o)
 .text._realloc_r
                0x00000000      0x354 c:/vsarm/armcc/102021~1.10/bin/../lib/gcc/arm-none-eabi/10.3.1/../../../../arm-none-eabi/lib/thumb/v6-m/nofp\libg.a(lib_a-reallocr.o)
 .debug_frame   0x00000000       0x3c c:/vsarm/armcc/102021~1.10/bin/../lib/gcc/arm-none-eabi/10.3.1/../../../../arm-none-eabi/lib/thumb/v6-m/nofp\libg.a(lib_a-reallocr.o)
 .ARM.attributes
                0x00000000       0x2c c:/vsarm/armcc/102021~1.10/bin/../lib/gcc/arm-none-eabi/10.3.1/../../../../arm-none-eabi/lib/thumb/v6-m/nofp\libg.a(lib_a-reallocr.o)
 .text          0x00000000        0x0 c:/vsarm/armcc/102021~1.10/bin/../lib/gcc/arm-none-eabi/10.3.1/../../../../arm-none-eabi/lib/thumb/v6-m/nofp\libg.a(lib_a-sbrkr.o)
 .data          0x00000000        0x0 c:/vsarm/armcc/102021~1.10/bin/../lib/gcc/arm-none-eabi/10.3.1/../../../../arm-none-eabi/lib/thumb/v6-m/nofp\libg.a(lib_a-sbrkr.o)
 .bss           0x00000000        0x0 c:/vsarm/armcc/102021~1.10/bin/../lib/gcc/arm-none-eabi/10.3.1/../../../../arm-none-eabi/lib/thumb/v6-m/nofp\libg.a(lib_a-sbrkr.o)
 .text._sbrk_r  0x00000000       0x24 c:/vsarm/armcc/102021~1.10/bin/../lib/gcc/arm-none-eabi/10.3.1/../../../../arm-none-eabi/lib/thumb/v6-m/nofp\libg.a(lib_a-sbrkr.o)
 .debug_frame   0x00000000       0x2c c:/vsarm/armcc/102021~1.10/bin/../lib/gcc/arm-none-eabi/10.3.1/../../../../arm-none-eabi/lib/thumb/v6-m/nofp\libg.a(lib_a-sbrkr.o)
 .ARM.attributes
                0x00000000       0x2c c:/vsarm/armcc/102021~1.10/bin/../lib/gcc/arm-none-eabi/10.3.1/../../../../arm-none-eabi/lib/thumb/v6-m/nofp\libg.a(lib_a-sbrkr.o)
 .text          0x00000000        0x0 c:/vsarm/armcc/102021~1.10/bin/../lib/gcc/arm-none-eabi/10.3.1/../../../../arm-none-eabi/lib/thumb/v6-m/nofp\libg.a(lib_a-strlen-stub.o)
 .data          0x00000000        0x0 c:/vsarm/armcc/102021~1.10/bin/../lib/gcc/arm-none-eabi/10.3.1/../../../../arm-none-eabi/lib/thumb/v6-m/nofp\libg.a(lib_a-strlen-stub.o)
 .bss           0x00000000        0x0 c:/vsarm/armcc/102021~1.10/bin/../lib/gcc/arm-none-eabi/10.3.1/../../../../arm-none-eabi/lib/thumb/v6-m/nofp\libg.a(lib_a-strlen-stub.o)
 .text          0x00000000        0x0 c:/vsarm/armcc/102021~1.10/bin/../lib/gcc/arm-none-eabi/10.3.1/../../../../arm-none-eabi/lib/thumb/v6-m/nofp\libg.a(lib_a-strncmp.o)
 .data          0x00000000        0x0 c:/vsarm/armcc/102021~1.10/bin/../lib/gcc/arm-none-eabi/10.3.1/../../../../arm-none-eabi/lib/thumb/v6-m/nofp\libg.a(lib_a-strncmp.o)
 .bss           0x00000000        0x0 c:/vsarm/armcc/102021~1.10/bin/../lib/gcc/arm-none-eabi/10.3.1/../../../../arm-none-eabi/lib/thumb/v6-m/nofp\libg.a(lib_a-strncmp.o)
 .text.strncmp  0x00000000       0x74 c:/vsarm/armcc/102021~1.10/bin/../lib/gcc/arm-none-eabi/10.3.1/../../../../arm-none-eabi/lib/thumb/v6-m/nofp\libg.a(lib_a-strncmp.o)
 .debug_frame   0x00000000       0x2c c:/vsarm/armcc/102021~1.10/bin/../lib/gcc/arm-none-eabi/10.3.1/../../../../arm-none-eabi/lib/thumb/v6-m/nofp\libg.a(lib_a-strncmp.o)
 .ARM.attributes
                0x00000000       0x2c c:/vsarm/armcc/102021~1.10/bin/../lib/gcc/arm-none-eabi/10.3.1/../../../../arm-none-eabi/lib/thumb/v6-m/nofp\libg.a(lib_a-strncmp.o)
 .text          0x00000000        0x0 c:/vsarm/armcc/102021~1.10/bin/../lib/gcc/arm-none-eabi/10.3.1/../../../../arm-none-eabi/lib/thumb/v6-m/nofp\libg.a(lib_a-strtol.o)
 .data          0x00000000        0x0 c:/vsarm/armcc/102021~1.10/bin/../lib/gcc/arm-none-eabi/10.3.1/../../../../arm-none-eabi/lib/thumb/v6-m/nofp\libg.a(lib_a-strtol.o)
 .bss           0x00000000        0x0 c:/vsarm/armcc/102021~1.10/bin/../lib/gcc/arm-none-eabi/10.3.1/../../../../arm-none-eabi/lib/thumb/v6-m/nofp\libg.a(lib_a-strtol.o)
 .text._strtol_l.part.0
                0x00000000      0x144 c:/vsarm/armcc/102021~1.10/bin/../lib/gcc/arm-none-eabi/10.3.1/../../../../arm-none-eabi/lib/thumb/v6-m/nofp\libg.a(lib_a-strtol.o)
 .text._strtol_r
                0x00000000       0x1c c:/vsarm/armcc/102021~1.10/bin/../lib/gcc/arm-none-eabi/10.3.1/../../../../arm-none-eabi/lib/thumb/v6-m/nofp\libg.a(lib_a-strtol.o)
 .text.strtol_l
                0x00000000       0x2c c:/vsarm/armcc/102021~1.10/bin/../lib/gcc/arm-none-eabi/10.3.1/../../../../arm-none-eabi/lib/thumb/v6-m/nofp\libg.a(lib_a-strtol.o)
 .text.strtol   0x00000000       0x2c c:/vsarm/armcc/102021~1.10/bin/../lib/gcc/arm-none-eabi/10.3.1/../../../../arm-none-eabi/lib/thumb/v6-m/nofp\libg.a(lib_a-strtol.o)
 .debug_frame   0x00000000       0x84 c:/vsarm/armcc/102021~1.10/bin/../lib/gcc/arm-none-eabi/10.3.1/../../../../arm-none-eabi/lib/thumb/v6-m/nofp\libg.a(lib_a-strtol.o)
 .ARM.attributes
                0x00000000       0x2c c:/vsarm/armcc/102021~1.10/bin/../lib/gcc/arm-none-eabi/10.3.1/../../../../arm-none-eabi/lib/thumb/v6-m/nofp\libg.a(lib_a-strtol.o)
 .text          0x00000000        0x0 c:/vsarm/armcc/102021~1.10/bin/../lib/gcc/arm-none-eabi/10.3.1/../../../../arm-none-eabi/lib/thumb/v6-m/nofp\libg.a(lib_a-tzcalc_limits.o)
 .data          0x00000000        0x0 c:/vsarm/armcc/102021~1.10/bin/../lib/gcc/arm-none-eabi/10.3.1/../../../../arm-none-eabi/lib/thumb/v6-m/nofp\libg.a(lib_a-tzcalc_limits.o)
 .bss           0x00000000        0x0 c:/vsarm/armcc/102021~1.10/bin/../lib/gcc/arm-none-eabi/10.3.1/../../../../arm-none-eabi/lib/thumb/v6-m/nofp\libg.a(lib_a-tzcalc_limits.o)
 .text.__tzcalc_limits
                0x00000000      0x1a8 c:/vsarm/armcc/102021~1.10/bin/../lib/gcc/arm-none-eabi/10.3.1/../../../../arm-none-eabi/lib/thumb/v6-m/nofp\libg.a(lib_a-tzcalc_limits.o)
 .debug_frame   0x00000000       0x3c c:/vsarm/armcc/102021~1.10/bin/../lib/gcc/arm-none-eabi/10.3.1/../../../../arm-none-eabi/lib/thumb/v6-m/nofp\libg.a(lib_a-tzcalc_limits.o)
 .ARM.attributes
                0x00000000       0x2c c:/vsarm/armcc/102021~1.10/bin/../lib/gcc/arm-none-eabi/10.3.1/../../../../arm-none-eabi/lib/thumb/v6-m/nofp\libg.a(lib_a-tzcalc_limits.o)
 .text          0x00000000        0x0 c:/vsarm/armcc/102021~1.10/bin/../lib/gcc/arm-none-eabi/10.3.1/../../../../arm-none-eabi/lib/thumb/v6-m/nofp\libg.a(lib_a-tzlock.o)
 .data          0x00000000        0x0 c:/vsarm/armcc/102021~1.10/bin/../lib/gcc/arm-none-eabi/10.3.1/../../../../arm-none-eabi/lib/thumb/v6-m/nofp\libg.a(lib_a-tzlock.o)
 .bss           0x00000000        0x0 c:/vsarm/armcc/102021~1.10/bin/../lib/gcc/arm-none-eabi/10.3.1/../../../../arm-none-eabi/lib/thumb/v6-m/nofp\libg.a(lib_a-tzlock.o)
 .text.__tz_lock
                0x00000000       0x10 c:/vsarm/armcc/102021~1.10/bin/../lib/gcc/arm-none-eabi/10.3.1/../../../../arm-none-eabi/lib/thumb/v6-m/nofp\libg.a(lib_a-tzlock.o)
 .text.__tz_unlock
                0x00000000       0x10 c:/vsarm/armcc/102021~1.10/bin/../lib/gcc/arm-none-eabi/10.3.1/../../../../arm-none-eabi/lib/thumb/v6-m/nofp\libg.a(lib_a-tzlock.o)
 .debug_frame   0x00000000       0x40 c:/vsarm/armcc/102021~1.10/bin/../lib/gcc/arm-none-eabi/10.3.1/../../../../arm-none-eabi/lib/thumb/v6-m/nofp\libg.a(lib_a-tzlock.o)
 .ARM.attributes
                0x00000000       0x2c c:/vsarm/armcc/102021~1.10/bin/../lib/gcc/arm-none-eabi/10.3.1/../../../../arm-none-eabi/lib/thumb/v6-m/nofp\libg.a(lib_a-tzlock.o)
 .text          0x00000000        0x0 c:/vsarm/armcc/102021~1.10/bin/../lib/gcc/arm-none-eabi/10.3.1/../../../../arm-none-eabi/lib/thumb/v6-m/nofp\libg.a(lib_a-tzset.o)
 .data          0x00000000        0x0 c:/vsarm/armcc/102021~1.10/bin/../lib/gcc/arm-none-eabi/10.3.1/../../../../arm-none-eabi/lib/thumb/v6-m/nofp\libg.a(lib_a-tzset.o)
 .bss           0x00000000        0x0 c:/vsarm/armcc/102021~1.10/bin/../lib/gcc/arm-none-eabi/10.3.1/../../../../arm-none-eabi/lib/thumb/v6-m/nofp\libg.a(lib_a-tzset.o)
 .text._tzset_unlocked
                0x00000000       0x10 c:/vsarm/armcc/102021~1.10/bin/../lib/gcc/arm-none-eabi/10.3.1/../../../../arm-none-eabi/lib/thumb/v6-m/nofp\libg.a(lib_a-tzset.o)
 .text.tzset    0x00000000       0x18 c:/vsarm/armcc/102021~1.10/bin/../lib/gcc/arm-none-eabi/10.3.1/../../../../arm-none-eabi/lib/thumb/v6-m/nofp\libg.a(lib_a-tzset.o)
 .debug_frame   0x00000000       0x40 c:/vsarm/armcc/102021~1.10/bin/../lib/gcc/arm-none-eabi/10.3.1/../../../../arm-none-eabi/lib/thumb/v6-m/nofp\libg.a(lib_a-tzset.o)
 .ARM.attributes
                0x00000000       0x2c c:/vsarm/armcc/102021~1.10/bin/../lib/gcc/arm-none-eabi/10.3.1/../../../../arm-none-eabi/lib/thumb/v6-m/nofp\libg.a(lib_a-tzset.o)
 .text          0x00000000        0x0 c:/vsarm/armcc/102021~1.10/bin/../lib/gcc/arm-none-eabi/10.3.1/../../../../arm-none-eabi/lib/thumb/v6-m/nofp\libg.a(lib_a-tzset_r.o)
 .data          0x00000000        0x0 c:/vsarm/armcc/102021~1.10/bin/../lib/gcc/arm-none-eabi/10.3.1/../../../../arm-none-eabi/lib/thumb/v6-m/nofp\libg.a(lib_a-tzset_r.o)
 .bss           0x00000000        0x0 c:/vsarm/armcc/102021~1.10/bin/../lib/gcc/arm-none-eabi/10.3.1/../../../../arm-none-eabi/lib/thumb/v6-m/nofp\libg.a(lib_a-tzset_r.o)
 .rodata._tzset_unlocked_r.str1.4
                0x00000000       0x53 c:/vsarm/armcc/102021~1.10/bin/../lib/gcc/arm-none-eabi/10.3.1/../../../../arm-none-eabi/lib/thumb/v6-m/nofp\libg.a(lib_a-tzset_r.o)
 .text._tzset_unlocked_r
                0x00000000      0x350 c:/vsarm/armcc/102021~1.10/bin/../lib/gcc/arm-none-eabi/10.3.1/../../../../arm-none-eabi/lib/thumb/v6-m/nofp\libg.a(lib_a-tzset_r.o)
 .text._tzset_r
                0x00000000       0x14 c:/vsarm/armcc/102021~1.10/bin/../lib/gcc/arm-none-eabi/10.3.1/../../../../arm-none-eabi/lib/thumb/v6-m/nofp\libg.a(lib_a-tzset_r.o)
 .bss.__tzname_dst
                0x00000000        0xb c:/vsarm/armcc/102021~1.10/bin/../lib/gcc/arm-none-eabi/10.3.1/../../../../arm-none-eabi/lib/thumb/v6-m/nofp\libg.a(lib_a-tzset_r.o)
 .bss.__tzname_std
                0x00000000        0xb c:/vsarm/armcc/102021~1.10/bin/../lib/gcc/arm-none-eabi/10.3.1/../../../../arm-none-eabi/lib/thumb/v6-m/nofp\libg.a(lib_a-tzset_r.o)
 .bss.prev_tzenv
                0x00000000        0x4 c:/vsarm/armcc/102021~1.10/bin/../lib/gcc/arm-none-eabi/10.3.1/../../../../arm-none-eabi/lib/thumb/v6-m/nofp\libg.a(lib_a-tzset_r.o)
 .debug_frame   0x00000000       0x54 c:/vsarm/armcc/102021~1.10/bin/../lib/gcc/arm-none-eabi/10.3.1/../../../../arm-none-eabi/lib/thumb/v6-m/nofp\libg.a(lib_a-tzset_r.o)
 .ARM.attributes
                0x00000000       0x2c c:/vsarm/armcc/102021~1.10/bin/../lib/gcc/arm-none-eabi/10.3.1/../../../../arm-none-eabi/lib/thumb/v6-m/nofp\libg.a(lib_a-tzset_r.o)
 .text          0x00000000        0x0 c:/vsarm/armcc/102021~1.10/bin/../lib/gcc/arm-none-eabi/10.3.1/../../../../arm-none-eabi/lib/thumb/v6-m/nofp\libg.a(lib_a-tzvars.o)
 .data          0x00000000        0x0 c:/vsarm/armcc/102021~1.10/bin/../lib/gcc/arm-none-eabi/10.3.1/../../../../arm-none-eabi/lib/thumb/v6-m/nofp\libg.a(lib_a-tzvars.o)
 .bss           0x00000000        0x0 c:/vsarm/armcc/102021~1.10/bin/../lib/gcc/arm-none-eabi/10.3.1/../../../../arm-none-eabi/lib/thumb/v6-m/nofp\libg.a(lib_a-tzvars.o)
 .rodata.str1.4
                0x00000000        0x4 c:/vsarm/armcc/102021~1.10/bin/../lib/gcc/arm-none-eabi/10.3.1/../../../../arm-none-eabi/lib/thumb/v6-m/nofp\libg.a(lib_a-tzvars.o)
 .bss._daylight
                0x00000000        0x4 c:/vsarm/armcc/102021~1.10/bin/../lib/gcc/arm-none-eabi/10.3.1/../../../../arm-none-eabi/lib/thumb/v6-m/nofp\libg.a(lib_a-tzvars.o)
 .bss._timezone
                0x00000000        0x4 c:/vsarm/armcc/102021~1.10/bin/../lib/gcc/arm-none-eabi/10.3.1/../../../../arm-none-eabi/lib/thumb/v6-m/nofp\libg.a(lib_a-tzvars.o)
 .data._tzname  0x00000000        0x8 c:/vsarm/armcc/102021~1.10/bin/../lib/gcc/arm-none-eabi/10.3.1/../../../../arm-none-eabi/lib/thumb/v6-m/nofp\libg.a(lib_a-tzvars.o)
 .ARM.attributes
                0x00000000       0x2c c:/vsarm/armcc/102021~1.10/bin/../lib/gcc/arm-none-eabi/10.3.1/../../../../arm-none-eabi/lib/thumb/v6-m/nofp\libg.a(lib_a-tzvars.o)
 .text          0x00000000        0x0 c:/vsarm/armcc/102021~1.10/bin/../lib/gcc/arm-none-eabi/10.3.1/../../../../arm-none-eabi/lib/thumb/v6-m/nofp\libg.a(lib_a-div.o)
 .data          0x00000000        0x0 c:/vsarm/armcc/102021~1.10/bin/../lib/gcc/arm-none-eabi/10.3.1/../../../../arm-none-eabi/lib/thumb/v6-m/nofp\libg.a(lib_a-div.o)
 .bss           0x00000000        0x0 c:/vsarm/armcc/102021~1.10/bin/../lib/gcc/arm-none-eabi/10.3.1/../../../../arm-none-eabi/lib/thumb/v6-m/nofp\libg.a(lib_a-div.o)
 .text.div      0x00000000       0x30 c:/vsarm/armcc/102021~1.10/bin/../lib/gcc/arm-none-eabi/10.3.1/../../../../arm-none-eabi/lib/thumb/v6-m/nofp\libg.a(lib_a-div.o)
 .debug_frame   0x00000000       0x2c c:/vsarm/armcc/102021~1.10/bin/../lib/gcc/arm-none-eabi/10.3.1/../../../../arm-none-eabi/lib/thumb/v6-m/nofp\libg.a(lib_a-div.o)
 .ARM.attributes
                0x00000000       0x2c c:/vsarm/armcc/102021~1.10/bin/../lib/gcc/arm-none-eabi/10.3.1/../../../../arm-none-eabi/lib/thumb/v6-m/nofp\libg.a(lib_a-div.o)
 .text          0x00000000        0x0 c:/vsarm/armcc/102021~1.10/bin/../lib/gcc/arm-none-eabi/10.3.1/../../../../arm-none-eabi/lib/thumb/v6-m/nofp\libg.a(lib_a-freer.o)
 .data          0x00000000        0x0 c:/vsarm/armcc/102021~1.10/bin/../lib/gcc/arm-none-eabi/10.3.1/../../../../arm-none-eabi/lib/thumb/v6-m/nofp\libg.a(lib_a-freer.o)
 .bss           0x00000000        0x0 c:/vsarm/armcc/102021~1.10/bin/../lib/gcc/arm-none-eabi/10.3.1/../../../../arm-none-eabi/lib/thumb/v6-m/nofp\libg.a(lib_a-freer.o)
 .text._malloc_trim_r
                0x00000000       0x9c c:/vsarm/armcc/102021~1.10/bin/../lib/gcc/arm-none-eabi/10.3.1/../../../../arm-none-eabi/lib/thumb/v6-m/nofp\libg.a(lib_a-freer.o)
 .text._free_r  0x00000000      0x1c4 c:/vsarm/armcc/102021~1.10/bin/../lib/gcc/arm-none-eabi/10.3.1/../../../../arm-none-eabi/lib/thumb/v6-m/nofp\libg.a(lib_a-freer.o)
 .debug_frame   0x00000000       0x54 c:/vsarm/armcc/102021~1.10/bin/../lib/gcc/arm-none-eabi/10.3.1/../../../../arm-none-eabi/lib/thumb/v6-m/nofp\libg.a(lib_a-freer.o)
 .ARM.attributes
                0x00000000       0x2c c:/vsarm/armcc/102021~1.10/bin/../lib/gcc/arm-none-eabi/10.3.1/../../../../arm-none-eabi/lib/thumb/v6-m/nofp\libg.a(lib_a-freer.o)
 .text          0x00000000        0x0 c:/vsarm/armcc/102021~1.10/bin/../lib/gcc/arm-none-eabi/10.3.1/../../../../arm-none-eabi/lib/thumb/v6-m/nofp\libg.a(lib_a-getenv_r.o)
 .data          0x00000000        0x0 c:/vsarm/armcc/102021~1.10/bin/../lib/gcc/arm-none-eabi/10.3.1/../../../../arm-none-eabi/lib/thumb/v6-m/nofp\libg.a(lib_a-getenv_r.o)
 .bss           0x00000000        0x0 c:/vsarm/armcc/102021~1.10/bin/../lib/gcc/arm-none-eabi/10.3.1/../../../../arm-none-eabi/lib/thumb/v6-m/nofp\libg.a(lib_a-getenv_r.o)
 .text._findenv_r
                0x00000000       0x90 c:/vsarm/armcc/102021~1.10/bin/../lib/gcc/arm-none-eabi/10.3.1/../../../../arm-none-eabi/lib/thumb/v6-m/nofp\libg.a(lib_a-getenv_r.o)
 .text._getenv_r
                0x00000000       0x10 c:/vsarm/armcc/102021~1.10/bin/../lib/gcc/arm-none-eabi/10.3.1/../../../../arm-none-eabi/lib/thumb/v6-m/nofp\libg.a(lib_a-getenv_r.o)
 .debug_frame   0x00000000       0x50 c:/vsarm/armcc/102021~1.10/bin/../lib/gcc/arm-none-eabi/10.3.1/../../../../arm-none-eabi/lib/thumb/v6-m/nofp\libg.a(lib_a-getenv_r.o)
 .ARM.attributes
                0x00000000       0x2c c:/vsarm/armcc/102021~1.10/bin/../lib/gcc/arm-none-eabi/10.3.1/../../../../arm-none-eabi/lib/thumb/v6-m/nofp\libg.a(lib_a-getenv_r.o)
 .text          0x00000000        0x0 c:/vsarm/armcc/102021~1.10/bin/../lib/gcc/arm-none-eabi/10.3.1/../../../../arm-none-eabi/lib/thumb/v6-m/nofp\libg.a(lib_a-gettzinfo.o)
 .data          0x00000000        0x0 c:/vsarm/armcc/102021~1.10/bin/../lib/gcc/arm-none-eabi/10.3.1/../../../../arm-none-eabi/lib/thumb/v6-m/nofp\libg.a(lib_a-gettzinfo.o)
 .bss           0x00000000        0x0 c:/vsarm/armcc/102021~1.10/bin/../lib/gcc/arm-none-eabi/10.3.1/../../../../arm-none-eabi/lib/thumb/v6-m/nofp\libg.a(lib_a-gettzinfo.o)
 .text.__gettzinfo
                0x00000000        0x8 c:/vsarm/armcc/102021~1.10/bin/../lib/gcc/arm-none-eabi/10.3.1/../../../../arm-none-eabi/lib/thumb/v6-m/nofp\libg.a(lib_a-gettzinfo.o)
 .data.tzinfo   0x00000000       0x58 c:/vsarm/armcc/102021~1.10/bin/../lib/gcc/arm-none-eabi/10.3.1/../../../../arm-none-eabi/lib/thumb/v6-m/nofp\libg.a(lib_a-gettzinfo.o)
 .debug_frame   0x00000000       0x20 c:/vsarm/armcc/102021~1.10/bin/../lib/gcc/arm-none-eabi/10.3.1/../../../../arm-none-eabi/lib/thumb/v6-m/nofp\libg.a(lib_a-gettzinfo.o)
 .ARM.attributes
                0x00000000       0x2c c:/vsarm/armcc/102021~1.10/bin/../lib/gcc/arm-none-eabi/10.3.1/../../../../arm-none-eabi/lib/thumb/v6-m/nofp\libg.a(lib_a-gettzinfo.o)
 .text          0x00000000        0x0 c:/vsarm/armcc/102021~1.10/bin/../lib/gcc/arm-none-eabi/10.3.1/../../../../arm-none-eabi/lib/thumb/v6-m/nofp\libg.a(lib_a-gmtime_r.o)
 .data          0x00000000        0x0 c:/vsarm/armcc/102021~1.10/bin/../lib/gcc/arm-none-eabi/10.3.1/../../../../arm-none-eabi/lib/thumb/v6-m/nofp\libg.a(lib_a-gmtime_r.o)
 .bss           0x00000000        0x0 c:/vsarm/armcc/102021~1.10/bin/../lib/gcc/arm-none-eabi/10.3.1/../../../../arm-none-eabi/lib/thumb/v6-m/nofp\libg.a(lib_a-gmtime_r.o)
 .text.gmtime_r
                0x00000000      0x1d4 c:/vsarm/armcc/102021~1.10/bin/../lib/gcc/arm-none-eabi/10.3.1/../../../../arm-none-eabi/lib/thumb/v6-m/nofp\libg.a(lib_a-gmtime_r.o)
 .debug_frame   0x00000000       0x3c c:/vsarm/armcc/102021~1.10/bin/../lib/gcc/arm-none-eabi/10.3.1/../../../../arm-none-eabi/lib/thumb/v6-m/nofp\libg.a(lib_a-gmtime_r.o)
 .ARM.attributes
                0x00000000       0x2c c:/vsarm/armcc/102021~1.10/bin/../lib/gcc/arm-none-eabi/10.3.1/../../../../arm-none-eabi/lib/thumb/v6-m/nofp\libg.a(lib_a-gmtime_r.o)
 .text          0x00000000        0x0 c:/vsarm/armcc/102021~1.10/bin/../lib/gcc/arm-none-eabi/10.3.1/../../../../arm-none-eabi/lib/thumb/v6-m/nofp\libg.a(lib_a-lock.o)
 .data          0x00000000        0x0 c:/vsarm/armcc/102021~1.10/bin/../lib/gcc/arm-none-eabi/10.3.1/../../../../arm-none-eabi/lib/thumb/v6-m/nofp\libg.a(lib_a-lock.o)
 .bss           0x00000000        0x0 c:/vsarm/armcc/102021~1.10/bin/../lib/gcc/arm-none-eabi/10.3.1/../../../../arm-none-eabi/lib/thumb/v6-m/nofp\libg.a(lib_a-lock.o)
 .text.__retarget_lock_init
                0x00000000        0x4 c:/vsarm/armcc/102021~1.10/bin/../lib/gcc/arm-none-eabi/10.3.1/../../../../arm-none-eabi/lib/thumb/v6-m/nofp\libg.a(lib_a-lock.o)
 .text.__retarget_lock_init_recursive
                0x00000000        0x4 c:/vsarm/armcc/102021~1.10/bin/../lib/gcc/arm-none-eabi/10.3.1/../../../../arm-none-eabi/lib/thumb/v6-m/nofp\libg.a(lib_a-lock.o)
 .text.__retarget_lock_close
                0x00000000        0x4 c:/vsarm/armcc/102021~1.10/bin/../lib/gcc/arm-none-eabi/10.3.1/../../../../arm-none-eabi/lib/thumb/v6-m/nofp\libg.a(lib_a-lock.o)
 .text.__retarget_lock_close_recursive
                0x00000000        0x4 c:/vsarm/armcc/102021~1.10/bin/../lib/gcc/arm-none-eabi/10.3.1/../../../../arm-none-eabi/lib/thumb/v6-m/nofp\libg.a(lib_a-lock.o)
 .text.__retarget_lock_acquire
                0x00000000        0x4 c:/vsarm/armcc/102021~1.10/bin/../lib/gcc/arm-none-eabi/10.3.1/../../../../arm-none-eabi/lib/thumb/v6-m/nofp\libg.a(lib_a-lock.o)
 .text.__retarget_lock_acquire_recursive
                0x00000000        0x4 c:/vsarm/armcc/102021~1.10/bin/../lib/gcc/arm-none-eabi/10.3.1/../../../../arm-none-eabi/lib/thumb/v6-m/nofp\libg.a(lib_a-lock.o)
 .text.__retarget_lock_try_acquire
                0x00000000        0x4 c:/vsarm/armcc/102021~1.10/bin/../lib/gcc/arm-none-eabi/10.3.1/../../../../arm-none-eabi/lib/thumb/v6-m/nofp\libg.a(lib_a-lock.o)
 .text.__retarget_lock_try_acquire_recursive
                0x00000000        0x4 c:/vsarm/armcc/102021~1.10/bin/../lib/gcc/arm-none-eabi/10.3.1/../../../../arm-none-eabi/lib/thumb/v6-m/nofp\libg.a(lib_a-lock.o)
 .text.__retarget_lock_release
                0x00000000        0x4 c:/vsarm/armcc/102021~1.10/bin/../lib/gcc/arm-none-eabi/10.3.1/../../../../arm-none-eabi/lib/thumb/v6-m/nofp\libg.a(lib_a-lock.o)
 .text.__retarget_lock_release_recursive
                0x00000000        0x4 c:/vsarm/armcc/102021~1.10/bin/../lib/gcc/arm-none-eabi/10.3.1/../../../../arm-none-eabi/lib/thumb/v6-m/nofp\libg.a(lib_a-lock.o)
 .bss.__lock___arc4random_mutex
                0x00000000        0x1 c:/vsarm/armcc/102021~1.10/bin/../lib/gcc/arm-none-eabi/10.3.1/../../../../arm-none-eabi/lib/thumb/v6-m/nofp\libg.a(lib_a-lock.o)
 .bss.__lock___at_quick_exit_mutex
                0x00000000        0x1 c:/vsarm/armcc/102021~1.10/bin/../lib/gcc/arm-none-eabi/10.3.1/../../../../arm-none-eabi/lib/thumb/v6-m/nofp\libg.a(lib_a-lock.o)
 .bss.__lock___atexit_recursive_mutex
                0x00000000        0x1 c:/vsarm/armcc/102021~1.10/bin/../lib/gcc/arm-none-eabi/10.3.1/../../../../arm-none-eabi/lib/thumb/v6-m/nofp\libg.a(lib_a-lock.o)
 .bss.__lock___dd_hash_mutex
                0x00000000        0x1 c:/vsarm/armcc/102021~1.10/bin/../lib/gcc/arm-none-eabi/10.3.1/../../../../arm-none-eabi/lib/thumb/v6-m/nofp\libg.a(lib_a-lock.o)
 .bss.__lock___env_recursive_mutex
                0x00000000        0x1 c:/vsarm/armcc/102021~1.10/bin/../lib/gcc/arm-none-eabi/10.3.1/../../../../arm-none-eabi/lib/thumb/v6-m/nofp\libg.a(lib_a-lock.o)
 .bss.__lock___malloc_recursive_mutex
                0x00000000        0x1 c:/vsarm/armcc/102021~1.10/bin/../lib/gcc/arm-none-eabi/10.3.1/../../../../arm-none-eabi/lib/thumb/v6-m/nofp\libg.a(lib_a-lock.o)
 .bss.__lock___sfp_recursive_mutex
                0x00000000        0x1 c:/vsarm/armcc/102021~1.10/bin/../lib/gcc/arm-none-eabi/10.3.1/../../../../arm-none-eabi/lib/thumb/v6-m/nofp\libg.a(lib_a-lock.o)
 .bss.__lock___sinit_recursive_mutex
                0x00000000        0x1 c:/vsarm/armcc/102021~1.10/bin/../lib/gcc/arm-none-eabi/10.3.1/../../../../arm-none-eabi/lib/thumb/v6-m/nofp\libg.a(lib_a-lock.o)
 .bss.__lock___tz_mutex
                0x00000000        0x1 c:/vsarm/armcc/102021~1.10/bin/../lib/gcc/arm-none-eabi/10.3.1/../../../../arm-none-eabi/lib/thumb/v6-m/nofp\libg.a(lib_a-lock.o)
 .debug_frame   0x00000000       0xb0 c:/vsarm/armcc/102021~1.10/bin/../lib/gcc/arm-none-eabi/10.3.1/../../../../arm-none-eabi/lib/thumb/v6-m/nofp\libg.a(lib_a-lock.o)
 .ARM.attributes
                0x00000000       0x2c c:/vsarm/armcc/102021~1.10/bin/../lib/gcc/arm-none-eabi/10.3.1/../../../../arm-none-eabi/lib/thumb/v6-m/nofp\libg.a(lib_a-lock.o)
 .text          0x00000000        0x0 c:/vsarm/armcc/102021~1.10/bin/../lib/gcc/arm-none-eabi/10.3.1/../../../../arm-none-eabi/lib/thumb/v6-m/nofp\libg.a(lib_a-reent.o)
 .data          0x00000000        0x0 c:/vsarm/armcc/102021~1.10/bin/../lib/gcc/arm-none-eabi/10.3.1/../../../../arm-none-eabi/lib/thumb/v6-m/nofp\libg.a(lib_a-reent.o)
 .bss           0x00000000        0x0 c:/vsarm/armcc/102021~1.10/bin/../lib/gcc/arm-none-eabi/10.3.1/../../../../arm-none-eabi/lib/thumb/v6-m/nofp\libg.a(lib_a-reent.o)
 .text.cleanup_glue
                0x00000000       0x50 c:/vsarm/armcc/102021~1.10/bin/../lib/gcc/arm-none-eabi/10.3.1/../../../../arm-none-eabi/lib/thumb/v6-m/nofp\libg.a(lib_a-reent.o)
 .text._reclaim_reent
                0x00000000       0xa0 c:/vsarm/armcc/102021~1.10/bin/../lib/gcc/arm-none-eabi/10.3.1/../../../../arm-none-eabi/lib/thumb/v6-m/nofp\libg.a(lib_a-reent.o)
 .bss.errno     0x00000000        0x4 c:/vsarm/armcc/102021~1.10/bin/../lib/gcc/arm-none-eabi/10.3.1/../../../../arm-none-eabi/lib/thumb/v6-m/nofp\libg.a(lib_a-reent.o)
 .debug_frame   0x00000000       0x50 c:/vsarm/armcc/102021~1.10/bin/../lib/gcc/arm-none-eabi/10.3.1/../../../../arm-none-eabi/lib/thumb/v6-m/nofp\libg.a(lib_a-reent.o)
 .ARM.attributes
                0x00000000       0x2c c:/vsarm/armcc/102021~1.10/bin/../lib/gcc/arm-none-eabi/10.3.1/../../../../arm-none-eabi/lib/thumb/v6-m/nofp\libg.a(lib_a-reent.o)
 .text          0x00000000        0x0 c:/vsarm/armcc/102021~1.10/bin/../lib/gcc/arm-none-eabi/10.3.1/../../../../arm-none-eabi/lib/thumb/v6-m/nofp\libg.a(lib_a-siscanf.o)
 .data          0x00000000        0x0 c:/vsarm/armcc/102021~1.10/bin/../lib/gcc/arm-none-eabi/10.3.1/../../../../arm-none-eabi/lib/thumb/v6-m/nofp\libg.a(lib_a-siscanf.o)
 .bss           0x00000000        0x0 c:/vsarm/armcc/102021~1.10/bin/../lib/gcc/arm-none-eabi/10.3.1/../../../../arm-none-eabi/lib/thumb/v6-m/nofp\libg.a(lib_a-siscanf.o)
 .text.siscanf  0x00000000       0x50 c:/vsarm/armcc/102021~1.10/bin/../lib/gcc/arm-none-eabi/10.3.1/../../../../arm-none-eabi/lib/thumb/v6-m/nofp\libg.a(lib_a-siscanf.o)
 .text._siscanf_r
                0x00000000       0x50 c:/vsarm/armcc/102021~1.10/bin/../lib/gcc/arm-none-eabi/10.3.1/../../../../arm-none-eabi/lib/thumb/v6-m/nofp\libg.a(lib_a-siscanf.o)
 .debug_frame   0x00000000       0x54 c:/vsarm/armcc/102021~1.10/bin/../lib/gcc/arm-none-eabi/10.3.1/../../../../arm-none-eabi/lib/thumb/v6-m/nofp\libg.a(lib_a-siscanf.o)
 .ARM.attributes
                0x00000000       0x2c c:/vsarm/armcc/102021~1.10/bin/../lib/gcc/arm-none-eabi/10.3.1/../../../../arm-none-eabi/lib/thumb/v6-m/nofp\libg.a(lib_a-siscanf.o)
 .text          0x00000000        0x0 c:/vsarm/armcc/102021~1.10/bin/../lib/gcc/arm-none-eabi/10.3.1/../../../../arm-none-eabi/lib/thumb/v6-m/nofp\libg.a(lib_a-stdio.o)
 .data          0x00000000        0x0 c:/vsarm/armcc/102021~1.10/bin/../lib/gcc/arm-none-eabi/10.3.1/../../../../arm-none-eabi/lib/thumb/v6-m/nofp\libg.a(lib_a-stdio.o)
 .bss           0x00000000        0x0 c:/vsarm/armcc/102021~1.10/bin/../lib/gcc/arm-none-eabi/10.3.1/../../../../arm-none-eabi/lib/thumb/v6-m/nofp\libg.a(lib_a-stdio.o)
 .text.__sread  0x00000000       0x28 c:/vsarm/armcc/102021~1.10/bin/../lib/gcc/arm-none-eabi/10.3.1/../../../../arm-none-eabi/lib/thumb/v6-m/nofp\libg.a(lib_a-stdio.o)
 .text.__seofread
                0x00000000        0x4 c:/vsarm/armcc/102021~1.10/bin/../lib/gcc/arm-none-eabi/10.3.1/../../../../arm-none-eabi/lib/thumb/v6-m/nofp\libg.a(lib_a-stdio.o)
 .text.__swrite
                0x00000000       0x40 c:/vsarm/armcc/102021~1.10/bin/../lib/gcc/arm-none-eabi/10.3.1/../../../../arm-none-eabi/lib/thumb/v6-m/nofp\libg.a(lib_a-stdio.o)
 .text.__sseek  0x00000000       0x2c c:/vsarm/armcc/102021~1.10/bin/../lib/gcc/arm-none-eabi/10.3.1/../../../../arm-none-eabi/lib/thumb/v6-m/nofp\libg.a(lib_a-stdio.o)
 .text.__sclose
                0x00000000        0xc c:/vsarm/armcc/102021~1.10/bin/../lib/gcc/arm-none-eabi/10.3.1/../../../../arm-none-eabi/lib/thumb/v6-m/nofp\libg.a(lib_a-stdio.o)
 .debug_frame   0x00000000       0x90 c:/vsarm/armcc/102021~1.10/bin/../lib/gcc/arm-none-eabi/10.3.1/../../../../arm-none-eabi/lib/thumb/v6-m/nofp\libg.a(lib_a-stdio.o)
 .ARM.attributes
                0x00000000       0x2c c:/vsarm/armcc/102021~1.10/bin/../lib/gcc/arm-none-eabi/10.3.1/../../../../arm-none-eabi/lib/thumb/v6-m/nofp\libg.a(lib_a-stdio.o)
 .text          0x00000000       0x88 c:/vsarm/armcc/102021~1.10/bin/../lib/gcc/arm-none-eabi/10.3.1/../../../../arm-none-eabi/lib/thumb/v6-m/nofp\libg.a(lib_a-strcmp.o)
 .data          0x00000000        0x0 c:/vsarm/armcc/102021~1.10/bin/../lib/gcc/arm-none-eabi/10.3.1/../../../../arm-none-eabi/lib/thumb/v6-m/nofp\libg.a(lib_a-strcmp.o)
 .bss           0x00000000        0x0 c:/vsarm/armcc/102021~1.10/bin/../lib/gcc/arm-none-eabi/10.3.1/../../../../arm-none-eabi/lib/thumb/v6-m/nofp\libg.a(lib_a-strcmp.o)
 .debug_frame   0x00000000       0x20 c:/vsarm/armcc/102021~1.10/bin/../lib/gcc/arm-none-eabi/10.3.1/../../../../arm-none-eabi/lib/thumb/v6-m/nofp\libg.a(lib_a-strcmp.o)
 .ARM.attributes
                0x00000000       0x1b c:/vsarm/armcc/102021~1.10/bin/../lib/gcc/arm-none-eabi/10.3.1/../../../../arm-none-eabi/lib/thumb/v6-m/nofp\libg.a(lib_a-strcmp.o)
 .text          0x00000000        0x0 c:/vsarm/armcc/102021~1.10/bin/../lib/gcc/arm-none-eabi/10.3.1/../../../../arm-none-eabi/lib/thumb/v6-m/nofp\libg.a(lib_a-strcpy.o)
 .data          0x00000000        0x0 c:/vsarm/armcc/102021~1.10/bin/../lib/gcc/arm-none-eabi/10.3.1/../../../../arm-none-eabi/lib/thumb/v6-m/nofp\libg.a(lib_a-strcpy.o)
 .bss           0x00000000        0x0 c:/vsarm/armcc/102021~1.10/bin/../lib/gcc/arm-none-eabi/10.3.1/../../../../arm-none-eabi/lib/thumb/v6-m/nofp\libg.a(lib_a-strcpy.o)
 .text.strcpy   0x00000000       0x10 c:/vsarm/armcc/102021~1.10/bin/../lib/gcc/arm-none-eabi/10.3.1/../../../../arm-none-eabi/lib/thumb/v6-m/nofp\libg.a(lib_a-strcpy.o)
 .debug_frame   0x00000000       0x20 c:/vsarm/armcc/102021~1.10/bin/../lib/gcc/arm-none-eabi/10.3.1/../../../../arm-none-eabi/lib/thumb/v6-m/nofp\libg.a(lib_a-strcpy.o)
 .ARM.attributes
                0x00000000       0x2c c:/vsarm/armcc/102021~1.10/bin/../lib/gcc/arm-none-eabi/10.3.1/../../../../arm-none-eabi/lib/thumb/v6-m/nofp\libg.a(lib_a-strcpy.o)
 .text          0x00000000        0x0 c:/vsarm/armcc/102021~1.10/bin/../lib/gcc/arm-none-eabi/10.3.1/../../../../arm-none-eabi/lib/thumb/v6-m/nofp\libg.a(lib_a-strtoul.o)
 .data          0x00000000        0x0 c:/vsarm/armcc/102021~1.10/bin/../lib/gcc/arm-none-eabi/10.3.1/../../../../arm-none-eabi/lib/thumb/v6-m/nofp\libg.a(lib_a-strtoul.o)
 .bss           0x00000000        0x0 c:/vsarm/armcc/102021~1.10/bin/../lib/gcc/arm-none-eabi/10.3.1/../../../../arm-none-eabi/lib/thumb/v6-m/nofp\libg.a(lib_a-strtoul.o)
 .text._strtoul_l.constprop.0
                0x00000000      0x148 c:/vsarm/armcc/102021~1.10/bin/../lib/gcc/arm-none-eabi/10.3.1/../../../../arm-none-eabi/lib/thumb/v6-m/nofp\libg.a(lib_a-strtoul.o)
 .text._strtoul_r
                0x00000000        0x8 c:/vsarm/armcc/102021~1.10/bin/../lib/gcc/arm-none-eabi/10.3.1/../../../../arm-none-eabi/lib/thumb/v6-m/nofp\libg.a(lib_a-strtoul.o)
 .text.strtoul_l
                0x00000000       0x18 c:/vsarm/armcc/102021~1.10/bin/../lib/gcc/arm-none-eabi/10.3.1/../../../../arm-none-eabi/lib/thumb/v6-m/nofp\libg.a(lib_a-strtoul.o)
 .text.strtoul  0x00000000       0x18 c:/vsarm/armcc/102021~1.10/bin/../lib/gcc/arm-none-eabi/10.3.1/../../../../arm-none-eabi/lib/thumb/v6-m/nofp\libg.a(lib_a-strtoul.o)
 .debug_frame   0x00000000       0x84 c:/vsarm/armcc/102021~1.10/bin/../lib/gcc/arm-none-eabi/10.3.1/../../../../arm-none-eabi/lib/thumb/v6-m/nofp\libg.a(lib_a-strtoul.o)
 .ARM.attributes
                0x00000000       0x2c c:/vsarm/armcc/102021~1.10/bin/../lib/gcc/arm-none-eabi/10.3.1/../../../../arm-none-eabi/lib/thumb/v6-m/nofp\libg.a(lib_a-strtoul.o)
 .text          0x00000000        0x0 c:/vsarm/armcc/102021~1.10/bin/../lib/gcc/arm-none-eabi/10.3.1/../../../../arm-none-eabi/lib/thumb/v6-m/nofp\libg.a(lib_a-svfiscanf.o)
 .data          0x00000000        0x0 c:/vsarm/armcc/102021~1.10/bin/../lib/gcc/arm-none-eabi/10.3.1/../../../../arm-none-eabi/lib/thumb/v6-m/nofp\libg.a(lib_a-svfiscanf.o)
 .bss           0x00000000        0x0 c:/vsarm/armcc/102021~1.10/bin/../lib/gcc/arm-none-eabi/10.3.1/../../../../arm-none-eabi/lib/thumb/v6-m/nofp\libg.a(lib_a-svfiscanf.o)
 .text._sungetc_r
                0x00000000       0x84 c:/vsarm/armcc/102021~1.10/bin/../lib/gcc/arm-none-eabi/10.3.1/../../../../arm-none-eabi/lib/thumb/v6-m/nofp\libg.a(lib_a-svfiscanf.o)
 .text.__ssrefill_r
                0x00000000       0x40 c:/vsarm/armcc/102021~1.10/bin/../lib/gcc/arm-none-eabi/10.3.1/../../../../arm-none-eabi/lib/thumb/v6-m/nofp\libg.a(lib_a-svfiscanf.o)
 .text._sfread_r
                0x00000000       0xc4 c:/vsarm/armcc/102021~1.10/bin/../lib/gcc/arm-none-eabi/10.3.1/../../../../arm-none-eabi/lib/thumb/v6-m/nofp\libg.a(lib_a-svfiscanf.o)
 .text.__ssvfiscanf_r
                0x00000000     0x14d0 c:/vsarm/armcc/102021~1.10/bin/../lib/gcc/arm-none-eabi/10.3.1/../../../../arm-none-eabi/lib/thumb/v6-m/nofp\libg.a(lib_a-svfiscanf.o)
 .rodata.__ssvfiscanf_r
                0x00000000      0x290 c:/vsarm/armcc/102021~1.10/bin/../lib/gcc/arm-none-eabi/10.3.1/../../../../arm-none-eabi/lib/thumb/v6-m/nofp\libg.a(lib_a-svfiscanf.o)
 .rodata.basefix.0
                0x00000000       0x22 c:/vsarm/armcc/102021~1.10/bin/../lib/gcc/arm-none-eabi/10.3.1/../../../../arm-none-eabi/lib/thumb/v6-m/nofp\libg.a(lib_a-svfiscanf.o)
 .debug_frame   0x00000000       0xa4 c:/vsarm/armcc/102021~1.10/bin/../lib/gcc/arm-none-eabi/10.3.1/../../../../arm-none-eabi/lib/thumb/v6-m/nofp\libg.a(lib_a-svfiscanf.o)
 .ARM.attributes
                0x00000000       0x2c c:/vsarm/armcc/102021~1.10/bin/../lib/gcc/arm-none-eabi/10.3.1/../../../../arm-none-eabi/lib/thumb/v6-m/nofp\libg.a(lib_a-svfiscanf.o)
 .text          0x00000000        0x0 c:/vsarm/armcc/102021~1.10/bin/../lib/gcc/arm-none-eabi/10.3.1/../../../../arm-none-eabi/lib/thumb/v6-m/nofp\libg.a(lib_a-ungetc.o)
 .data          0x00000000        0x0 c:/vsarm/armcc/102021~1.10/bin/../lib/gcc/arm-none-eabi/10.3.1/../../../../arm-none-eabi/lib/thumb/v6-m/nofp\libg.a(lib_a-ungetc.o)
 .bss           0x00000000        0x0 c:/vsarm/armcc/102021~1.10/bin/../lib/gcc/arm-none-eabi/10.3.1/../../../../arm-none-eabi/lib/thumb/v6-m/nofp\libg.a(lib_a-ungetc.o)
 .text.__submore
                0x00000000       0x84 c:/vsarm/armcc/102021~1.10/bin/../lib/gcc/arm-none-eabi/10.3.1/../../../../arm-none-eabi/lib/thumb/v6-m/nofp\libg.a(lib_a-ungetc.o)
 .text._ungetc_r
                0x00000000      0x138 c:/vsarm/armcc/102021~1.10/bin/../lib/gcc/arm-none-eabi/10.3.1/../../../../arm-none-eabi/lib/thumb/v6-m/nofp\libg.a(lib_a-ungetc.o)
 .text.ungetc   0x00000000       0x18 c:/vsarm/armcc/102021~1.10/bin/../lib/gcc/arm-none-eabi/10.3.1/../../../../arm-none-eabi/lib/thumb/v6-m/nofp\libg.a(lib_a-ungetc.o)
 .debug_frame   0x00000000       0x6c c:/vsarm/armcc/102021~1.10/bin/../lib/gcc/arm-none-eabi/10.3.1/../../../../arm-none-eabi/lib/thumb/v6-m/nofp\libg.a(lib_a-ungetc.o)
 .ARM.attributes
                0x00000000       0x2c c:/vsarm/armcc/102021~1.10/bin/../lib/gcc/arm-none-eabi/10.3.1/../../../../arm-none-eabi/lib/thumb/v6-m/nofp\libg.a(lib_a-ungetc.o)
 .text          0x00000000        0x0 c:/vsarm/armcc/102021~1.10/bin/../lib/gcc/arm-none-eabi/10.3.1/../../../../arm-none-eabi/lib/thumb/v6-m/nofp\libg.a(lib_a-writer.o)
 .data          0x00000000        0x0 c:/vsarm/armcc/102021~1.10/bin/../lib/gcc/arm-none-eabi/10.3.1/../../../../arm-none-eabi/lib/thumb/v6-m/nofp\libg.a(lib_a-writer.o)
 .bss           0x00000000        0x0 c:/vsarm/armcc/102021~1.10/bin/../lib/gcc/arm-none-eabi/10.3.1/../../../../arm-none-eabi/lib/thumb/v6-m/nofp\libg.a(lib_a-writer.o)
 .text._write_r
                0x00000000       0x28 c:/vsarm/armcc/102021~1.10/bin/../lib/gcc/arm-none-eabi/10.3.1/../../../../arm-none-eabi/lib/thumb/v6-m/nofp\libg.a(lib_a-writer.o)
 .debug_frame   0x00000000       0x2c c:/vsarm/armcc/102021~1.10/bin/../lib/gcc/arm-none-eabi/10.3.1/../../../../arm-none-eabi/lib/thumb/v6-m/nofp\libg.a(lib_a-writer.o)
 .ARM.attributes
                0x00000000       0x2c c:/vsarm/armcc/102021~1.10/bin/../lib/gcc/arm-none-eabi/10.3.1/../../../../arm-none-eabi/lib/thumb/v6-m/nofp\libg.a(lib_a-writer.o)
 .text          0x00000000        0x0 c:/vsarm/armcc/102021~1.10/bin/../lib/gcc/arm-none-eabi/10.3.1/../../../../arm-none-eabi/lib/thumb/v6-m/nofp\libg.a(lib_a-closer.o)
 .data          0x00000000        0x0 c:/vsarm/armcc/102021~1.10/bin/../lib/gcc/arm-none-eabi/10.3.1/../../../../arm-none-eabi/lib/thumb/v6-m/nofp\libg.a(lib_a-closer.o)
 .bss           0x00000000        0x0 c:/vsarm/armcc/102021~1.10/bin/../lib/gcc/arm-none-eabi/10.3.1/../../../../arm-none-eabi/lib/thumb/v6-m/nofp\libg.a(lib_a-closer.o)
 .text._close_r
                0x00000000       0x24 c:/vsarm/armcc/102021~1.10/bin/../lib/gcc/arm-none-eabi/10.3.1/../../../../arm-none-eabi/lib/thumb/v6-m/nofp\libg.a(lib_a-closer.o)
 .debug_frame   0x00000000       0x2c c:/vsarm/armcc/102021~1.10/bin/../lib/gcc/arm-none-eabi/10.3.1/../../../../arm-none-eabi/lib/thumb/v6-m/nofp\libg.a(lib_a-closer.o)
 .ARM.attributes
                0x00000000       0x2c c:/vsarm/armcc/102021~1.10/bin/../lib/gcc/arm-none-eabi/10.3.1/../../../../arm-none-eabi/lib/thumb/v6-m/nofp\libg.a(lib_a-closer.o)
 .text          0x00000000        0x0 c:/vsarm/armcc/102021~1.10/bin/../lib/gcc/arm-none-eabi/10.3.1/../../../../arm-none-eabi/lib/thumb/v6-m/nofp\libg.a(lib_a-environ.o)
 .data          0x00000000        0x0 c:/vsarm/armcc/102021~1.10/bin/../lib/gcc/arm-none-eabi/10.3.1/../../../../arm-none-eabi/lib/thumb/v6-m/nofp\libg.a(lib_a-environ.o)
 .bss           0x00000000        0x0 c:/vsarm/armcc/102021~1.10/bin/../lib/gcc/arm-none-eabi/10.3.1/../../../../arm-none-eabi/lib/thumb/v6-m/nofp\libg.a(lib_a-environ.o)
 .bss.initial_env
                0x00000000        0x4 c:/vsarm/armcc/102021~1.10/bin/../lib/gcc/arm-none-eabi/10.3.1/../../../../arm-none-eabi/lib/thumb/v6-m/nofp\libg.a(lib_a-environ.o)
 .data.environ  0x00000000        0x4 c:/vsarm/armcc/102021~1.10/bin/../lib/gcc/arm-none-eabi/10.3.1/../../../../arm-none-eabi/lib/thumb/v6-m/nofp\libg.a(lib_a-environ.o)
 .ARM.attributes
                0x00000000       0x2c c:/vsarm/armcc/102021~1.10/bin/../lib/gcc/arm-none-eabi/10.3.1/../../../../arm-none-eabi/lib/thumb/v6-m/nofp\libg.a(lib_a-environ.o)
 .text          0x00000000        0x0 c:/vsarm/armcc/102021~1.10/bin/../lib/gcc/arm-none-eabi/10.3.1/../../../../arm-none-eabi/lib/thumb/v6-m/nofp\libg.a(lib_a-envlock.o)
 .data          0x00000000        0x0 c:/vsarm/armcc/102021~1.10/bin/../lib/gcc/arm-none-eabi/10.3.1/../../../../arm-none-eabi/lib/thumb/v6-m/nofp\libg.a(lib_a-envlock.o)
 .bss           0x00000000        0x0 c:/vsarm/armcc/102021~1.10/bin/../lib/gcc/arm-none-eabi/10.3.1/../../../../arm-none-eabi/lib/thumb/v6-m/nofp\libg.a(lib_a-envlock.o)
 .text.__env_lock
                0x00000000       0x10 c:/vsarm/armcc/102021~1.10/bin/../lib/gcc/arm-none-eabi/10.3.1/../../../../arm-none-eabi/lib/thumb/v6-m/nofp\libg.a(lib_a-envlock.o)
 .text.__env_unlock
                0x00000000       0x10 c:/vsarm/armcc/102021~1.10/bin/../lib/gcc/arm-none-eabi/10.3.1/../../../../arm-none-eabi/lib/thumb/v6-m/nofp\libg.a(lib_a-envlock.o)
 .debug_frame   0x00000000       0x40 c:/vsarm/armcc/102021~1.10/bin/../lib/gcc/arm-none-eabi/10.3.1/../../../../arm-none-eabi/lib/thumb/v6-m/nofp\libg.a(lib_a-envlock.o)
 .ARM.attributes
                0x00000000       0x2c c:/vsarm/armcc/102021~1.10/bin/../lib/gcc/arm-none-eabi/10.3.1/../../../../arm-none-eabi/lib/thumb/v6-m/nofp\libg.a(lib_a-envlock.o)
 .text          0x00000000        0x0 c:/vsarm/armcc/102021~1.10/bin/../lib/gcc/arm-none-eabi/10.3.1/../../../../arm-none-eabi/lib/thumb/v6-m/nofp\libg.a(lib_a-fflush.o)
 .data          0x00000000        0x0 c:/vsarm/armcc/102021~1.10/bin/../lib/gcc/arm-none-eabi/10.3.1/../../../../arm-none-eabi/lib/thumb/v6-m/nofp\libg.a(lib_a-fflush.o)
 .bss           0x00000000        0x0 c:/vsarm/armcc/102021~1.10/bin/../lib/gcc/arm-none-eabi/10.3.1/../../../../arm-none-eabi/lib/thumb/v6-m/nofp\libg.a(lib_a-fflush.o)
 .text.__sflush_r
                0x00000000      0x140 c:/vsarm/armcc/102021~1.10/bin/../lib/gcc/arm-none-eabi/10.3.1/../../../../arm-none-eabi/lib/thumb/v6-m/nofp\libg.a(lib_a-fflush.o)
 .text._fflush_r
                0x00000000       0x6c c:/vsarm/armcc/102021~1.10/bin/../lib/gcc/arm-none-eabi/10.3.1/../../../../arm-none-eabi/lib/thumb/v6-m/nofp\libg.a(lib_a-fflush.o)
 .text.fflush   0x00000000       0x78 c:/vsarm/armcc/102021~1.10/bin/../lib/gcc/arm-none-eabi/10.3.1/../../../../arm-none-eabi/lib/thumb/v6-m/nofp\libg.a(lib_a-fflush.o)
 .debug_frame   0x00000000       0x6c c:/vsarm/armcc/102021~1.10/bin/../lib/gcc/arm-none-eabi/10.3.1/../../../../arm-none-eabi/lib/thumb/v6-m/nofp\libg.a(lib_a-fflush.o)
 .ARM.attributes
                0x00000000       0x2c c:/vsarm/armcc/102021~1.10/bin/../lib/gcc/arm-none-eabi/10.3.1/../../../../arm-none-eabi/lib/thumb/v6-m/nofp\libg.a(lib_a-fflush.o)
 .text          0x00000000        0x0 c:/vsarm/armcc/102021~1.10/bin/../lib/gcc/arm-none-eabi/10.3.1/../../../../arm-none-eabi/lib/thumb/v6-m/nofp\libg.a(lib_a-findfp.o)
 .data          0x00000000        0x0 c:/vsarm/armcc/102021~1.10/bin/../lib/gcc/arm-none-eabi/10.3.1/../../../../arm-none-eabi/lib/thumb/v6-m/nofp\libg.a(lib_a-findfp.o)
 .bss           0x00000000        0x0 c:/vsarm/armcc/102021~1.10/bin/../lib/gcc/arm-none-eabi/10.3.1/../../../../arm-none-eabi/lib/thumb/v6-m/nofp\libg.a(lib_a-findfp.o)
 .text._cleanup_r
                0x00000000       0x10 c:/vsarm/armcc/102021~1.10/bin/../lib/gcc/arm-none-eabi/10.3.1/../../../../arm-none-eabi/lib/thumb/v6-m/nofp\libg.a(lib_a-findfp.o)
 .text.__fp_lock
                0x00000000       0x1c c:/vsarm/armcc/102021~1.10/bin/../lib/gcc/arm-none-eabi/10.3.1/../../../../arm-none-eabi/lib/thumb/v6-m/nofp\libg.a(lib_a-findfp.o)
 .text.__fp_unlock
                0x00000000       0x1c c:/vsarm/armcc/102021~1.10/bin/../lib/gcc/arm-none-eabi/10.3.1/../../../../arm-none-eabi/lib/thumb/v6-m/nofp\libg.a(lib_a-findfp.o)
 .text.__sfmoreglue
                0x00000000       0x30 c:/vsarm/armcc/102021~1.10/bin/../lib/gcc/arm-none-eabi/10.3.1/../../../../arm-none-eabi/lib/thumb/v6-m/nofp\libg.a(lib_a-findfp.o)
 .text._cleanup
                0x00000000       0x18 c:/vsarm/armcc/102021~1.10/bin/../lib/gcc/arm-none-eabi/10.3.1/../../../../arm-none-eabi/lib/thumb/v6-m/nofp\libg.a(lib_a-findfp.o)
 .text.__sinit  0x00000000      0x120 c:/vsarm/armcc/102021~1.10/bin/../lib/gcc/arm-none-eabi/10.3.1/../../../../arm-none-eabi/lib/thumb/v6-m/nofp\libg.a(lib_a-findfp.o)
 .text.__sfp    0x00000000       0xd8 c:/vsarm/armcc/102021~1.10/bin/../lib/gcc/arm-none-eabi/10.3.1/../../../../arm-none-eabi/lib/thumb/v6-m/nofp\libg.a(lib_a-findfp.o)
 .text.__sfp_lock_acquire
                0x00000000       0x10 c:/vsarm/armcc/102021~1.10/bin/../lib/gcc/arm-none-eabi/10.3.1/../../../../arm-none-eabi/lib/thumb/v6-m/nofp\libg.a(lib_a-findfp.o)
 .text.__sfp_lock_release
                0x00000000       0x10 c:/vsarm/armcc/102021~1.10/bin/../lib/gcc/arm-none-eabi/10.3.1/../../../../arm-none-eabi/lib/thumb/v6-m/nofp\libg.a(lib_a-findfp.o)
 .text.__sinit_lock_acquire
                0x00000000       0x10 c:/vsarm/armcc/102021~1.10/bin/../lib/gcc/arm-none-eabi/10.3.1/../../../../arm-none-eabi/lib/thumb/v6-m/nofp\libg.a(lib_a-findfp.o)
 .text.__sinit_lock_release
                0x00000000       0x10 c:/vsarm/armcc/102021~1.10/bin/../lib/gcc/arm-none-eabi/10.3.1/../../../../arm-none-eabi/lib/thumb/v6-m/nofp\libg.a(lib_a-findfp.o)
 .text.__fp_lock_all
                0x00000000       0x20 c:/vsarm/armcc/102021~1.10/bin/../lib/gcc/arm-none-eabi/10.3.1/../../../../arm-none-eabi/lib/thumb/v6-m/nofp\libg.a(lib_a-findfp.o)
 .text.__fp_unlock_all
                0x00000000       0x20 c:/vsarm/armcc/102021~1.10/bin/../lib/gcc/arm-none-eabi/10.3.1/../../../../arm-none-eabi/lib/thumb/v6-m/nofp\libg.a(lib_a-findfp.o)
 .debug_frame   0x00000000      0x170 c:/vsarm/armcc/102021~1.10/bin/../lib/gcc/arm-none-eabi/10.3.1/../../../../arm-none-eabi/lib/thumb/v6-m/nofp\libg.a(lib_a-findfp.o)
 .ARM.attributes
                0x00000000       0x2c c:/vsarm/armcc/102021~1.10/bin/../lib/gcc/arm-none-eabi/10.3.1/../../../../arm-none-eabi/lib/thumb/v6-m/nofp\libg.a(lib_a-findfp.o)
 .text          0x00000000        0x0 c:/vsarm/armcc/102021~1.10/bin/../lib/gcc/arm-none-eabi/10.3.1/../../../../arm-none-eabi/lib/thumb/v6-m/nofp\libg.a(lib_a-fwalk.o)
 .data          0x00000000        0x0 c:/vsarm/armcc/102021~1.10/bin/../lib/gcc/arm-none-eabi/10.3.1/../../../../arm-none-eabi/lib/thumb/v6-m/nofp\libg.a(lib_a-fwalk.o)
 .bss           0x00000000        0x0 c:/vsarm/armcc/102021~1.10/bin/../lib/gcc/arm-none-eabi/10.3.1/../../../../arm-none-eabi/lib/thumb/v6-m/nofp\libg.a(lib_a-fwalk.o)
 .text._fwalk   0x00000000       0x40 c:/vsarm/armcc/102021~1.10/bin/../lib/gcc/arm-none-eabi/10.3.1/../../../../arm-none-eabi/lib/thumb/v6-m/nofp\libg.a(lib_a-fwalk.o)
 .text._fwalk_reent
                0x00000000       0x48 c:/vsarm/armcc/102021~1.10/bin/../lib/gcc/arm-none-eabi/10.3.1/../../../../arm-none-eabi/lib/thumb/v6-m/nofp\libg.a(lib_a-fwalk.o)
 .debug_frame   0x00000000       0x5c c:/vsarm/armcc/102021~1.10/bin/../lib/gcc/arm-none-eabi/10.3.1/../../../../arm-none-eabi/lib/thumb/v6-m/nofp\libg.a(lib_a-fwalk.o)
 .ARM.attributes
                0x00000000       0x2c c:/vsarm/armcc/102021~1.10/bin/../lib/gcc/arm-none-eabi/10.3.1/../../../../arm-none-eabi/lib/thumb/v6-m/nofp\libg.a(lib_a-fwalk.o)
 .text          0x00000000        0x0 c:/vsarm/armcc/102021~1.10/bin/../lib/gcc/arm-none-eabi/10.3.1/../../../../arm-none-eabi/lib/thumb/v6-m/nofp\libg.a(lib_a-iswspace.o)
 .data          0x00000000        0x0 c:/vsarm/armcc/102021~1.10/bin/../lib/gcc/arm-none-eabi/10.3.1/../../../../arm-none-eabi/lib/thumb/v6-m/nofp\libg.a(lib_a-iswspace.o)
 .bss           0x00000000        0x0 c:/vsarm/armcc/102021~1.10/bin/../lib/gcc/arm-none-eabi/10.3.1/../../../../arm-none-eabi/lib/thumb/v6-m/nofp\libg.a(lib_a-iswspace.o)
 .text.iswspace
                0x00000000        0xc c:/vsarm/armcc/102021~1.10/bin/../lib/gcc/arm-none-eabi/10.3.1/../../../../arm-none-eabi/lib/thumb/v6-m/nofp\libg.a(lib_a-iswspace.o)
 .debug_frame   0x00000000       0x28 c:/vsarm/armcc/102021~1.10/bin/../lib/gcc/arm-none-eabi/10.3.1/../../../../arm-none-eabi/lib/thumb/v6-m/nofp\libg.a(lib_a-iswspace.o)
 .ARM.attributes
                0x00000000       0x2c c:/vsarm/armcc/102021~1.10/bin/../lib/gcc/arm-none-eabi/10.3.1/../../../../arm-none-eabi/lib/thumb/v6-m/nofp\libg.a(lib_a-iswspace.o)
 .text          0x00000000        0x0 c:/vsarm/armcc/102021~1.10/bin/../lib/gcc/arm-none-eabi/10.3.1/../../../../arm-none-eabi/lib/thumb/v6-m/nofp\libg.a(lib_a-iswspace_l.o)
 .data          0x00000000        0x0 c:/vsarm/armcc/102021~1.10/bin/../lib/gcc/arm-none-eabi/10.3.1/../../../../arm-none-eabi/lib/thumb/v6-m/nofp\libg.a(lib_a-iswspace_l.o)
 .bss           0x00000000        0x0 c:/vsarm/armcc/102021~1.10/bin/../lib/gcc/arm-none-eabi/10.3.1/../../../../arm-none-eabi/lib/thumb/v6-m/nofp\libg.a(lib_a-iswspace_l.o)
 .text.iswspace_l
                0x00000000       0x18 c:/vsarm/armcc/102021~1.10/bin/../lib/gcc/arm-none-eabi/10.3.1/../../../../arm-none-eabi/lib/thumb/v6-m/nofp\libg.a(lib_a-iswspace_l.o)
 .debug_frame   0x00000000       0x20 c:/vsarm/armcc/102021~1.10/bin/../lib/gcc/arm-none-eabi/10.3.1/../../../../arm-none-eabi/lib/thumb/v6-m/nofp\libg.a(lib_a-iswspace_l.o)
 .ARM.attributes
                0x00000000       0x2c c:/vsarm/armcc/102021~1.10/bin/../lib/gcc/arm-none-eabi/10.3.1/../../../../arm-none-eabi/lib/thumb/v6-m/nofp\libg.a(lib_a-iswspace_l.o)
 .text          0x00000000        0x0 c:/vsarm/armcc/102021~1.10/bin/../lib/gcc/arm-none-eabi/10.3.1/../../../../arm-none-eabi/lib/thumb/v6-m/nofp\libg.a(lib_a-locale.o)
 .data          0x00000000        0x0 c:/vsarm/armcc/102021~1.10/bin/../lib/gcc/arm-none-eabi/10.3.1/../../../../arm-none-eabi/lib/thumb/v6-m/nofp\libg.a(lib_a-locale.o)
 .bss           0x00000000        0x0 c:/vsarm/armcc/102021~1.10/bin/../lib/gcc/arm-none-eabi/10.3.1/../../../../arm-none-eabi/lib/thumb/v6-m/nofp\libg.a(lib_a-locale.o)
 .rodata._setlocale_r.str1.4
                0x00000000        0xd c:/vsarm/armcc/102021~1.10/bin/../lib/gcc/arm-none-eabi/10.3.1/../../../../arm-none-eabi/lib/thumb/v6-m/nofp\libg.a(lib_a-locale.o)
 .text._setlocale_r
                0x00000000       0x44 c:/vsarm/armcc/102021~1.10/bin/../lib/gcc/arm-none-eabi/10.3.1/../../../../arm-none-eabi/lib/thumb/v6-m/nofp\libg.a(lib_a-locale.o)
 .text.__locale_mb_cur_max
                0x00000000       0x10 c:/vsarm/armcc/102021~1.10/bin/../lib/gcc/arm-none-eabi/10.3.1/../../../../arm-none-eabi/lib/thumb/v6-m/nofp\libg.a(lib_a-locale.o)
 .text.setlocale
                0x00000000       0x44 c:/vsarm/armcc/102021~1.10/bin/../lib/gcc/arm-none-eabi/10.3.1/../../../../arm-none-eabi/lib/thumb/v6-m/nofp\libg.a(lib_a-locale.o)
 .rodata.str1.4
                0x00000000        0x2 c:/vsarm/armcc/102021~1.10/bin/../lib/gcc/arm-none-eabi/10.3.1/../../../../arm-none-eabi/lib/thumb/v6-m/nofp\libg.a(lib_a-locale.o)
 .bss._PathLocale
                0x00000000        0x4 c:/vsarm/armcc/102021~1.10/bin/../lib/gcc/arm-none-eabi/10.3.1/../../../../arm-none-eabi/lib/thumb/v6-m/nofp\libg.a(lib_a-locale.o)
 .data.__global_locale
                0x00000000      0x16c c:/vsarm/armcc/102021~1.10/bin/../lib/gcc/arm-none-eabi/10.3.1/../../../../arm-none-eabi/lib/thumb/v6-m/nofp\libg.a(lib_a-locale.o)
 .debug_frame   0x00000000       0x58 c:/vsarm/armcc/102021~1.10/bin/../lib/gcc/arm-none-eabi/10.3.1/../../../../arm-none-eabi/lib/thumb/v6-m/nofp\libg.a(lib_a-locale.o)
 .ARM.attributes
                0x00000000       0x2c c:/vsarm/armcc/102021~1.10/bin/../lib/gcc/arm-none-eabi/10.3.1/../../../../arm-none-eabi/lib/thumb/v6-m/nofp\libg.a(lib_a-locale.o)
 .text          0x00000000        0x0 c:/vsarm/armcc/102021~1.10/bin/../lib/gcc/arm-none-eabi/10.3.1/../../../../arm-none-eabi/lib/thumb/v6-m/nofp\libg.a(lib_a-lseekr.o)
 .data          0x00000000        0x0 c:/vsarm/armcc/102021~1.10/bin/../lib/gcc/arm-none-eabi/10.3.1/../../../../arm-none-eabi/lib/thumb/v6-m/nofp\libg.a(lib_a-lseekr.o)
 .bss           0x00000000        0x0 c:/vsarm/armcc/102021~1.10/bin/../lib/gcc/arm-none-eabi/10.3.1/../../../../arm-none-eabi/lib/thumb/v6-m/nofp\libg.a(lib_a-lseekr.o)
 .text._lseek_r
                0x00000000       0x28 c:/vsarm/armcc/102021~1.10/bin/../lib/gcc/arm-none-eabi/10.3.1/../../../../arm-none-eabi/lib/thumb/v6-m/nofp\libg.a(lib_a-lseekr.o)
 .debug_frame   0x00000000       0x2c c:/vsarm/armcc/102021~1.10/bin/../lib/gcc/arm-none-eabi/10.3.1/../../../../arm-none-eabi/lib/thumb/v6-m/nofp\libg.a(lib_a-lseekr.o)
 .ARM.attributes
                0x00000000       0x2c c:/vsarm/armcc/102021~1.10/bin/../lib/gcc/arm-none-eabi/10.3.1/../../../../arm-none-eabi/lib/thumb/v6-m/nofp\libg.a(lib_a-lseekr.o)
 .text          0x00000000        0x0 c:/vsarm/armcc/102021~1.10/bin/../lib/gcc/arm-none-eabi/10.3.1/../../../../arm-none-eabi/lib/thumb/v6-m/nofp\libg.a(lib_a-mbrtowc.o)
 .data          0x00000000        0x0 c:/vsarm/armcc/102021~1.10/bin/../lib/gcc/arm-none-eabi/10.3.1/../../../../arm-none-eabi/lib/thumb/v6-m/nofp\libg.a(lib_a-mbrtowc.o)
 .bss           0x00000000        0x0 c:/vsarm/armcc/102021~1.10/bin/../lib/gcc/arm-none-eabi/10.3.1/../../../../arm-none-eabi/lib/thumb/v6-m/nofp\libg.a(lib_a-mbrtowc.o)
 .rodata._mbrtowc_r.str1.4
                0x00000000        0x1 c:/vsarm/armcc/102021~1.10/bin/../lib/gcc/arm-none-eabi/10.3.1/../../../../arm-none-eabi/lib/thumb/v6-m/nofp\libg.a(lib_a-mbrtowc.o)
 .text._mbrtowc_r
                0x00000000       0x4c c:/vsarm/armcc/102021~1.10/bin/../lib/gcc/arm-none-eabi/10.3.1/../../../../arm-none-eabi/lib/thumb/v6-m/nofp\libg.a(lib_a-mbrtowc.o)
 .text.mbrtowc  0x00000000       0x50 c:/vsarm/armcc/102021~1.10/bin/../lib/gcc/arm-none-eabi/10.3.1/../../../../arm-none-eabi/lib/thumb/v6-m/nofp\libg.a(lib_a-mbrtowc.o)
 .debug_frame   0x00000000       0x4c c:/vsarm/armcc/102021~1.10/bin/../lib/gcc/arm-none-eabi/10.3.1/../../../../arm-none-eabi/lib/thumb/v6-m/nofp\libg.a(lib_a-mbrtowc.o)
 .ARM.attributes
                0x00000000       0x2c c:/vsarm/armcc/102021~1.10/bin/../lib/gcc/arm-none-eabi/10.3.1/../../../../arm-none-eabi/lib/thumb/v6-m/nofp\libg.a(lib_a-mbrtowc.o)
 .text          0x00000000        0x0 c:/vsarm/armcc/102021~1.10/bin/../lib/gcc/arm-none-eabi/10.3.1/../../../../arm-none-eabi/lib/thumb/v6-m/nofp\libg.a(lib_a-mbtowc_r.o)
 .data          0x00000000        0x0 c:/vsarm/armcc/102021~1.10/bin/../lib/gcc/arm-none-eabi/10.3.1/../../../../arm-none-eabi/lib/thumb/v6-m/nofp\libg.a(lib_a-mbtowc_r.o)
 .bss           0x00000000        0x0 c:/vsarm/armcc/102021~1.10/bin/../lib/gcc/arm-none-eabi/10.3.1/../../../../arm-none-eabi/lib/thumb/v6-m/nofp\libg.a(lib_a-mbtowc_r.o)
 .text._mbtowc_r
                0x00000000       0x18 c:/vsarm/armcc/102021~1.10/bin/../lib/gcc/arm-none-eabi/10.3.1/../../../../arm-none-eabi/lib/thumb/v6-m/nofp\libg.a(lib_a-mbtowc_r.o)
 .text.__ascii_mbtowc
                0x00000000       0x2c c:/vsarm/armcc/102021~1.10/bin/../lib/gcc/arm-none-eabi/10.3.1/../../../../arm-none-eabi/lib/thumb/v6-m/nofp\libg.a(lib_a-mbtowc_r.o)
 .debug_frame   0x00000000       0x40 c:/vsarm/armcc/102021~1.10/bin/../lib/gcc/arm-none-eabi/10.3.1/../../../../arm-none-eabi/lib/thumb/v6-m/nofp\libg.a(lib_a-mbtowc_r.o)
 .ARM.attributes
                0x00000000       0x2c c:/vsarm/armcc/102021~1.10/bin/../lib/gcc/arm-none-eabi/10.3.1/../../../../arm-none-eabi/lib/thumb/v6-m/nofp\libg.a(lib_a-mbtowc_r.o)
 .text          0x00000000        0x0 c:/vsarm/armcc/102021~1.10/bin/../lib/gcc/arm-none-eabi/10.3.1/../../../../arm-none-eabi/lib/thumb/v6-m/nofp\libg.a(lib_a-readr.o)
 .data          0x00000000        0x0 c:/vsarm/armcc/102021~1.10/bin/../lib/gcc/arm-none-eabi/10.3.1/../../../../arm-none-eabi/lib/thumb/v6-m/nofp\libg.a(lib_a-readr.o)
 .bss           0x00000000        0x0 c:/vsarm/armcc/102021~1.10/bin/../lib/gcc/arm-none-eabi/10.3.1/../../../../arm-none-eabi/lib/thumb/v6-m/nofp\libg.a(lib_a-readr.o)
 .text._read_r  0x00000000       0x28 c:/vsarm/armcc/102021~1.10/bin/../lib/gcc/arm-none-eabi/10.3.1/../../../../arm-none-eabi/lib/thumb/v6-m/nofp\libg.a(lib_a-readr.o)
 .debug_frame   0x00000000       0x2c c:/vsarm/armcc/102021~1.10/bin/../lib/gcc/arm-none-eabi/10.3.1/../../../../arm-none-eabi/lib/thumb/v6-m/nofp\libg.a(lib_a-readr.o)
 .ARM.attributes
                0x00000000       0x2c c:/vsarm/armcc/102021~1.10/bin/../lib/gcc/arm-none-eabi/10.3.1/../../../../arm-none-eabi/lib/thumb/v6-m/nofp\libg.a(lib_a-readr.o)
 .text          0x00000000        0x0 c:/vsarm/armcc/102021~1.10/bin/../lib/gcc/arm-none-eabi/10.3.1/../../../../arm-none-eabi/lib/thumb/v6-m/nofp\libg.a(lib_a-sccl.o)
 .data          0x00000000        0x0 c:/vsarm/armcc/102021~1.10/bin/../lib/gcc/arm-none-eabi/10.3.1/../../../../arm-none-eabi/lib/thumb/v6-m/nofp\libg.a(lib_a-sccl.o)
 .bss           0x00000000        0x0 c:/vsarm/armcc/102021~1.10/bin/../lib/gcc/arm-none-eabi/10.3.1/../../../../arm-none-eabi/lib/thumb/v6-m/nofp\libg.a(lib_a-sccl.o)
 .text.__sccl   0x00000000       0x80 c:/vsarm/armcc/102021~1.10/bin/../lib/gcc/arm-none-eabi/10.3.1/../../../../arm-none-eabi/lib/thumb/v6-m/nofp\libg.a(lib_a-sccl.o)
 .debug_frame   0x00000000       0x2c c:/vsarm/armcc/102021~1.10/bin/../lib/gcc/arm-none-eabi/10.3.1/../../../../arm-none-eabi/lib/thumb/v6-m/nofp\libg.a(lib_a-sccl.o)
 .ARM.attributes
                0x00000000       0x2c c:/vsarm/armcc/102021~1.10/bin/../lib/gcc/arm-none-eabi/10.3.1/../../../../arm-none-eabi/lib/thumb/v6-m/nofp\libg.a(lib_a-sccl.o)
 .text          0x00000000        0x0 c:/vsarm/armcc/102021~1.10/bin/../lib/gcc/arm-none-eabi/10.3.1/../../../../arm-none-eabi/lib/thumb/v6-m/nofp\libg.a(lib_a-strtoll.o)
 .data          0x00000000        0x0 c:/vsarm/armcc/102021~1.10/bin/../lib/gcc/arm-none-eabi/10.3.1/../../../../arm-none-eabi/lib/thumb/v6-m/nofp\libg.a(lib_a-strtoll.o)
 .bss           0x00000000        0x0 c:/vsarm/armcc/102021~1.10/bin/../lib/gcc/arm-none-eabi/10.3.1/../../../../arm-none-eabi/lib/thumb/v6-m/nofp\libg.a(lib_a-strtoll.o)
 .text._strtoll_l.constprop.0
                0x00000000      0x198 c:/vsarm/armcc/102021~1.10/bin/../lib/gcc/arm-none-eabi/10.3.1/../../../../arm-none-eabi/lib/thumb/v6-m/nofp\libg.a(lib_a-strtoll.o)
 .text._strtoll_r
                0x00000000        0x8 c:/vsarm/armcc/102021~1.10/bin/../lib/gcc/arm-none-eabi/10.3.1/../../../../arm-none-eabi/lib/thumb/v6-m/nofp\libg.a(lib_a-strtoll.o)
 .text.strtoll_l
                0x00000000       0x18 c:/vsarm/armcc/102021~1.10/bin/../lib/gcc/arm-none-eabi/10.3.1/../../../../arm-none-eabi/lib/thumb/v6-m/nofp\libg.a(lib_a-strtoll.o)
 .text.strtoll  0x00000000       0x18 c:/vsarm/armcc/102021~1.10/bin/../lib/gcc/arm-none-eabi/10.3.1/../../../../arm-none-eabi/lib/thumb/v6-m/nofp\libg.a(lib_a-strtoll.o)
 .debug_frame   0x00000000       0x84 c:/vsarm/armcc/102021~1.10/bin/../lib/gcc/arm-none-eabi/10.3.1/../../../../arm-none-eabi/lib/thumb/v6-m/nofp\libg.a(lib_a-strtoll.o)
 .ARM.attributes
                0x00000000       0x2c c:/vsarm/armcc/102021~1.10/bin/../lib/gcc/arm-none-eabi/10.3.1/../../../../arm-none-eabi/lib/thumb/v6-m/nofp\libg.a(lib_a-strtoll.o)
 .text          0x00000000        0x0 c:/vsarm/armcc/102021~1.10/bin/../lib/gcc/arm-none-eabi/10.3.1/../../../../arm-none-eabi/lib/thumb/v6-m/nofp\libg.a(lib_a-strtoull.o)
 .data          0x00000000        0x0 c:/vsarm/armcc/102021~1.10/bin/../lib/gcc/arm-none-eabi/10.3.1/../../../../arm-none-eabi/lib/thumb/v6-m/nofp\libg.a(lib_a-strtoull.o)
 .bss           0x00000000        0x0 c:/vsarm/armcc/102021~1.10/bin/../lib/gcc/arm-none-eabi/10.3.1/../../../../arm-none-eabi/lib/thumb/v6-m/nofp\libg.a(lib_a-strtoull.o)
 .text._strtoull_l.constprop.0
                0x00000000      0x1bc c:/vsarm/armcc/102021~1.10/bin/../lib/gcc/arm-none-eabi/10.3.1/../../../../arm-none-eabi/lib/thumb/v6-m/nofp\libg.a(lib_a-strtoull.o)
 .text._strtoull_r
                0x00000000        0x8 c:/vsarm/armcc/102021~1.10/bin/../lib/gcc/arm-none-eabi/10.3.1/../../../../arm-none-eabi/lib/thumb/v6-m/nofp\libg.a(lib_a-strtoull.o)
 .text.strtoull_l
                0x00000000       0x18 c:/vsarm/armcc/102021~1.10/bin/../lib/gcc/arm-none-eabi/10.3.1/../../../../arm-none-eabi/lib/thumb/v6-m/nofp\libg.a(lib_a-strtoull.o)
 .text.strtoull
                0x00000000       0x18 c:/vsarm/armcc/102021~1.10/bin/../lib/gcc/arm-none-eabi/10.3.1/../../../../arm-none-eabi/lib/thumb/v6-m/nofp\libg.a(lib_a-strtoull.o)
 .debug_frame   0x00000000       0x84 c:/vsarm/armcc/102021~1.10/bin/../lib/gcc/arm-none-eabi/10.3.1/../../../../arm-none-eabi/lib/thumb/v6-m/nofp\libg.a(lib_a-strtoull.o)
 .ARM.attributes
                0x00000000       0x2c c:/vsarm/armcc/102021~1.10/bin/../lib/gcc/arm-none-eabi/10.3.1/../../../../arm-none-eabi/lib/thumb/v6-m/nofp\libg.a(lib_a-strtoull.o)
 .text          0x00000000        0x0 c:/vsarm/armcc/102021~1.10/bin/../lib/gcc/arm-none-eabi/10.3.1/../../../../arm-none-eabi/lib/thumb/v6-m/nofp\libg.a(lib_a-wctomb_r.o)
 .data          0x00000000        0x0 c:/vsarm/armcc/102021~1.10/bin/../lib/gcc/arm-none-eabi/10.3.1/../../../../arm-none-eabi/lib/thumb/v6-m/nofp\libg.a(lib_a-wctomb_r.o)
 .bss           0x00000000        0x0 c:/vsarm/armcc/102021~1.10/bin/../lib/gcc/arm-none-eabi/10.3.1/../../../../arm-none-eabi/lib/thumb/v6-m/nofp\libg.a(lib_a-wctomb_r.o)
 .text._wctomb_r
                0x00000000       0x10 c:/vsarm/armcc/102021~1.10/bin/../lib/gcc/arm-none-eabi/10.3.1/../../../../arm-none-eabi/lib/thumb/v6-m/nofp\libg.a(lib_a-wctomb_r.o)
 .text.__ascii_wctomb
                0x00000000       0x1c c:/vsarm/armcc/102021~1.10/bin/../lib/gcc/arm-none-eabi/10.3.1/../../../../arm-none-eabi/lib/thumb/v6-m/nofp\libg.a(lib_a-wctomb_r.o)
 .debug_frame   0x00000000       0x3c c:/vsarm/armcc/102021~1.10/bin/../lib/gcc/arm-none-eabi/10.3.1/../../../../arm-none-eabi/lib/thumb/v6-m/nofp\libg.a(lib_a-wctomb_r.o)
 .ARM.attributes
                0x00000000       0x2c c:/vsarm/armcc/102021~1.10/bin/../lib/gcc/arm-none-eabi/10.3.1/../../../../arm-none-eabi/lib/thumb/v6-m/nofp\libg.a(lib_a-wctomb_r.o)
 .text          0x00000000        0x0 c:/vsarm/armcc/102021~1.10/bin/../lib/gcc/arm-none-eabi/10.3.1/../../../../arm-none-eabi/lib/thumb/v6-m/nofp\libg.a(lib_a-fclose.o)
 .data          0x00000000        0x0 c:/vsarm/armcc/102021~1.10/bin/../lib/gcc/arm-none-eabi/10.3.1/../../../../arm-none-eabi/lib/thumb/v6-m/nofp\libg.a(lib_a-fclose.o)
 .bss           0x00000000        0x0 c:/vsarm/armcc/102021~1.10/bin/../lib/gcc/arm-none-eabi/10.3.1/../../../../arm-none-eabi/lib/thumb/v6-m/nofp\libg.a(lib_a-fclose.o)
 .text._fclose_r
                0x00000000       0xdc c:/vsarm/armcc/102021~1.10/bin/../lib/gcc/arm-none-eabi/10.3.1/../../../../arm-none-eabi/lib/thumb/v6-m/nofp\libg.a(lib_a-fclose.o)
 .text.fclose   0x00000000       0x14 c:/vsarm/armcc/102021~1.10/bin/../lib/gcc/arm-none-eabi/10.3.1/../../../../arm-none-eabi/lib/thumb/v6-m/nofp\libg.a(lib_a-fclose.o)
 .debug_frame   0x00000000       0x48 c:/vsarm/armcc/102021~1.10/bin/../lib/gcc/arm-none-eabi/10.3.1/../../../../arm-none-eabi/lib/thumb/v6-m/nofp\libg.a(lib_a-fclose.o)
 .ARM.attributes
                0x00000000       0x2c c:/vsarm/armcc/102021~1.10/bin/../lib/gcc/arm-none-eabi/10.3.1/../../../../arm-none-eabi/lib/thumb/v6-m/nofp\libg.a(lib_a-fclose.o)
 .text          0x00000000        0x0 c:/vsarm/armcc/102021~1.10/bin/../lib/gcc/arm-none-eabi/10.3.1/thumb/v6-m/nofp/crtend.o
 .data          0x00000000        0x0 c:/vsarm/armcc/102021~1.10/bin/../lib/gcc/arm-none-eabi/10.3.1/thumb/v6-m/nofp/crtend.o
 .bss           0x00000000        0x0 c:/vsarm/armcc/102021~1.10/bin/../lib/gcc/arm-none-eabi/10.3.1/thumb/v6-m/nofp/crtend.o
 .rodata        0x00000000       0x24 c:/vsarm/armcc/102021~1.10/bin/../lib/gcc/arm-none-eabi/10.3.1/thumb/v6-m/nofp/crtend.o
 .eh_frame      0x00000000        0x4 c:/vsarm/armcc/102021~1.10/bin/../lib/gcc/arm-none-eabi/10.3.1/thumb/v6-m/nofp/crtend.o
 .ARM.attributes
                0x00000000       0x2c c:/vsarm/armcc/102021~1.10/bin/../lib/gcc/arm-none-eabi/10.3.1/thumb/v6-m/nofp/crtend.o
 .text          0x00000000        0x0 c:/vsarm/armcc/102021~1.10/bin/../lib/gcc/arm-none-eabi/10.3.1/thumb/v6-m/nofp/crtn.o
 .data          0x00000000        0x0 c:/vsarm/armcc/102021~1.10/bin/../lib/gcc/arm-none-eabi/10.3.1/thumb/v6-m/nofp/crtn.o
 .bss           0x00000000        0x0 c:/vsarm/armcc/102021~1.10/bin/../lib/gcc/arm-none-eabi/10.3.1/thumb/v6-m/nofp/crtn.o
 .init          0x00000000        0x8 c:/vsarm/armcc/102021~1.10/bin/../lib/gcc/arm-none-eabi/10.3.1/thumb/v6-m/nofp/crtn.o
 .fini          0x00000000        0x8 c:/vsarm/armcc/102021~1.10/bin/../lib/gcc/arm-none-eabi/10.3.1/thumb/v6-m/nofp/crtn.o
 .ARM.attributes
                0x00000000       0x1e c:/vsarm/armcc/102021~1.10/bin/../lib/gcc/arm-none-eabi/10.3.1/thumb/v6-m/nofp/crtn.o

Memory Configuration

Name             Origin             Length             Attributes
FLASH            0x10000000         0x01000000         xr
RAM              0x20000000         0x00040000         xrw
SCRATCH_X        0x20040000         0x00001000         xrw
SCRATCH_Y        0x20041000         0x00001000         xrw
*default*        0x00000000         0xffffffff

Linker script and memory map

LOAD c:/vsarm/armcc/102021~1.10/bin/../lib/gcc/arm-none-eabi/10.3.1/thumb/v6-m/nofp/crti.o
LOAD c:/vsarm/armcc/102021~1.10/bin/../lib/gcc/arm-none-eabi/10.3.1/thumb/v6-m/nofp/crtbegin.o
LOAD c:/vsarm/armcc/102021~1.10/bin/../lib/gcc/arm-none-eabi/10.3.1/../../../../arm-none-eabi/lib/thumb/v6-m/nofp/crt0.o

.flash_begin    0x10000000        0x0
                0x10000000                __flash_binary_start = .

.boot2          0x10000000      0x100
                0x10000000                __boot2_start__ = .
 *(.boot2)
 .boot2         0x10000000      0x100 pico-sdk/src/rp2040/boot_stage2/CMakeFiles/bs2_default_library.dir/./bs2_default_padded_checksummed.S.obj
                0x10000100                __boot2_end__ = .
                0x00000001                ASSERT (((__boot2_end__ - __boot2_start__) == 0x100), ERROR: Pico second stage bootloader must be 256 bytes in size)

.text           0x10000100     0x95dc
                0x10000100                __logical_binary_start = .
 *(.vectors)
 .vectors       0x10000100       0xd4 CMakeFiles/nano_http_client.dir/C_/Users/yoyom/Desktop/Pico/pico-sdk/src/rp2_common/pico_crt0/crt0.S.obj
                0x10000100                __VECTOR_TABLE
                0x10000100                __vectors
                0x100001c0                isr_invalid
                0x100001c0                __default_isrs_start
                0x100001c2                isr_nmi
                0x100001c4                isr_hardfault
                0x100001c6                isr_svcall
                0x100001c8                isr_pendsv
                0x100001ca                isr_systick
                0x100001cc                isr_irq23
                0x100001cc                isr_irq18
                0x100001cc                isr_irq11
                0x100001cc                isr_irq28
                0x100001cc                isr_irq19
                0x100001cc                isr_irq0
                0x100001cc                isr_irq6
                0x100001cc                isr_irq5
                0x100001cc                isr_irq12
                0x100001cc                isr_irq22
                0x100001cc                isr_irq31
                0x100001cc                isr_irq17
                0x100001cc                isr_irq27
                0x100001cc                isr_irq30
                0x100001cc                isr_irq2
                0x100001cc                isr_irq10
                0x100001cc                isr_irq8
                0x100001cc                isr_irq24
                0x100001cc                isr_irq1
                0x100001cc                isr_irq7
                0x100001cc                isr_irq21
                0x100001cc                isr_irq20
                0x100001cc                isr_irq15
                0x100001cc                isr_irq25
                0x100001cc                isr_irq13
                0x100001cc                __unhandled_user_irq
                0x100001cc                isr_irq4
                0x100001cc                isr_irq16
                0x100001cc                isr_irq29
                0x100001cc                isr_irq26
                0x100001cc                __default_isrs_end
                0x100001cc                isr_irq3
                0x100001cc                isr_irq14
                0x100001cc                isr_irq9
                0x100001d2                unhandled_user_irq_num_in_r0
 *(.binary_info_header)
 .binary_info_header
                0x100001d4       0x14 CMakeFiles/nano_http_client.dir/C_/Users/yoyom/Desktop/Pico/pico-sdk/src/rp2_common/pico_crt0/crt0.S.obj
                0x100001e8                __binary_info_header_end = .
 *(.embedded_block)
                0x100001e8                __embedded_block_end = .
 *(.reset)
 .reset         0x100001e8       0x9c CMakeFiles/nano_http_client.dir/C_/Users/yoyom/Desktop/Pico/pico-sdk/src/rp2_common/pico_crt0/crt0.S.obj
                0x100001e8                _entry_point
 *(.init)
 .init          0x10000284        0x4 c:/vsarm/armcc/102021~1.10/bin/../lib/gcc/arm-none-eabi/10.3.1/thumb/v6-m/nofp/crti.o
                0x10000284                _init
 *(EXCLUDE_FILE(*libm.a: *libc.a:*lib_a-mem*.o *libgcc.a:) .text*)
 .text          0x10000288       0x48 c:/vsarm/armcc/102021~1.10/bin/../lib/gcc/arm-none-eabi/10.3.1/thumb/v6-m/nofp/crtbegin.o
 .text.tcp_error_callback
                0x100002d0       0x18 CMakeFiles/nano_http_client.dir/main.c.obj
 .text.tcp_recv_callback
                0x100002e8       0x38 CMakeFiles/nano_http_client.dir/main.c.obj
 .text.tcp_connected_callback
                0x10000320       0x34 CMakeFiles/nano_http_client.dir/main.c.obj
 .text.startup.main
                0x10000354      0x15c CMakeFiles/nano_http_client.dir/main.c.obj
                0x10000354                main
 .text.rp2040_chip_version
                0x100004b0        0xc CMakeFiles/nano_http_client.dir/C_/Users/yoyom/Desktop/Pico/pico-sdk/src/rp2040/pico_platform/platform.c.obj
                0x100004b0                rp2040_chip_version
 .text.panic    0x100004bc       0x30 CMakeFiles/nano_http_client.dir/C_/Users/yoyom/Desktop/Pico/pico-sdk/src/rp2_common/pico_platform_panic/panic.c.obj
                0x100004bc                panic
 .text.hw_claim_or_assert
                0x100004ec       0x44 CMakeFiles/nano_http_client.dir/C_/Users/yoyom/Desktop/Pico/pico-sdk/src/common/hardware_claim/claim.c.obj
                0x100004ec                hw_claim_or_assert
 .text.hw_claim_unused_from_range
                0x10000530       0x9c CMakeFiles/nano_http_client.dir/C_/Users/yoyom/Desktop/Pico/pico-sdk/src/common/hardware_claim/claim.c.obj
                0x10000530                hw_claim_unused_from_range
 .text.next_striped_spin_lock_num
                0x100005cc       0x18 CMakeFiles/nano_http_client.dir/C_/Users/yoyom/Desktop/Pico/pico-sdk/src/rp2_common/hardware_sync/sync.c.obj
                0x100005cc                next_striped_spin_lock_num
 .text.spin_lock_claim_unused
                0x100005e4       0x20 CMakeFiles/nano_http_client.dir/C_/Users/yoyom/Desktop/Pico/pico-sdk/src/rp2_common/hardware_sync/sync.c.obj
                0x100005e4                spin_lock_claim_unused
 .text.spin_locks_reset
                0x10000604       0x1c CMakeFiles/nano_http_client.dir/C_/Users/yoyom/Desktop/Pico/pico-sdk/src/rp2_common/hardware_sync_spin_lock/sync_spin_lock.c.obj
                0x10000604                spin_locks_reset
 .text.runtime_init_per_core_irq_priorities
                0x10000620       0x24 CMakeFiles/nano_http_client.dir/C_/Users/yoyom/Desktop/Pico/pico-sdk/src/rp2_common/hardware_irq/irq.c.obj
                0x10000620                runtime_init_per_core_irq_priorities
 .text.irq_set_enabled
                0x10000644       0x24 CMakeFiles/nano_http_client.dir/C_/Users/yoyom/Desktop/Pico/pico-sdk/src/rp2_common/hardware_irq/irq.c.obj
                0x10000644                irq_set_enabled
 .text.irq_is_enabled
                0x10000668       0x18 CMakeFiles/nano_http_client.dir/C_/Users/yoyom/Desktop/Pico/pico-sdk/src/rp2_common/hardware_irq/irq.c.obj
                0x10000668                irq_is_enabled
 .text.irq_set_pending
                0x10000680       0x10 CMakeFiles/nano_http_client.dir/C_/Users/yoyom/Desktop/Pico/pico-sdk/src/rp2_common/hardware_irq/irq.c.obj
                0x10000680                irq_set_pending
 .text.irq_has_shared_handler
                0x10000690       0x2c CMakeFiles/nano_http_client.dir/C_/Users/yoyom/Desktop/Pico/pico-sdk/src/rp2_common/hardware_irq/irq.c.obj
                0x10000690                irq_has_shared_handler
 .text.irq_set_exclusive_handler
                0x100006bc       0x54 CMakeFiles/nano_http_client.dir/C_/Users/yoyom/Desktop/Pico/pico-sdk/src/rp2_common/hardware_irq/irq.c.obj
                0x100006bc                irq_set_exclusive_handler
 .text.irq_add_shared_handler
                0x10000710      0x1e8 CMakeFiles/nano_http_client.dir/C_/Users/yoyom/Desktop/Pico/pico-sdk/src/rp2_common/hardware_irq/irq.c.obj
                0x10000710                irq_add_shared_handler
 .text.irq_add_tail_to_free_list
                0x100008f8      0x144 CMakeFiles/nano_http_client.dir/C_/Users/yoyom/Desktop/Pico/pico-sdk/src/rp2_common/hardware_irq/irq.c.obj
                0x100008f8                irq_add_tail_to_free_list
 .text.user_irq_claim_unused
                0x10000a3c       0x28 CMakeFiles/nano_http_client.dir/C_/Users/yoyom/Desktop/Pico/pico-sdk/src/rp2_common/hardware_irq/irq.c.obj
                0x10000a3c                user_irq_claim_unused
 .text.lock_init
                0x10000a64       0x10 CMakeFiles/nano_http_client.dir/C_/Users/yoyom/Desktop/Pico/pico-sdk/src/common/pico_sync/lock_core.c.obj
                0x10000a64                lock_init
 .text.runtime_init_mutex
                0x10000a74       0x58 CMakeFiles/nano_http_client.dir/C_/Users/yoyom/Desktop/Pico/pico-sdk/src/common/pico_sync/mutex.c.obj
                0x10000a74                runtime_init_mutex
 .text.mutex_init
                0x10000acc       0x1c CMakeFiles/nano_http_client.dir/C_/Users/yoyom/Desktop/Pico/pico-sdk/src/common/pico_sync/mutex.c.obj
                0x10000acc                mutex_init
 .text.critical_section_init
                0x10000ae8       0x20 CMakeFiles/nano_http_client.dir/C_/Users/yoyom/Desktop/Pico/pico-sdk/src/common/pico_sync/critical_section.c.obj
                0x10000ae8                critical_section_init
 .text.critical_section_init_with_lock_num
                0x10000b08       0x14 CMakeFiles/nano_http_client.dir/C_/Users/yoyom/Desktop/Pico/pico-sdk/src/common/pico_sync/critical_section.c.obj
                0x10000b08                critical_section_init_with_lock_num
 .text.sleep_until_callback
                0x10000b1c       0x30 CMakeFiles/nano_http_client.dir/C_/Users/yoyom/Desktop/Pico/pico-sdk/src/common/pico_time/time.c.obj
 .text.alarm_pool_irq_handler
                0x10000b4c      0x308 CMakeFiles/nano_http_client.dir/C_/Users/yoyom/Desktop/Pico/pico-sdk/src/common/pico_time/time.c.obj
 .text.runtime_init_default_alarm_pool
                0x10000e54       0xdc CMakeFiles/nano_http_client.dir/C_/Users/yoyom/Desktop/Pico/pico-sdk/src/common/pico_time/time.c.obj
                0x10000e54                runtime_init_default_alarm_pool
 .text.alarm_pool_get_default
                0x10000f30        0x8 CMakeFiles/nano_http_client.dir/C_/Users/yoyom/Desktop/Pico/pico-sdk/src/common/pico_time/time.c.obj
                0x10000f30                alarm_pool_get_default
 .text.alarm_pool_add_alarm_at
                0x10000f38       0xc8 CMakeFiles/nano_http_client.dir/C_/Users/yoyom/Desktop/Pico/pico-sdk/src/common/pico_time/time.c.obj
                0x10000f38                alarm_pool_add_alarm_at
 .text.alarm_pool_add_alarm_at_force_in_context
                0x10001000       0xb0 CMakeFiles/nano_http_client.dir/C_/Users/yoyom/Desktop/Pico/pico-sdk/src/common/pico_time/time.c.obj
                0x10001000                alarm_pool_add_alarm_at_force_in_context
 .text.alarm_pool_cancel_alarm
                0x100010b0       0x7c CMakeFiles/nano_http_client.dir/C_/Users/yoyom/Desktop/Pico/pico-sdk/src/common/pico_time/time.c.obj
                0x100010b0                alarm_pool_cancel_alarm
 .text.alarm_pool_core_num
                0x1000112c        0x4 CMakeFiles/nano_http_client.dir/C_/Users/yoyom/Desktop/Pico/pico-sdk/src/common/pico_time/time.c.obj
                0x1000112c                alarm_pool_core_num
 .text.sleep_until
                0x10001130       0xd0 CMakeFiles/nano_http_client.dir/C_/Users/yoyom/Desktop/Pico/pico-sdk/src/common/pico_time/time.c.obj
                0x10001130                sleep_until
 .text.sleep_ms
                0x10001200       0x34 CMakeFiles/nano_http_client.dir/C_/Users/yoyom/Desktop/Pico/pico-sdk/src/common/pico_time/time.c.obj
                0x10001200                sleep_ms
 .text.best_effort_wfe_or_timeout
                0x10001234       0xe0 CMakeFiles/nano_http_client.dir/C_/Users/yoyom/Desktop/Pico/pico-sdk/src/common/pico_time/time.c.obj
                0x10001234                best_effort_wfe_or_timeout
 .text.timer_hardware_alarm_claim
                0x10001314       0x14 CMakeFiles/nano_http_client.dir/C_/Users/yoyom/Desktop/Pico/pico-sdk/src/rp2_common/hardware_timer/timer.c.obj
                0x10001314                timer_hardware_alarm_claim
 .text.timer_time_us_64
                0x10001328       0x10 CMakeFiles/nano_http_client.dir/C_/Users/yoyom/Desktop/Pico/pico-sdk/src/rp2_common/hardware_timer/timer.c.obj
                0x10001328                timer_time_us_64
 .text.time_us_64
                0x10001338       0x14 CMakeFiles/nano_http_client.dir/C_/Users/yoyom/Desktop/Pico/pico-sdk/src/rp2_common/hardware_timer/timer.c.obj
                0x10001338                time_us_64
 .text.busy_wait_until
                0x1000134c       0x20 CMakeFiles/nano_http_client.dir/C_/Users/yoyom/Desktop/Pico/pico-sdk/src/rp2_common/hardware_timer/timer.c.obj
                0x1000134c                busy_wait_until
 .text.clock_configure_int_divider
                0x1000136c       0xf4 CMakeFiles/nano_http_client.dir/C_/Users/yoyom/Desktop/Pico/pico-sdk/src/rp2_common/hardware_clocks/clocks.c.obj
                0x1000136c                clock_configure_int_divider
 .text.clock_configure_undivided
                0x10001460       0xe8 CMakeFiles/nano_http_client.dir/C_/Users/yoyom/Desktop/Pico/pico-sdk/src/rp2_common/hardware_clocks/clocks.c.obj
                0x10001460                clock_configure_undivided
 .text.clock_get_hz
                0x10001548        0xc CMakeFiles/nano_http_client.dir/C_/Users/yoyom/Desktop/Pico/pico-sdk/src/rp2_common/hardware_clocks/clocks.c.obj
                0x10001548                clock_get_hz
 .text.pll_init
                0x10001554       0xa0 CMakeFiles/nano_http_client.dir/C_/Users/yoyom/Desktop/Pico/pico-sdk/src/rp2_common/hardware_pll/pll.c.obj
                0x10001554                pll_init
 .text.watchdog_reboot
                0x100015f4       0x98 CMakeFiles/nano_http_client.dir/C_/Users/yoyom/Desktop/Pico/pico-sdk/src/rp2_common/hardware_watchdog/watchdog.c.obj
                0x100015f4                watchdog_reboot
 .text.tick_start
                0x1000168c       0x10 CMakeFiles/nano_http_client.dir/C_/Users/yoyom/Desktop/Pico/pico-sdk/src/rp2_common/hardware_ticks/ticks.c.obj
                0x1000168c                tick_start
 .text.rom_func_lookup
                0x1000169c       0x10 CMakeFiles/nano_http_client.dir/C_/Users/yoyom/Desktop/Pico/pico-sdk/src/rp2_common/pico_bootrom/bootrom.c.obj
                0x1000169c                rom_func_lookup
 .text.rom_data_lookup
                0x100016ac       0x10 CMakeFiles/nano_http_client.dir/C_/Users/yoyom/Desktop/Pico/pico-sdk/src/rp2_common/pico_bootrom/bootrom.c.obj
                0x100016ac                rom_data_lookup
 .text.rom_funcs_lookup
                0x100016bc       0x44 CMakeFiles/nano_http_client.dir/C_/Users/yoyom/Desktop/Pico/pico-sdk/src/rp2_common/pico_bootrom/bootrom.c.obj
                0x100016bc                rom_funcs_lookup
 .text.rom_reset_usb_boot_extra
                0x10001700       0x28 CMakeFiles/nano_http_client.dir/C_/Users/yoyom/Desktop/Pico/pico-sdk/src/rp2_common/pico_bootrom/bootrom.c.obj
                0x10001700                rom_reset_usb_boot_extra
 .text.xosc_init
                0x10001728       0x28 CMakeFiles/nano_http_client.dir/C_/Users/yoyom/Desktop/Pico/pico-sdk/src/rp2_common/hardware_xosc/xosc.c.obj
                0x10001728                xosc_init
 .text.first_per_core_initializer
                0x10001750        0x4 CMakeFiles/nano_http_client.dir/C_/Users/yoyom/Desktop/Pico/pico-sdk/src/rp2_common/pico_runtime/runtime.c.obj
 .text.hard_assertion_failure
                0x10001754        0xc CMakeFiles/nano_http_client.dir/C_/Users/yoyom/Desktop/Pico/pico-sdk/src/rp2_common/pico_runtime/runtime.c.obj
                0x10001754                hard_assertion_failure
 .text.runtime_run_initializers
                0x10001760       0x28 CMakeFiles/nano_http_client.dir/C_/Users/yoyom/Desktop/Pico/pico-sdk/src/rp2_common/pico_runtime/runtime.c.obj
                0x10001760                runtime_run_initializers
 .text.runtime_init_early_resets
                0x10001788       0x2c CMakeFiles/nano_http_client.dir/C_/Users/yoyom/Desktop/Pico/pico-sdk/src/rp2_common/pico_runtime_init/runtime_init.c.obj
                0x10001788                runtime_init_early_resets
 .text.runtime_init_usb_power_down
                0x100017b4       0x1c CMakeFiles/nano_http_client.dir/C_/Users/yoyom/Desktop/Pico/pico-sdk/src/rp2_common/pico_runtime_init/runtime_init.c.obj
                0x100017b4                runtime_init_usb_power_down
 .text.runtime_init_post_clock_resets
                0x100017d0       0x20 CMakeFiles/nano_http_client.dir/C_/Users/yoyom/Desktop/Pico/pico-sdk/src/rp2_common/pico_runtime_init/runtime_init.c.obj
                0x100017d0                runtime_init_post_clock_resets
 .text.runtime_init_rp2040_gpio_ie_disable
                0x100017f0       0x14 CMakeFiles/nano_http_client.dir/C_/Users/yoyom/Desktop/Pico/pico-sdk/src/rp2_common/pico_runtime_init/runtime_init.c.obj
                0x100017f0                runtime_init_rp2040_gpio_ie_disable
 .text.runtime_init_spin_locks_reset
                0x10001804        0x8 CMakeFiles/nano_http_client.dir/C_/Users/yoyom/Desktop/Pico/pico-sdk/src/rp2_common/pico_runtime_init/runtime_init.c.obj
                0x10001804                runtime_init_spin_locks_reset
 .text.runtime_init_install_ram_vector_table
                0x1000180c       0x1c CMakeFiles/nano_http_client.dir/C_/Users/yoyom/Desktop/Pico/pico-sdk/src/rp2_common/pico_runtime_init/runtime_init.c.obj
                0x1000180c                runtime_init_install_ram_vector_table
 .text.runtime_init_clocks
                0x10001828       0xd8 CMakeFiles/nano_http_client.dir/C_/Users/yoyom/Desktop/Pico/pico-sdk/src/rp2_common/pico_runtime_init/runtime_init_clocks.c.obj
                0x10001828                runtime_init_clocks
 .text          0x10001900       0x10 CMakeFiles/nano_http_client.dir/C_/Users/yoyom/Desktop/Pico/pico-sdk/src/rp2_common/pico_bit_ops/bit_ops_aeabi.S.obj
 .text.__wrap___aeabi_idiv
                0x10001910       0x50 CMakeFiles/nano_http_client.dir/C_/Users/yoyom/Desktop/Pico/pico-sdk/src/rp2_common/pico_divider/divider_hardware.S.obj
                0x10001910                __wrap___aeabi_idivmod
                0x10001910                divmod_s32s32
                0x10001910                div_s32s32
                0x10001910                __wrap___aeabi_idiv
                0x10001918                divmod_s32s32_unsafe
                0x10001944                divmod_s32s32_savestate
 .text.__wrap___aeabi_uidiv
                0x10001960       0x4c CMakeFiles/nano_http_client.dir/C_/Users/yoyom/Desktop/Pico/pico-sdk/src/rp2_common/pico_divider/divider_hardware.S.obj
                0x10001960                __wrap___aeabi_uidiv
                0x10001960                __wrap___aeabi_uidivmod
                0x10001960                div_u32u32
                0x10001960                divmod_u32u32
                0x10001968                divmod_u32u32_unsafe
                0x10001990                divmod_u32u32_savestate
 .text.__wrap___aeabi_ldiv
                0x100019ac      0x424 CMakeFiles/nano_http_client.dir/C_/Users/yoyom/Desktop/Pico/pico-sdk/src/rp2_common/pico_divider/divider_hardware.S.obj
                0x100019ac                div_s64s64
                0x100019ac                divmod_s64s64
                0x100019ac                __wrap___aeabi_ldivmod
                0x100019dc                divmod_u64u64
                0x100019dc                div_u64u64
                0x100019dc                __wrap___aeabi_uldivmod
                0x100019ec                divmod_u64u64_savestate
                0x10001a0c                divmod_s64s64_unsafe
                0x10001a94                divmod_u64u64_unsafe
 .text.__wrap___aeabi_darithmetic
                0x10001dd0       0x60 CMakeFiles/nano_http_client.dir/C_/Users/yoyom/Desktop/Pico/pico-sdk/src/rp2_common/pico_double/double_aeabi_rp2040.S.obj
                0x10001dd0                __wrap___aeabi_drsub
                0x10001dd6                __wrap___aeabi_dsub
                0x10001de0                __wrap___aeabi_dadd
                0x10001dea                __wrap___aeabi_ddiv
                0x10001e1e                __wrap___aeabi_dmul
 .text.__wrap___aeabi_cdcmple
                0x10001e30       0x6c CMakeFiles/nano_http_client.dir/C_/Users/yoyom/Desktop/Pico/pico-sdk/src/rp2_common/pico_double/double_aeabi_rp2040.S.obj
                0x10001e30                __wrap___aeabi_cdrcmple
                0x10001e40                __wrap___aeabi_cdcmpeq
                0x10001e40                __wrap___aeabi_cdcmple
 .text.__wrap___aeabi_dcmplt
                0x10001e9c        0xc CMakeFiles/nano_http_client.dir/C_/Users/yoyom/Desktop/Pico/pico-sdk/src/rp2_common/pico_double/double_aeabi_rp2040.S.obj
                0x10001e9c                __wrap___aeabi_dcmplt
 .text.__wrap___aeabi_dcmple
                0x10001ea8       0x10 CMakeFiles/nano_http_client.dir/C_/Users/yoyom/Desktop/Pico/pico-sdk/src/rp2_common/pico_double/double_aeabi_rp2040.S.obj
                0x10001ea8                __wrap___aeabi_dcmple
 .text.__wrap___aeabi_dcmpge
                0x10001eb8       0x10 CMakeFiles/nano_http_client.dir/C_/Users/yoyom/Desktop/Pico/pico-sdk/src/rp2_common/pico_double/double_aeabi_rp2040.S.obj
                0x10001eb8                __wrap___aeabi_dcmpge
 .text.__wrap___aeabi_dcmpgt
                0x10001ec8        0xa CMakeFiles/nano_http_client.dir/C_/Users/yoyom/Desktop/Pico/pico-sdk/src/rp2_common/pico_double/double_aeabi_rp2040.S.obj
                0x10001ec8                __wrap___aeabi_dcmpgt
 .text.__wrap___aeabi_dcmpun
                0x10001ed2       0x18 CMakeFiles/nano_http_client.dir/C_/Users/yoyom/Desktop/Pico/pico-sdk/src/rp2_common/pico_double/double_aeabi_rp2040.S.obj
                0x10001ed2                __wrap___aeabi_dcmpun
 *fill*         0x10001eea        0x2 
 .text.__wrap___aeabi_i2d
                0x10001eec       0x38 CMakeFiles/nano_http_client.dir/C_/Users/yoyom/Desktop/Pico/pico-sdk/src/rp2_common/pico_double/double_aeabi_rp2040.S.obj
                0x10001eec                __wrap___aeabi_ui2d
                0x10001ef4                __wrap___aeabi_i2d
 .text.__wrap___aeabi_d2iz
                0x10001f24       0x48 CMakeFiles/nano_http_client.dir/C_/Users/yoyom/Desktop/Pico/pico-sdk/src/rp2_common/pico_double/double_aeabi_rp2040.S.obj
                0x10001f24                double2int_z
                0x10001f24                __wrap___aeabi_d2iz
 .text.__wrap___aeabi_d2uiz
                0x10001f6c       0x10 CMakeFiles/nano_http_client.dir/C_/Users/yoyom/Desktop/Pico/pico-sdk/src/rp2_common/pico_double/double_aeabi_rp2040.S.obj
                0x10001f6c                __wrap___aeabi_d2uiz
                0x10001f6c                double2uint
 .text.missing_double_func_shim
                0x10001f7c        0xc CMakeFiles/nano_http_client.dir/C_/Users/yoyom/Desktop/Pico/pico-sdk/src/rp2_common/pico_double/double_init_rom_rp2040.c.obj
 .text.__aeabi_double_init
                0x10001f88       0xa4 CMakeFiles/nano_http_client.dir/C_/Users/yoyom/Desktop/Pico/pico-sdk/src/rp2_common/pico_double/double_init_rom_rp2040.c.obj
                0x10001f88                __aeabi_double_init
 .text.double_table_shim_on_use_helper
                0x1000202c       0x2c CMakeFiles/nano_http_client.dir/C_/Users/yoyom/Desktop/Pico/pico-sdk/src/rp2_common/pico_double/double_v1_rom_shim_rp2040.S.obj
                0x1000202c                double_table_shim_on_use_helper
 .text.__aeabi_lmul
                0x10002058       0x32 CMakeFiles/nano_http_client.dir/C_/Users/yoyom/Desktop/Pico/pico-sdk/src/rp2_common/pico_int64_ops/pico_int64_ops_aeabi.S.obj
                0x10002058                __wrap___aeabi_lmul
 *fill*         0x1000208a        0x2 
 .text.missing_float_func_shim
                0x1000208c        0xc CMakeFiles/nano_http_client.dir/C_/Users/yoyom/Desktop/Pico/pico-sdk/src/rp2_common/pico_float/float_init_rom_rp2040.c.obj
 .text.__aeabi_float_init
                0x10002098       0x5c CMakeFiles/nano_http_client.dir/C_/Users/yoyom/Desktop/Pico/pico-sdk/src/rp2_common/pico_float/float_init_rom_rp2040.c.obj
                0x10002098                __aeabi_float_init
 .text          0x100020f4       0x10 CMakeFiles/nano_http_client.dir/C_/Users/yoyom/Desktop/Pico/pico-sdk/src/rp2_common/pico_mem_ops/mem_ops_aeabi.S.obj
                0x100020f4                __aeabi_mem_init
 .text.memset   0x10002104        0xc CMakeFiles/nano_http_client.dir/C_/Users/yoyom/Desktop/Pico/pico-sdk/src/rp2_common/pico_mem_ops/mem_ops_aeabi.S.obj
                0x10002104                __wrap_memset
 .text.memcpy   0x10002110        0xc CMakeFiles/nano_http_client.dir/C_/Users/yoyom/Desktop/Pico/pico-sdk/src/rp2_common/pico_mem_ops/mem_ops_aeabi.S.obj
                0x10002110                __wrap_memcpy
                0x10002110                __wrap___aeabi_memcpy
 .text._out_buffer
                0x1000211c        0x8 CMakeFiles/nano_http_client.dir/C_/Users/yoyom/Desktop/Pico/pico-sdk/src/rp2_common/pico_printf/printf.c.obj
 .text._out_null
                0x10002124        0x4 CMakeFiles/nano_http_client.dir/C_/Users/yoyom/Desktop/Pico/pico-sdk/src/rp2_common/pico_printf/printf.c.obj
 .text._out_rev
                0x10002128       0x9c CMakeFiles/nano_http_client.dir/C_/Users/yoyom/Desktop/Pico/pico-sdk/src/rp2_common/pico_printf/printf.c.obj
 .text._ntoa_format
                0x100021c4      0x1cc CMakeFiles/nano_http_client.dir/C_/Users/yoyom/Desktop/Pico/pico-sdk/src/rp2_common/pico_printf/printf.c.obj
 .text._out_char
                0x10002390       0x10 CMakeFiles/nano_http_client.dir/C_/Users/yoyom/Desktop/Pico/pico-sdk/src/rp2_common/pico_printf/printf.c.obj
 .text._out_fct
                0x100023a0       0x10 CMakeFiles/nano_http_client.dir/C_/Users/yoyom/Desktop/Pico/pico-sdk/src/rp2_common/pico_printf/printf.c.obj
 .text._etoa    0x100023b0      0x44c CMakeFiles/nano_http_client.dir/C_/Users/yoyom/Desktop/Pico/pico-sdk/src/rp2_common/pico_printf/printf.c.obj
 .text._ftoa    0x100027fc      0x398 CMakeFiles/nano_http_client.dir/C_/Users/yoyom/Desktop/Pico/pico-sdk/src/rp2_common/pico_printf/printf.c.obj
 .text._vsnprintf
                0x10002b94      0xb04 CMakeFiles/nano_http_client.dir/C_/Users/yoyom/Desktop/Pico/pico-sdk/src/rp2_common/pico_printf/printf.c.obj
 .text.__wrap_snprintf
                0x10003698       0x28 CMakeFiles/nano_http_client.dir/C_/Users/yoyom/Desktop/Pico/pico-sdk/src/rp2_common/pico_printf/printf.c.obj
                0x10003698                __wrap_snprintf
 .text.vfctprintf
                0x100036c0       0x20 CMakeFiles/nano_http_client.dir/C_/Users/yoyom/Desktop/Pico/pico-sdk/src/rp2_common/pico_printf/printf.c.obj
                0x100036c0                vfctprintf
 .text.weak_raw_vprintf
                0x100036e0       0x30 CMakeFiles/nano_http_client.dir/C_/Users/yoyom/Desktop/Pico/pico-sdk/src/rp2_common/pico_printf/printf.c.obj
                0x100036e0                weak_raw_vprintf
 .text._exit    0x10003710        0x4 CMakeFiles/nano_http_client.dir/C_/Users/yoyom/Desktop/Pico/pico-sdk/src/rp2_common/pico_clib_interface/newlib_interface.c.obj
                0x10003710                _exit
 .text.exit     0x10003714        0x8 CMakeFiles/nano_http_client.dir/C_/Users/yoyom/Desktop/Pico/pico-sdk/src/rp2_common/pico_clib_interface/newlib_interface.c.obj
                0x10003714                exit
 .text.runtime_init
                0x1000371c       0x2c CMakeFiles/nano_http_client.dir/C_/Users/yoyom/Desktop/Pico/pico-sdk/src/rp2_common/pico_clib_interface/newlib_interface.c.obj
                0x1000371c                runtime_init
 .text.stdio_out_chars_no_crlf
                0x10003748       0x10 CMakeFiles/nano_http_client.dir/C_/Users/yoyom/Desktop/Pico/pico-sdk/src/rp2_common/pico_stdio/stdio.c.obj
 .text.stdio_out_chars_crlf
                0x10003758       0xb4 CMakeFiles/nano_http_client.dir/C_/Users/yoyom/Desktop/Pico/pico-sdk/src/rp2_common/pico_stdio/stdio.c.obj
 .text.stdio_buffered_printer
                0x1000380c       0x64 CMakeFiles/nano_http_client.dir/C_/Users/yoyom/Desktop/Pico/pico-sdk/src/rp2_common/pico_stdio/stdio.c.obj
 .text.stdio_put_string
                0x10003870      0x100 CMakeFiles/nano_http_client.dir/C_/Users/yoyom/Desktop/Pico/pico-sdk/src/rp2_common/pico_stdio/stdio.c.obj
                0x10003870                stdio_put_string
 .text.stdio_set_driver_enabled
                0x10003970       0x30 CMakeFiles/nano_http_client.dir/C_/Users/yoyom/Desktop/Pico/pico-sdk/src/rp2_common/pico_stdio/stdio.c.obj
                0x10003970                stdio_set_driver_enabled
 .text.stdio_init_all
                0x100039a0        0x8 CMakeFiles/nano_http_client.dir/C_/Users/yoyom/Desktop/Pico/pico-sdk/src/rp2_common/pico_stdio/stdio.c.obj
                0x100039a0                stdio_init_all
 .text.__wrap_putchar
                0x100039a8       0x98 CMakeFiles/nano_http_client.dir/C_/Users/yoyom/Desktop/Pico/pico-sdk/src/rp2_common/pico_stdio/stdio.c.obj
                0x100039a8                __wrap_putchar
                0x100039a8                stdio_putchar
 .text.__wrap_puts
                0x10003a40       0x3c CMakeFiles/nano_http_client.dir/C_/Users/yoyom/Desktop/Pico/pico-sdk/src/rp2_common/pico_stdio/stdio.c.obj
                0x10003a40                stdio_puts
                0x10003a40                __wrap_puts
 .text.__wrap_vprintf
                0x10003a7c       0xd8 CMakeFiles/nano_http_client.dir/C_/Users/yoyom/Desktop/Pico/pico-sdk/src/rp2_common/pico_stdio/stdio.c.obj
                0x10003a7c                stdio_vprintf
                0x10003a7c                __wrap_vprintf
 .text.__wrap_printf
                0x10003b54       0x18 CMakeFiles/nano_http_client.dir/C_/Users/yoyom/Desktop/Pico/pico-sdk/src/rp2_common/pico_stdio/stdio.c.obj
                0x10003b54                __wrap_printf
                0x10003b54                stdio_printf
 .text.resetd_init
                0x10003b6c        0x4 CMakeFiles/nano_http_client.dir/C_/Users/yoyom/Desktop/Pico/pico-sdk/src/rp2_common/pico_stdio_usb/reset_interface.c.obj
 .text.resetd_reset
                0x10003b70        0xc CMakeFiles/nano_http_client.dir/C_/Users/yoyom/Desktop/Pico/pico-sdk/src/rp2_common/pico_stdio_usb/reset_interface.c.obj
 .text.resetd_open
                0x10003b7c       0x28 CMakeFiles/nano_http_client.dir/C_/Users/yoyom/Desktop/Pico/pico-sdk/src/rp2_common/pico_stdio_usb/reset_interface.c.obj
 .text.resetd_xfer_cb
                0x10003ba4        0x4 CMakeFiles/nano_http_client.dir/C_/Users/yoyom/Desktop/Pico/pico-sdk/src/rp2_common/pico_stdio_usb/reset_interface.c.obj
 .text.resetd_control_xfer_cb
                0x10003ba8       0x60 CMakeFiles/nano_http_client.dir/C_/Users/yoyom/Desktop/Pico/pico-sdk/src/rp2_common/pico_stdio_usb/reset_interface.c.obj
 .text.tud_descriptor_bos_cb
                0x10003c08        0x8 CMakeFiles/nano_http_client.dir/C_/Users/yoyom/Desktop/Pico/pico-sdk/src/rp2_common/pico_stdio_usb/reset_interface.c.obj
                0x10003c08                tud_descriptor_bos_cb
 .text.tud_vendor_control_xfer_cb
                0x10003c10       0x34 CMakeFiles/nano_http_client.dir/C_/Users/yoyom/Desktop/Pico/pico-sdk/src/rp2_common/pico_stdio_usb/reset_interface.c.obj
                0x10003c10                tud_vendor_control_xfer_cb
 .text.usbd_app_driver_get_cb
                0x10003c44        0xc CMakeFiles/nano_http_client.dir/C_/Users/yoyom/Desktop/Pico/pico-sdk/src/rp2_common/pico_stdio_usb/reset_interface.c.obj
                0x10003c44                usbd_app_driver_get_cb
 .text.tud_cdc_line_coding_cb
                0x10003c50       0x2c CMakeFiles/nano_http_client.dir/C_/Users/yoyom/Desktop/Pico/pico-sdk/src/rp2_common/pico_stdio_usb/reset_interface.c.obj
                0x10003c50                tud_cdc_line_coding_cb
 .text.stdio_usb_set_chars_available_callback
                0x10003c7c       0x14 CMakeFiles/nano_http_client.dir/C_/Users/yoyom/Desktop/Pico/pico-sdk/src/rp2_common/pico_stdio_usb/stdio_usb.c.obj
                0x10003c7c                stdio_usb_set_chars_available_callback
 .text.usb_irq  0x10003c90       0x10 CMakeFiles/nano_http_client.dir/C_/Users/yoyom/Desktop/Pico/pico-sdk/src/rp2_common/pico_stdio_usb/stdio_usb.c.obj
 .text.timer_task
                0x10003ca0       0x64 CMakeFiles/nano_http_client.dir/C_/Users/yoyom/Desktop/Pico/pico-sdk/src/rp2_common/pico_stdio_usb/stdio_usb.c.obj
 .text.stdio_usb_in_chars
                0x10003d04       0x90 CMakeFiles/nano_http_client.dir/C_/Users/yoyom/Desktop/Pico/pico-sdk/src/rp2_common/pico_stdio_usb/stdio_usb.c.obj
                0x10003d04                stdio_usb_in_chars
 .text.stdio_usb_out_flush
                0x10003d94       0x50 CMakeFiles/nano_http_client.dir/C_/Users/yoyom/Desktop/Pico/pico-sdk/src/rp2_common/pico_stdio_usb/stdio_usb.c.obj
 .text.stdio_usb_out_chars
                0x10003de4      0x100 CMakeFiles/nano_http_client.dir/C_/Users/yoyom/Desktop/Pico/pico-sdk/src/rp2_common/pico_stdio_usb/stdio_usb.c.obj
 .text.low_priority_worker_irq
                0x10003ee4       0xc8 CMakeFiles/nano_http_client.dir/C_/Users/yoyom/Desktop/Pico/pico-sdk/src/rp2_common/pico_stdio_usb/stdio_usb.c.obj
 .text.stdio_usb_init
                0x10003fac       0xe4 CMakeFiles/nano_http_client.dir/C_/Users/yoyom/Desktop/Pico/pico-sdk/src/rp2_common/pico_stdio_usb/stdio_usb.c.obj
                0x10003fac                stdio_usb_init
 .text.tud_descriptor_device_cb
                0x10004090        0x8 CMakeFiles/nano_http_client.dir/C_/Users/yoyom/Desktop/Pico/pico-sdk/src/rp2_common/pico_stdio_usb/stdio_usb_descriptors.c.obj
                0x10004090                tud_descriptor_device_cb
 .text.tud_descriptor_configuration_cb
                0x10004098        0x8 CMakeFiles/nano_http_client.dir/C_/Users/yoyom/Desktop/Pico/pico-sdk/src/rp2_common/pico_stdio_usb/stdio_usb_descriptors.c.obj
                0x10004098                tud_descriptor_configuration_cb
 .text.tud_descriptor_string_cb
                0x100040a0       0x74 CMakeFiles/nano_http_client.dir/C_/Users/yoyom/Desktop/Pico/pico-sdk/src/rp2_common/pico_stdio_usb/stdio_usb_descriptors.c.obj
                0x100040a0                tud_descriptor_string_cb
 .text.startup._retrieve_unique_id_on_boot
                0x10004114       0x10 CMakeFiles/nano_http_client.dir/C_/Users/yoyom/Desktop/Pico/pico-sdk/src/rp2_common/pico_unique_id/unique_id.c.obj
 .text.pico_get_unique_board_id_string
                0x10004124      0x1a8 CMakeFiles/nano_http_client.dir/C_/Users/yoyom/Desktop/Pico/pico-sdk/src/rp2_common/pico_unique_id/unique_id.c.obj
                0x10004124                pico_get_unique_board_id_string
 .text.flash_get_unique_id
                0x100042cc       0x40 CMakeFiles/nano_http_client.dir/C_/Users/yoyom/Desktop/Pico/pico-sdk/src/rp2_common/hardware_flash/flash.c.obj
                0x100042cc                flash_get_unique_id
 .text.dcd_init
                0x1000430c       0x8c CMakeFiles/nano_http_client.dir/C_/Users/yoyom/Desktop/Pico/pico-sdk/lib/tinyusb/src/portable/raspberrypi/rp2040/dcd_rp2040.c.obj
                0x1000430c                dcd_init
 .text.dcd_int_enable
                0x10004398        0xc CMakeFiles/nano_http_client.dir/C_/Users/yoyom/Desktop/Pico/pico-sdk/lib/tinyusb/src/portable/raspberrypi/rp2040/dcd_rp2040.c.obj
                0x10004398                dcd_int_enable
 .text.dcd_set_address
                0x100043a4       0x14 CMakeFiles/nano_http_client.dir/C_/Users/yoyom/Desktop/Pico/pico-sdk/lib/tinyusb/src/portable/raspberrypi/rp2040/dcd_rp2040.c.obj
                0x100043a4                dcd_set_address
 .text.dcd_sof_enable
                0x100043b8       0x1c CMakeFiles/nano_http_client.dir/C_/Users/yoyom/Desktop/Pico/pico-sdk/lib/tinyusb/src/portable/raspberrypi/rp2040/dcd_rp2040.c.obj
                0x100043b8                dcd_sof_enable
 .text.dcd_edpt0_status_complete
                0x100043d4       0x1c CMakeFiles/nano_http_client.dir/C_/Users/yoyom/Desktop/Pico/pico-sdk/lib/tinyusb/src/portable/raspberrypi/rp2040/dcd_rp2040.c.obj
                0x100043d4                dcd_edpt0_status_complete
 .text.dcd_edpt_open
                0x100043f0      0x108 CMakeFiles/nano_http_client.dir/C_/Users/yoyom/Desktop/Pico/pico-sdk/lib/tinyusb/src/portable/raspberrypi/rp2040/dcd_rp2040.c.obj
                0x100043f0                dcd_edpt_open
 .text.dcd_edpt_close_all
                0x100044f8        0x8 CMakeFiles/nano_http_client.dir/C_/Users/yoyom/Desktop/Pico/pico-sdk/lib/tinyusb/src/portable/raspberrypi/rp2040/dcd_rp2040.c.obj
                0x100044f8                dcd_edpt_close_all
 .text.dcd_edpt_xfer
                0x10004500       0x24 CMakeFiles/nano_http_client.dir/C_/Users/yoyom/Desktop/Pico/pico-sdk/lib/tinyusb/src/portable/raspberrypi/rp2040/dcd_rp2040.c.obj
                0x10004500                dcd_edpt_xfer
 .text.dcd_edpt_stall
                0x10004524       0x38 CMakeFiles/nano_http_client.dir/C_/Users/yoyom/Desktop/Pico/pico-sdk/lib/tinyusb/src/portable/raspberrypi/rp2040/dcd_rp2040.c.obj
                0x10004524                dcd_edpt_stall
 .text.dcd_edpt_clear_stall
                0x1000455c       0x30 CMakeFiles/nano_http_client.dir/C_/Users/yoyom/Desktop/Pico/pico-sdk/lib/tinyusb/src/portable/raspberrypi/rp2040/dcd_rp2040.c.obj
                0x1000455c                dcd_edpt_clear_stall
 .text.rp2040_usb_init
                0x1000458c       0x40 CMakeFiles/nano_http_client.dir/C_/Users/yoyom/Desktop/Pico/pico-sdk/lib/tinyusb/src/portable/raspberrypi/rp2040/rp2040_usb.c.obj
                0x1000458c                rp2040_usb_init
 .text.hw_endpoint_xfer_start
                0x100045cc       0x50 CMakeFiles/nano_http_client.dir/C_/Users/yoyom/Desktop/Pico/pico-sdk/lib/tinyusb/src/portable/raspberrypi/rp2040/rp2040_usb.c.obj
                0x100045cc                hw_endpoint_xfer_start
 .text.tud_event_hook_cb
                0x1000461c        0x4 CMakeFiles/nano_http_client.dir/C_/Users/yoyom/Desktop/Pico/pico-sdk/lib/tinyusb/src/device/usbd.c.obj
                0x1000461c                tud_event_hook_cb
 .text.tud_sof_cb
                0x10004620        0x4 CMakeFiles/nano_http_client.dir/C_/Users/yoyom/Desktop/Pico/pico-sdk/lib/tinyusb/src/device/usbd.c.obj
                0x10004620                tud_sof_cb
 .text.tud_descriptor_device_qualifier_cb
                0x10004624        0x4 CMakeFiles/nano_http_client.dir/C_/Users/yoyom/Desktop/Pico/pico-sdk/lib/tinyusb/src/device/usbd.c.obj
                0x10004624                tud_descriptor_device_qualifier_cb
 .text.tud_descriptor_other_speed_configuration_cb
                0x10004628        0x4 CMakeFiles/nano_http_client.dir/C_/Users/yoyom/Desktop/Pico/pico-sdk/lib/tinyusb/src/device/usbd.c.obj
                0x10004628                tud_descriptor_other_speed_configuration_cb
 .text.tud_mount_cb
                0x1000462c        0x4 CMakeFiles/nano_http_client.dir/C_/Users/yoyom/Desktop/Pico/pico-sdk/lib/tinyusb/src/device/usbd.c.obj
                0x1000462c                tud_mount_cb
 .text.tud_umount_cb
                0x10004630        0x4 CMakeFiles/nano_http_client.dir/C_/Users/yoyom/Desktop/Pico/pico-sdk/lib/tinyusb/src/device/usbd.c.obj
                0x10004630                tud_umount_cb
 .text.tud_suspend_cb
                0x10004634        0x4 CMakeFiles/nano_http_client.dir/C_/Users/yoyom/Desktop/Pico/pico-sdk/lib/tinyusb/src/device/usbd.c.obj
                0x10004634                tud_suspend_cb
 .text.tud_resume_cb
                0x10004638        0x4 CMakeFiles/nano_http_client.dir/C_/Users/yoyom/Desktop/Pico/pico-sdk/lib/tinyusb/src/device/usbd.c.obj
                0x10004638                tud_resume_cb
 .text.tud_mounted
                0x1000463c       0x10 CMakeFiles/nano_http_client.dir/C_/Users/yoyom/Desktop/Pico/pico-sdk/lib/tinyusb/src/device/usbd.c.obj
                0x1000463c                tud_mounted
 .text.tud_suspended
                0x1000464c       0x10 CMakeFiles/nano_http_client.dir/C_/Users/yoyom/Desktop/Pico/pico-sdk/lib/tinyusb/src/device/usbd.c.obj
                0x1000464c                tud_suspended
 .text.tud_init
                0x1000465c       0xe4 CMakeFiles/nano_http_client.dir/C_/Users/yoyom/Desktop/Pico/pico-sdk/lib/tinyusb/src/device/usbd.c.obj
                0x1000465c                tud_init
 .text.tud_task_ext
                0x10004740      0x800 CMakeFiles/nano_http_client.dir/C_/Users/yoyom/Desktop/Pico/pico-sdk/lib/tinyusb/src/device/usbd.c.obj
                0x10004740                tud_task_ext
 .text.usbd_open_edpt_pair
                0x10004f40       0x9c CMakeFiles/nano_http_client.dir/C_/Users/yoyom/Desktop/Pico/pico-sdk/lib/tinyusb/src/device/usbd.c.obj
                0x10004f40                usbd_open_edpt_pair
 .text.usbd_edpt_open
                0x10004fdc       0x34 CMakeFiles/nano_http_client.dir/C_/Users/yoyom/Desktop/Pico/pico-sdk/lib/tinyusb/src/device/usbd.c.obj
                0x10004fdc                usbd_edpt_open
 .text.usbd_edpt_claim
                0x10005010       0x28 CMakeFiles/nano_http_client.dir/C_/Users/yoyom/Desktop/Pico/pico-sdk/lib/tinyusb/src/device/usbd.c.obj
                0x10005010                usbd_edpt_claim
 .text.usbd_edpt_release
                0x10005038       0x28 CMakeFiles/nano_http_client.dir/C_/Users/yoyom/Desktop/Pico/pico-sdk/lib/tinyusb/src/device/usbd.c.obj
                0x10005038                usbd_edpt_release
 .text.usbd_edpt_xfer
                0x10005060       0x4c CMakeFiles/nano_http_client.dir/C_/Users/yoyom/Desktop/Pico/pico-sdk/lib/tinyusb/src/device/usbd.c.obj
                0x10005060                usbd_edpt_xfer
 .text.tud_control_status
                0x100050ac       0x30 CMakeFiles/nano_http_client.dir/C_/Users/yoyom/Desktop/Pico/pico-sdk/lib/tinyusb/src/device/usbd_control.c.obj
                0x100050ac                tud_control_status
 .text.tud_control_xfer
                0x100050dc       0xbc CMakeFiles/nano_http_client.dir/C_/Users/yoyom/Desktop/Pico/pico-sdk/lib/tinyusb/src/device/usbd_control.c.obj
                0x100050dc                tud_control_xfer
 .text.usbd_control_reset
                0x10005198       0x14 CMakeFiles/nano_http_client.dir/C_/Users/yoyom/Desktop/Pico/pico-sdk/lib/tinyusb/src/device/usbd_control.c.obj
                0x10005198                usbd_control_reset
 .text.usbd_control_set_complete_callback
                0x100051ac        0xc CMakeFiles/nano_http_client.dir/C_/Users/yoyom/Desktop/Pico/pico-sdk/lib/tinyusb/src/device/usbd_control.c.obj
                0x100051ac                usbd_control_set_complete_callback
 .text.usbd_control_set_request
                0x100051b8       0x1c CMakeFiles/nano_http_client.dir/C_/Users/yoyom/Desktop/Pico/pico-sdk/lib/tinyusb/src/device/usbd_control.c.obj
                0x100051b8                usbd_control_set_request
 .text.usbd_control_xfer_cb
                0x100051d4       0xf0 CMakeFiles/nano_http_client.dir/C_/Users/yoyom/Desktop/Pico/pico-sdk/lib/tinyusb/src/device/usbd_control.c.obj
                0x100051d4                usbd_control_xfer_cb
 .text._prep_out_transaction.isra.0
                0x100052c4       0x5c CMakeFiles/nano_http_client.dir/C_/Users/yoyom/Desktop/Pico/pico-sdk/lib/tinyusb/src/class/cdc/cdc_device.c.obj
 .text.tud_cdc_n_connected
                0x10005320       0x30 CMakeFiles/nano_http_client.dir/C_/Users/yoyom/Desktop/Pico/pico-sdk/lib/tinyusb/src/class/cdc/cdc_device.c.obj
                0x10005320                tud_cdc_n_connected
 .text.tud_cdc_n_available
                0x10005350       0x18 CMakeFiles/nano_http_client.dir/C_/Users/yoyom/Desktop/Pico/pico-sdk/lib/tinyusb/src/class/cdc/cdc_device.c.obj
                0x10005350                tud_cdc_n_available
 .text.tud_cdc_n_read
                0x10005368       0x98 CMakeFiles/nano_http_client.dir/C_/Users/yoyom/Desktop/Pico/pico-sdk/lib/tinyusb/src/class/cdc/cdc_device.c.obj
                0x10005368                tud_cdc_n_read
 .text.tud_cdc_n_write_flush
                0x10005400       0x78 CMakeFiles/nano_http_client.dir/C_/Users/yoyom/Desktop/Pico/pico-sdk/lib/tinyusb/src/class/cdc/cdc_device.c.obj
                0x10005400                tud_cdc_n_write_flush
 .text.tud_cdc_n_write
                0x10005478       0x44 CMakeFiles/nano_http_client.dir/C_/Users/yoyom/Desktop/Pico/pico-sdk/lib/tinyusb/src/class/cdc/cdc_device.c.obj
                0x10005478                tud_cdc_n_write
 .text.tud_cdc_n_write_available
                0x100054bc       0x18 CMakeFiles/nano_http_client.dir/C_/Users/yoyom/Desktop/Pico/pico-sdk/lib/tinyusb/src/class/cdc/cdc_device.c.obj
                0x100054bc                tud_cdc_n_write_available
 .text.cdcd_init
                0x100054d4       0x7c CMakeFiles/nano_http_client.dir/C_/Users/yoyom/Desktop/Pico/pico-sdk/lib/tinyusb/src/class/cdc/cdc_device.c.obj
                0x100054d4                cdcd_init
 .text.cdcd_deinit
                0x10005550       0x24 CMakeFiles/nano_http_client.dir/C_/Users/yoyom/Desktop/Pico/pico-sdk/lib/tinyusb/src/class/cdc/cdc_device.c.obj
                0x10005550                cdcd_deinit
 .text.cdcd_reset
                0x10005574       0x4c CMakeFiles/nano_http_client.dir/C_/Users/yoyom/Desktop/Pico/pico-sdk/lib/tinyusb/src/class/cdc/cdc_device.c.obj
                0x10005574                cdcd_reset
 .text.cdcd_open
                0x100055c0       0xb4 CMakeFiles/nano_http_client.dir/C_/Users/yoyom/Desktop/Pico/pico-sdk/lib/tinyusb/src/class/cdc/cdc_device.c.obj
                0x100055c0                cdcd_open
 .text.cdcd_control_xfer_cb
                0x10005674       0xe4 CMakeFiles/nano_http_client.dir/C_/Users/yoyom/Desktop/Pico/pico-sdk/lib/tinyusb/src/class/cdc/cdc_device.c.obj
                0x10005674                cdcd_control_xfer_cb
 .text.cdcd_xfer_cb
                0x10005758       0xfc CMakeFiles/nano_http_client.dir/C_/Users/yoyom/Desktop/Pico/pico-sdk/lib/tinyusb/src/class/cdc/cdc_device.c.obj
                0x10005758                cdcd_xfer_cb
 .text.tud_vendor_n_write_flush
                0x10005854       0x78 CMakeFiles/nano_http_client.dir/C_/Users/yoyom/Desktop/Pico/pico-sdk/lib/tinyusb/src/class/vendor/vendor_device.c.obj
                0x10005854                tud_vendor_n_write_flush
 .text.vendord_init
                0x100058cc       0x64 CMakeFiles/nano_http_client.dir/C_/Users/yoyom/Desktop/Pico/pico-sdk/lib/tinyusb/src/class/vendor/vendor_device.c.obj
                0x100058cc                vendord_init
 .text.vendord_deinit
                0x10005930       0x24 CMakeFiles/nano_http_client.dir/C_/Users/yoyom/Desktop/Pico/pico-sdk/lib/tinyusb/src/class/vendor/vendor_device.c.obj
                0x10005930                vendord_deinit
 .text.vendord_reset
                0x10005954       0x1c CMakeFiles/nano_http_client.dir/C_/Users/yoyom/Desktop/Pico/pico-sdk/lib/tinyusb/src/class/vendor/vendor_device.c.obj
                0x10005954                vendord_reset
 .text.vendord_open
                0x10005970       0xc8 CMakeFiles/nano_http_client.dir/C_/Users/yoyom/Desktop/Pico/pico-sdk/lib/tinyusb/src/class/vendor/vendor_device.c.obj
                0x10005970                vendord_open
 .text.vendord_xfer_cb
                0x10005a38       0xc8 CMakeFiles/nano_http_client.dir/C_/Users/yoyom/Desktop/Pico/pico-sdk/lib/tinyusb/src/class/vendor/vendor_device.c.obj
                0x10005a38                vendord_xfer_cb
 .text.tusb_init
                0x10005b00        0xc CMakeFiles/nano_http_client.dir/C_/Users/yoyom/Desktop/Pico/pico-sdk/lib/tinyusb/src/tusb.c.obj
                0x10005b00                tusb_init
 .text.tu_edpt_claim
                0x10005b0c       0x50 CMakeFiles/nano_http_client.dir/C_/Users/yoyom/Desktop/Pico/pico-sdk/lib/tinyusb/src/tusb.c.obj
                0x10005b0c                tu_edpt_claim
 .text.tu_edpt_release
                0x10005b5c       0x38 CMakeFiles/nano_http_client.dir/C_/Users/yoyom/Desktop/Pico/pico-sdk/lib/tinyusb/src/tusb.c.obj
                0x10005b5c                tu_edpt_release
 .text.tu_edpt_validate
                0x10005b94       0x78 CMakeFiles/nano_http_client.dir/C_/Users/yoyom/Desktop/Pico/pico-sdk/lib/tinyusb/src/tusb.c.obj
                0x10005b94                tu_edpt_validate
 .text.tu_edpt_bind_driver
                0x10005c0c       0x34 CMakeFiles/nano_http_client.dir/C_/Users/yoyom/Desktop/Pico/pico-sdk/lib/tinyusb/src/tusb.c.obj
                0x10005c0c                tu_edpt_bind_driver
 .text.tu_fifo_config
                0x10005c40       0x70 CMakeFiles/nano_http_client.dir/C_/Users/yoyom/Desktop/Pico/pico-sdk/lib/tinyusb/src/common/tusb_fifo.c.obj
                0x10005c40                tu_fifo_config
 .text.tu_fifo_count
                0x10005cb0       0x2c CMakeFiles/nano_http_client.dir/C_/Users/yoyom/Desktop/Pico/pico-sdk/lib/tinyusb/src/common/tusb_fifo.c.obj
                0x10005cb0                tu_fifo_count
 .text.tu_fifo_empty
                0x10005cdc       0x10 CMakeFiles/nano_http_client.dir/C_/Users/yoyom/Desktop/Pico/pico-sdk/lib/tinyusb/src/common/tusb_fifo.c.obj
                0x10005cdc                tu_fifo_empty
 .text.tu_fifo_remaining
                0x10005cec       0x2c CMakeFiles/nano_http_client.dir/C_/Users/yoyom/Desktop/Pico/pico-sdk/lib/tinyusb/src/common/tusb_fifo.c.obj
                0x10005cec                tu_fifo_remaining
 .text.tu_fifo_read
                0x10005d18       0xa0 CMakeFiles/nano_http_client.dir/C_/Users/yoyom/Desktop/Pico/pico-sdk/lib/tinyusb/src/common/tusb_fifo.c.obj
                0x10005d18                tu_fifo_read
 .text.tu_fifo_read_n
                0x10005db8       0xec CMakeFiles/nano_http_client.dir/C_/Users/yoyom/Desktop/Pico/pico-sdk/lib/tinyusb/src/common/tusb_fifo.c.obj
                0x10005db8                tu_fifo_read_n
 .text.tu_fifo_write
                0x10005ea4       0x88 CMakeFiles/nano_http_client.dir/C_/Users/yoyom/Desktop/Pico/pico-sdk/lib/tinyusb/src/common/tusb_fifo.c.obj
                0x10005ea4                tu_fifo_write
 .text.tu_fifo_write_n
                0x10005f2c      0x168 CMakeFiles/nano_http_client.dir/C_/Users/yoyom/Desktop/Pico/pico-sdk/lib/tinyusb/src/common/tusb_fifo.c.obj
                0x10005f2c                tu_fifo_write_n
 .text.tu_fifo_clear
                0x10006094       0x40 CMakeFiles/nano_http_client.dir/C_/Users/yoyom/Desktop/Pico/pico-sdk/lib/tinyusb/src/common/tusb_fifo.c.obj
                0x10006094                tu_fifo_clear
 .text.tu_fifo_set_overwritable
                0x100060d4       0x48 CMakeFiles/nano_http_client.dir/C_/Users/yoyom/Desktop/Pico/pico-sdk/lib/tinyusb/src/common/tusb_fifo.c.obj
                0x100060d4                tu_fifo_set_overwritable
 .text.lwip_htons
                0x1000611c        0x8 CMakeFiles/nano_http_client.dir/C_/Users/yoyom/Desktop/Pico/pico-sdk/lib/lwip/src/core/def.c.obj
                0x1000611c                lwip_htons
 .text.lwip_htonl
                0x10006124        0x4 CMakeFiles/nano_http_client.dir/C_/Users/yoyom/Desktop/Pico/pico-sdk/lib/lwip/src/core/def.c.obj
                0x10006124                lwip_htonl
 .text.lwip_standard_chksum
                0x10006128       0xd8 CMakeFiles/nano_http_client.dir/C_/Users/yoyom/Desktop/Pico/pico-sdk/lib/lwip/src/core/inet_chksum.c.obj
                0x10006128                lwip_standard_chksum
 .text.inet_chksum_pseudo
                0x10006200       0xb4 CMakeFiles/nano_http_client.dir/C_/Users/yoyom/Desktop/Pico/pico-sdk/lib/lwip/src/core/inet_chksum.c.obj
                0x10006200                inet_chksum_pseudo
 .text.ip_chksum_pseudo
                0x100062b4       0x10 CMakeFiles/nano_http_client.dir/C_/Users/yoyom/Desktop/Pico/pico-sdk/lib/lwip/src/core/inet_chksum.c.obj
                0x100062b4                ip_chksum_pseudo
 .text.inet_chksum
                0x100062c4        0xc CMakeFiles/nano_http_client.dir/C_/Users/yoyom/Desktop/Pico/pico-sdk/lib/lwip/src/core/inet_chksum.c.obj
                0x100062c4                inet_chksum
 .text.mem_free
                0x100062d0      0x11c CMakeFiles/nano_http_client.dir/C_/Users/yoyom/Desktop/Pico/pico-sdk/lib/lwip/src/core/mem.c.obj
                0x100062d0                mem_free
 .text.mem_trim
                0x100063ec      0x110 CMakeFiles/nano_http_client.dir/C_/Users/yoyom/Desktop/Pico/pico-sdk/lib/lwip/src/core/mem.c.obj
                0x100063ec                mem_trim
 .text.mem_malloc
                0x100064fc      0x120 CMakeFiles/nano_http_client.dir/C_/Users/yoyom/Desktop/Pico/pico-sdk/lib/lwip/src/core/mem.c.obj
                0x100064fc                mem_malloc
 .text.memp_malloc
                0x1000661c       0x3c CMakeFiles/nano_http_client.dir/C_/Users/yoyom/Desktop/Pico/pico-sdk/lib/lwip/src/core/memp.c.obj
                0x1000661c                memp_malloc
 .text.memp_free
                0x10006658       0x38 CMakeFiles/nano_http_client.dir/C_/Users/yoyom/Desktop/Pico/pico-sdk/lib/lwip/src/core/memp.c.obj
                0x10006658                memp_free
 .text.netif_get_by_index
                0x10006690       0x2c CMakeFiles/nano_http_client.dir/C_/Users/yoyom/Desktop/Pico/pico-sdk/lib/lwip/src/core/netif.c.obj
                0x10006690                netif_get_by_index
 .text.pbuf_free.part.0
                0x100066bc       0x7c CMakeFiles/nano_http_client.dir/C_/Users/yoyom/Desktop/Pico/pico-sdk/lib/lwip/src/core/pbuf.c.obj
 .text.pbuf_alloc
                0x10006738      0x130 CMakeFiles/nano_http_client.dir/C_/Users/yoyom/Desktop/Pico/pico-sdk/lib/lwip/src/core/pbuf.c.obj
                0x10006738                pbuf_alloc
 .text.pbuf_realloc
                0x10006868       0x88 CMakeFiles/nano_http_client.dir/C_/Users/yoyom/Desktop/Pico/pico-sdk/lib/lwip/src/core/pbuf.c.obj
                0x10006868                pbuf_realloc
 .text.pbuf_add_header
                0x100068f0       0x54 CMakeFiles/nano_http_client.dir/C_/Users/yoyom/Desktop/Pico/pico-sdk/lib/lwip/src/core/pbuf.c.obj
                0x100068f0                pbuf_add_header
 .text.pbuf_free
                0x10006944       0x18 CMakeFiles/nano_http_client.dir/C_/Users/yoyom/Desktop/Pico/pico-sdk/lib/lwip/src/core/pbuf.c.obj
                0x10006944                pbuf_free
 .text.pbuf_clen
                0x1000695c       0x14 CMakeFiles/nano_http_client.dir/C_/Users/yoyom/Desktop/Pico/pico-sdk/lib/lwip/src/core/pbuf.c.obj
                0x1000695c                pbuf_clen
 .text.pbuf_copy_partial
                0x10006970       0x70 CMakeFiles/nano_http_client.dir/C_/Users/yoyom/Desktop/Pico/pico-sdk/lib/lwip/src/core/pbuf.c.obj
                0x10006970                pbuf_copy_partial
 .text.tcp_close_shutdown_fin
                0x100069e0       0x58 CMakeFiles/nano_http_client.dir/C_/Users/yoyom/Desktop/Pico/pico-sdk/lib/lwip/src/core/tcp.c.obj
 .text.tcp_pcb_purge.part.0
                0x10006a38       0xc4 CMakeFiles/nano_http_client.dir/C_/Users/yoyom/Desktop/Pico/pico-sdk/lib/lwip/src/core/tcp.c.obj
 .text.tcp_recved
                0x10006afc       0x98 CMakeFiles/nano_http_client.dir/C_/Users/yoyom/Desktop/Pico/pico-sdk/lib/lwip/src/core/tcp.c.obj
                0x10006afc                tcp_recved
 .text.tcp_connect
                0x10006b94      0x1a8 CMakeFiles/nano_http_client.dir/C_/Users/yoyom/Desktop/Pico/pico-sdk/lib/lwip/src/core/tcp.c.obj
                0x10006b94                tcp_connect
 .text.tcp_slowtmr
                0x10006d3c      0x4dc CMakeFiles/nano_http_client.dir/C_/Users/yoyom/Desktop/Pico/pico-sdk/lib/lwip/src/core/tcp.c.obj
                0x10006d3c                tcp_slowtmr
 .text.tcp_segs_free
                0x10007218       0x38 CMakeFiles/nano_http_client.dir/C_/Users/yoyom/Desktop/Pico/pico-sdk/lib/lwip/src/core/tcp.c.obj
                0x10007218                tcp_segs_free
 .text.tcp_seg_free
                0x10007250       0x1c CMakeFiles/nano_http_client.dir/C_/Users/yoyom/Desktop/Pico/pico-sdk/lib/lwip/src/core/tcp.c.obj
                0x10007250                tcp_seg_free
 .text.tcp_arg  0x1000726c        0x8 CMakeFiles/nano_http_client.dir/C_/Users/yoyom/Desktop/Pico/pico-sdk/lib/lwip/src/core/tcp.c.obj
                0x1000726c                tcp_arg
 .text.tcp_recv
                0x10007274       0x1c CMakeFiles/nano_http_client.dir/C_/Users/yoyom/Desktop/Pico/pico-sdk/lib/lwip/src/core/tcp.c.obj
                0x10007274                tcp_recv
 .text.tcp_err  0x10007290       0x1c CMakeFiles/nano_http_client.dir/C_/Users/yoyom/Desktop/Pico/pico-sdk/lib/lwip/src/core/tcp.c.obj
                0x10007290                tcp_err
 .text.tcp_pcb_remove
                0x100072ac       0xc8 CMakeFiles/nano_http_client.dir/C_/Users/yoyom/Desktop/Pico/pico-sdk/lib/lwip/src/core/tcp.c.obj
                0x100072ac                tcp_pcb_remove
 .text.tcp_abandon
                0x10007374      0x1ac CMakeFiles/nano_http_client.dir/C_/Users/yoyom/Desktop/Pico/pico-sdk/lib/lwip/src/core/tcp.c.obj
                0x10007374                tcp_abandon
 .text.tcp_new  0x10007520      0x1ac CMakeFiles/nano_http_client.dir/C_/Users/yoyom/Desktop/Pico/pico-sdk/lib/lwip/src/core/tcp.c.obj
                0x10007520                tcp_new
 .text.tcp_close_shutdown
                0x100076cc      0x18c CMakeFiles/nano_http_client.dir/C_/Users/yoyom/Desktop/Pico/pico-sdk/lib/lwip/src/core/tcp.c.obj
 .text.tcp_recv_null
                0x10007858       0xd4 CMakeFiles/nano_http_client.dir/C_/Users/yoyom/Desktop/Pico/pico-sdk/lib/lwip/src/core/tcp.c.obj
                0x10007858                tcp_recv_null
 .text.tcp_process_refused_data
                0x1000792c       0x78 CMakeFiles/nano_http_client.dir/C_/Users/yoyom/Desktop/Pico/pico-sdk/lib/lwip/src/core/tcp.c.obj
                0x1000792c                tcp_process_refused_data
 .text.tcp_fasttmr
                0x100079a4       0x98 CMakeFiles/nano_http_client.dir/C_/Users/yoyom/Desktop/Pico/pico-sdk/lib/lwip/src/core/tcp.c.obj
                0x100079a4                tcp_fasttmr
 .text.tcp_tmr  0x10007a3c       0x20 CMakeFiles/nano_http_client.dir/C_/Users/yoyom/Desktop/Pico/pico-sdk/lib/lwip/src/core/tcp.c.obj
                0x10007a3c                tcp_tmr
 .text.tcp_close
                0x10007a5c      0x174 CMakeFiles/nano_http_client.dir/C_/Users/yoyom/Desktop/Pico/pico-sdk/lib/lwip/src/core/tcp.c.obj
                0x10007a5c                tcp_close
 .text.tcp_eff_send_mss_netif
                0x10007bd0       0x38 CMakeFiles/nano_http_client.dir/C_/Users/yoyom/Desktop/Pico/pico-sdk/lib/lwip/src/core/tcp.c.obj
                0x10007bd0                tcp_eff_send_mss_netif
 .text.tcp_trigger_input_pcb_close
                0x10007c08       0x10 CMakeFiles/nano_http_client.dir/C_/Users/yoyom/Desktop/Pico/pico-sdk/lib/lwip/src/core/tcp_in.c.obj
                0x10007c08                tcp_trigger_input_pcb_close
 .text.tcp_create_segment
                0x10007c18       0xf8 CMakeFiles/nano_http_client.dir/C_/Users/yoyom/Desktop/Pico/pico-sdk/lib/lwip/src/core/tcp_out.c.obj
 .text.tcp_output_control_segment
                0x10007d10       0xc0 CMakeFiles/nano_http_client.dir/C_/Users/yoyom/Desktop/Pico/pico-sdk/lib/lwip/src/core/tcp_out.c.obj
 .text.tcp_output_alloc_header.constprop.0
                0x10007dd0       0xcc CMakeFiles/nano_http_client.dir/C_/Users/yoyom/Desktop/Pico/pico-sdk/lib/lwip/src/core/tcp_out.c.obj
 .text.tcp_write
                0x10007e9c      0x494 CMakeFiles/nano_http_client.dir/C_/Users/yoyom/Desktop/Pico/pico-sdk/lib/lwip/src/core/tcp_out.c.obj
                0x10007e9c                tcp_write
 .text.tcp_split_unsent_seg
                0x10008330      0x1c4 CMakeFiles/nano_http_client.dir/C_/Users/yoyom/Desktop/Pico/pico-sdk/lib/lwip/src/core/tcp_out.c.obj
                0x10008330                tcp_split_unsent_seg
 .text.tcp_send_fin
                0x100084f4      0x12c CMakeFiles/nano_http_client.dir/C_/Users/yoyom/Desktop/Pico/pico-sdk/lib/lwip/src/core/tcp_out.c.obj
                0x100084f4                tcp_send_fin
 .text.tcp_enqueue_flags
                0x10008620      0x124 CMakeFiles/nano_http_client.dir/C_/Users/yoyom/Desktop/Pico/pico-sdk/lib/lwip/src/core/tcp_out.c.obj
                0x10008620                tcp_enqueue_flags
 .text.tcp_rexmit_rto_prepare
                0x10008744       0x9c CMakeFiles/nano_http_client.dir/C_/Users/yoyom/Desktop/Pico/pico-sdk/lib/lwip/src/core/tcp_out.c.obj
                0x10008744                tcp_rexmit_rto_prepare
 .text.tcp_rst  0x100087e0       0xe8 CMakeFiles/nano_http_client.dir/C_/Users/yoyom/Desktop/Pico/pico-sdk/lib/lwip/src/core/tcp_out.c.obj
                0x100087e0                tcp_rst
 .text.tcp_send_empty_ack
                0x100088c8       0x54 CMakeFiles/nano_http_client.dir/C_/Users/yoyom/Desktop/Pico/pico-sdk/lib/lwip/src/core/tcp_out.c.obj
                0x100088c8                tcp_send_empty_ack
 .text.tcp_output
                0x1000891c      0x46c CMakeFiles/nano_http_client.dir/C_/Users/yoyom/Desktop/Pico/pico-sdk/lib/lwip/src/core/tcp_out.c.obj
                0x1000891c                tcp_output
 .text.tcp_rexmit_rto_commit
                0x10008d88       0x24 CMakeFiles/nano_http_client.dir/C_/Users/yoyom/Desktop/Pico/pico-sdk/lib/lwip/src/core/tcp_out.c.obj
                0x10008d88                tcp_rexmit_rto_commit
 .text.tcp_keepalive
                0x10008dac       0xe0 CMakeFiles/nano_http_client.dir/C_/Users/yoyom/Desktop/Pico/pico-sdk/lib/lwip/src/core/tcp_out.c.obj
                0x10008dac                tcp_keepalive
 .text.tcp_zero_window_probe
                0x10008e8c      0x108 CMakeFiles/nano_http_client.dir/C_/Users/yoyom/Desktop/Pico/pico-sdk/lib/lwip/src/core/tcp_out.c.obj
                0x10008e8c                tcp_zero_window_probe
 .text.sys_timeout_abs
                0x10008f94       0x48 CMakeFiles/nano_http_client.dir/C_/Users/yoyom/Desktop/Pico/pico-sdk/lib/lwip/src/core/timeouts.c.obj
 .text.tcpip_tcp_timer
                0x10008fdc       0x3c CMakeFiles/nano_http_client.dir/C_/Users/yoyom/Desktop/Pico/pico-sdk/lib/lwip/src/core/timeouts.c.obj
 .text.tcp_timer_needed
                0x10009018       0x40 CMakeFiles/nano_http_client.dir/C_/Users/yoyom/Desktop/Pico/pico-sdk/lib/lwip/src/core/timeouts.c.obj
                0x10009018                tcp_timer_needed
 .text.ip4_frag
                0x10009058      0x17c CMakeFiles/nano_http_client.dir/C_/Users/yoyom/Desktop/Pico/pico-sdk/lib/lwip/src/core/ipv4/ip4_frag.c.obj
                0x10009058                ip4_frag
 .text.ip4_route
                0x100091d4       0x7c CMakeFiles/nano_http_client.dir/C_/Users/yoyom/Desktop/Pico/pico-sdk/lib/lwip/src/core/ipv4/ip4.c.obj
                0x100091d4                ip4_route
 .text.ip4_output_if
                0x10009250      0x190 CMakeFiles/nano_http_client.dir/C_/Users/yoyom/Desktop/Pico/pico-sdk/lib/lwip/src/core/ipv4/ip4.c.obj
                0x10009250                ip4_output_if
 .text.ip4addr_aton
                0x100093e0      0x188 CMakeFiles/nano_http_client.dir/C_/Users/yoyom/Desktop/Pico/pico-sdk/lib/lwip/src/core/ipv4/ip4_addr.c.obj
                0x100093e0                ip4addr_aton
 .text.strlen   0x10009568       0x5c c:/vsarm/armcc/102021~1.10/bin/../lib/gcc/arm-none-eabi/10.3.1/../../../../arm-none-eabi/lib/thumb/v6-m/nofp\libg.a(lib_a-strlen-stub.o)
                0x10009568                strlen
 *(.fini)
 .fini          0x100095c4        0x4 c:/vsarm/armcc/102021~1.10/bin/../lib/gcc/arm-none-eabi/10.3.1/thumb/v6-m/nofp/crti.o
                0x100095c4                _fini
 .fini.__stub   0x100095c8       0xd0 linker stubs
 *crtbegin.o(.ctors)
 *crtbegin?.o(.ctors)
 *(EXCLUDE_FILE(*crtend.o *crtend?.o) .ctors)
 *(SORT_BY_NAME(.ctors.*))
 *(.ctors)
 *crtbegin.o(.dtors)
 *crtbegin?.o(.dtors)
 *(EXCLUDE_FILE(*crtend.o *crtend?.o) .dtors)
 *(SORT_BY_NAME(.dtors.*))
 *(.dtors)
                0x10009698                . = ALIGN (0x4)
                0x10009698                PROVIDE (__preinit_array_start = .)
 *(SORT_BY_NAME(.preinit_array.*))
 .preinit_array.00100
                0x10009698        0x4 CMakeFiles/nano_http_client.dir/C_/Users/yoyom/Desktop/Pico/pico-sdk/src/rp2_common/pico_runtime_init/runtime_init.c.obj
                0x10009698                __pre_init_runtime_init_early_resets
 .preinit_array.00101
                0x1000969c        0x4 CMakeFiles/nano_http_client.dir/C_/Users/yoyom/Desktop/Pico/pico-sdk/src/rp2_common/pico_runtime_init/runtime_init.c.obj
                0x1000969c                __pre_init_runtime_init_usb_power_down
 .preinit_array.00275
                0x100096a0        0x4 CMakeFiles/nano_http_client.dir/C_/Users/yoyom/Desktop/Pico/pico-sdk/src/rp2_common/pico_bit_ops/bit_ops_aeabi.S.obj
 .preinit_array.00300
                0x100096a4        0x4 CMakeFiles/nano_http_client.dir/C_/Users/yoyom/Desktop/Pico/pico-sdk/src/rp2_common/pico_mem_ops/mem_ops_aeabi.S.obj
 .preinit_array.00350
                0x100096a8        0x4 CMakeFiles/nano_http_client.dir/C_/Users/yoyom/Desktop/Pico/pico-sdk/src/rp2_common/pico_double/double_aeabi_rp2040.S.obj
 .preinit_array.00350
                0x100096ac        0x4 CMakeFiles/nano_http_client.dir/C_/Users/yoyom/Desktop/Pico/pico-sdk/src/rp2_common/pico_float/float_aeabi_rp2040.S.obj
 .preinit_array.00500
                0x100096b0        0x4 CMakeFiles/nano_http_client.dir/C_/Users/yoyom/Desktop/Pico/pico-sdk/src/rp2_common/pico_runtime_init/runtime_init.c.obj
                0x100096b0                __pre_init_runtime_init_clocks
 .preinit_array.00600
                0x100096b4        0x4 CMakeFiles/nano_http_client.dir/C_/Users/yoyom/Desktop/Pico/pico-sdk/src/rp2_common/pico_runtime_init/runtime_init.c.obj
                0x100096b4                __pre_init_runtime_init_post_clock_resets
 .preinit_array.00700
                0x100096b8        0x4 CMakeFiles/nano_http_client.dir/C_/Users/yoyom/Desktop/Pico/pico-sdk/src/rp2_common/pico_runtime_init/runtime_init.c.obj
                0x100096b8                __pre_init_runtime_init_rp2040_gpio_ie_disable
 .preinit_array.01000
                0x100096bc        0x4 CMakeFiles/nano_http_client.dir/C_/Users/yoyom/Desktop/Pico/pico-sdk/src/rp2_common/pico_runtime_init/runtime_init.c.obj
                0x100096bc                __pre_init_runtime_init_spin_locks_reset
 .preinit_array.01100
                0x100096c0        0x4 CMakeFiles/nano_http_client.dir/C_/Users/yoyom/Desktop/Pico/pico-sdk/src/common/pico_sync/mutex.c.obj
                0x100096c0                __pre_init_runtime_init_mutex
 .preinit_array.10080
                0x100096c4        0x4 CMakeFiles/nano_http_client.dir/C_/Users/yoyom/Desktop/Pico/pico-sdk/src/rp2_common/pico_runtime_init/runtime_init.c.obj
                0x100096c4                __pre_init_runtime_init_install_ram_vector_table
 .preinit_array.11000
                0x100096c8        0x4 CMakeFiles/nano_http_client.dir/C_/Users/yoyom/Desktop/Pico/pico-sdk/src/common/pico_time/time.c.obj
                0x100096c8                __pre_init_runtime_init_default_alarm_pool
 .preinit_array.YYYYY
                0x100096cc        0x4 CMakeFiles/nano_http_client.dir/C_/Users/yoyom/Desktop/Pico/pico-sdk/src/rp2_common/pico_runtime/runtime.c.obj
                0x100096cc                __pre_init_first_per_core_initializer
 .preinit_array.ZZZZZ.01200
                0x100096d0        0x4 CMakeFiles/nano_http_client.dir/C_/Users/yoyom/Desktop/Pico/pico-sdk/src/rp2_common/hardware_irq/irq.c.obj
                0x100096d0                __pre_init_runtime_init_per_core_irq_priorities
 *(.preinit_array)
                0x100096d4                PROVIDE (__preinit_array_end = .)
                0x100096d4                . = ALIGN (0x4)
                0x100096d4                PROVIDE (__init_array_start = .)
 *(SORT_BY_NAME(.init_array.*))
 *(.init_array)
 .init_array    0x100096d4        0x4 c:/vsarm/armcc/102021~1.10/bin/../lib/gcc/arm-none-eabi/10.3.1/thumb/v6-m/nofp/crtbegin.o
 .init_array    0x100096d8        0x4 CMakeFiles/nano_http_client.dir/C_/Users/yoyom/Desktop/Pico/pico-sdk/src/rp2_common/pico_unique_id/unique_id.c.obj
                0x100096dc                PROVIDE (__init_array_end = .)
                0x100096dc                . = ALIGN (0x4)
                [!provide]                PROVIDE (__fini_array_start = .)
 *(SORT_BY_NAME(.fini_array.*))
 *(.fini_array)
                [!provide]                PROVIDE (__fini_array_end = .)
 *(.eh_frame*)
 .eh_frame      0x100096dc        0x0 c:/vsarm/armcc/102021~1.10/bin/../lib/gcc/arm-none-eabi/10.3.1/thumb/v6-m/nofp/crtbegin.o
                0x100096dc                . = ALIGN (0x4)

.glue_7         0x100096dc        0x0
 .glue_7        0x100096dc        0x0 linker stubs

.glue_7t        0x100096dc        0x0
 .glue_7t       0x100096dc        0x0 linker stubs

.vfp11_veneer   0x100096dc        0x0
 .vfp11_veneer  0x100096dc        0x0 linker stubs

.v4_bx          0x100096dc        0x0
 .v4_bx         0x100096dc        0x0 linker stubs

.iplt           0x100096dc        0x0
 .iplt          0x100096dc        0x0 c:/vsarm/armcc/102021~1.10/bin/../lib/gcc/arm-none-eabi/10.3.1/thumb/v6-m/nofp/crtbegin.o

.rodata         0x100096e0     0x152c
 *(EXCLUDE_FILE(*libm.a: *libc.a:*lib_a-mem*.o *libgcc.a:) .rodata*)
 .rodata.tcp_error_callback.str1.4
                0x100096e0        0xf CMakeFiles/nano_http_client.dir/main.c.obj
 *fill*         0x100096ef        0x1 
 .rodata.tcp_recv_callback.str1.4
                0x100096f0       0x10 CMakeFiles/nano_http_client.dir/main.c.obj
 .rodata.tcp_connected_callback.str1.4
                0x10009700       0x18 CMakeFiles/nano_http_client.dir/main.c.obj
 .rodata.send_http_request.str1.4
                0x10009718       0x78 CMakeFiles/nano_http_client.dir/main.c.obj
 .rodata.main.str1.4
                0x10009790       0x1f CMakeFiles/nano_http_client.dir/main.c.obj
 *fill*         0x100097af        0x1 
 .rodata.panic.str1.4
                0x100097b0       0x12 CMakeFiles/nano_http_client.dir/C_/Users/yoyom/Desktop/Pico/pico-sdk/src/rp2_common/pico_platform_panic/panic.c.obj
 *fill*         0x100097c2        0x2 
 .rodata.spin_lock_claim_unused.str1.4
                0x100097c4       0x1b CMakeFiles/nano_http_client.dir/C_/Users/yoyom/Desktop/Pico/pico-sdk/src/rp2_common/hardware_sync/sync.c.obj
 *fill*         0x100097df        0x1 
 .rodata.user_irq_claim_unused.str1.4
                0x100097e0       0x1b CMakeFiles/nano_http_client.dir/C_/Users/yoyom/Desktop/Pico/pico-sdk/src/rp2_common/hardware_irq/irq.c.obj
 *fill*         0x100097fb        0x1 
 .rodata.timer_hardware_alarm_claim.str1.4
                0x100097fc       0x22 CMakeFiles/nano_http_client.dir/C_/Users/yoyom/Desktop/Pico/pico-sdk/src/rp2_common/hardware_timer/timer.c.obj
 *fill*         0x1000981e        0x2 
 .rodata.hard_assertion_failure.str1.4
                0x10009820        0xc CMakeFiles/nano_http_client.dir/C_/Users/yoyom/Desktop/Pico/pico-sdk/src/rp2_common/pico_runtime/runtime.c.obj
 .rodata.missing_double_func_shim.str1.4
                0x1000982c       0x18 CMakeFiles/nano_http_client.dir/C_/Users/yoyom/Desktop/Pico/pico-sdk/src/rp2_common/pico_double/double_init_rom_rp2040.c.obj
 .rodata.missing_float_func_shim.str1.4
                0x10009844       0x18 CMakeFiles/nano_http_client.dir/C_/Users/yoyom/Desktop/Pico/pico-sdk/src/rp2_common/pico_float/float_init_rom_rp2040.c.obj
                                  0x1 (size before relaxing)
 .rodata.str1.4
                0x10009844       0x5c CMakeFiles/nano_http_client.dir/C_/Users/yoyom/Desktop/Pico/pico-sdk/src/rp2_common/pico_standard_binary_info/standard_binary_info.c.obj
 .rodata.__bi_26
                0x100098a0        0xc CMakeFiles/nano_http_client.dir/C_/Users/yoyom/Desktop/Pico/pico-sdk/src/rp2_common/pico_standard_binary_info/standard_binary_info.c.obj
 .rodata.__bi_34
                0x100098ac        0xc CMakeFiles/nano_http_client.dir/C_/Users/yoyom/Desktop/Pico/pico-sdk/src/rp2_common/pico_standard_binary_info/standard_binary_info.c.obj
 .rodata.__bi_42
                0x100098b8        0xc CMakeFiles/nano_http_client.dir/C_/Users/yoyom/Desktop/Pico/pico-sdk/src/rp2_common/pico_standard_binary_info/standard_binary_info.c.obj
 .rodata.__bi_48
                0x100098c4        0xc CMakeFiles/nano_http_client.dir/C_/Users/yoyom/Desktop/Pico/pico-sdk/src/rp2_common/pico_standard_binary_info/standard_binary_info.c.obj
 .rodata.__bi_54
                0x100098d0        0xc CMakeFiles/nano_http_client.dir/C_/Users/yoyom/Desktop/Pico/pico-sdk/src/rp2_common/pico_standard_binary_info/standard_binary_info.c.obj
 .rodata.__bi_78
                0x100098dc        0xc CMakeFiles/nano_http_client.dir/C_/Users/yoyom/Desktop/Pico/pico-sdk/src/rp2_common/pico_standard_binary_info/standard_binary_info.c.obj
 .rodata.__bi_84
                0x100098e8        0xc CMakeFiles/nano_http_client.dir/C_/Users/yoyom/Desktop/Pico/pico-sdk/src/rp2_common/pico_standard_binary_info/standard_binary_info.c.obj
 .rodata._ftoa.str1.4
                0x100098f4       0x15 CMakeFiles/nano_http_client.dir/C_/Users/yoyom/Desktop/Pico/pico-sdk/src/rp2_common/pico_printf/printf.c.obj
 *fill*         0x10009909        0x3 
 .rodata._vsnprintf
                0x1000990c      0x1e0 CMakeFiles/nano_http_client.dir/C_/Users/yoyom/Desktop/Pico/pico-sdk/src/rp2_common/pico_printf/printf.c.obj
 *fill*         0x10009aec        0x4 
 .rodata.pow10.0
                0x10009af0       0x50 CMakeFiles/nano_http_client.dir/C_/Users/yoyom/Desktop/Pico/pico-sdk/src/rp2_common/pico_printf/printf.c.obj
 .rodata.crlf_str.0
                0x10009b40        0x2 CMakeFiles/nano_http_client.dir/C_/Users/yoyom/Desktop/Pico/pico-sdk/src/rp2_common/pico_stdio/stdio.c.obj
 *fill*         0x10009b42        0x2 
 .rodata._resetd_driver
                0x10009b44       0x20 CMakeFiles/nano_http_client.dir/C_/Users/yoyom/Desktop/Pico/pico-sdk/src/rp2_common/pico_stdio_usb/reset_interface.c.obj
 .rodata.desc_bos
                0x10009b64       0x21 CMakeFiles/nano_http_client.dir/C_/Users/yoyom/Desktop/Pico/pico-sdk/src/rp2_common/pico_stdio_usb/reset_interface.c.obj
                0x10009b64                desc_bos
 *fill*         0x10009b85        0x3 
 .rodata.desc_ms_os_20
                0x10009b88       0xa6 CMakeFiles/nano_http_client.dir/C_/Users/yoyom/Desktop/Pico/pico-sdk/src/rp2_common/pico_stdio_usb/reset_interface.c.obj
 *fill*         0x10009c2e        0x2 
 .rodata.str1.4
                0x10009c30       0x13 CMakeFiles/nano_http_client.dir/C_/Users/yoyom/Desktop/Pico/pico-sdk/src/rp2_common/pico_stdio_usb/stdio_usb.c.obj
 *fill*         0x10009c43        0x1 
 .rodata.__bi_197.0
                0x10009c44        0xc CMakeFiles/nano_http_client.dir/C_/Users/yoyom/Desktop/Pico/pico-sdk/src/rp2_common/pico_stdio_usb/stdio_usb.c.obj
 .rodata.str1.4
                0x10009c50       0x2a CMakeFiles/nano_http_client.dir/C_/Users/yoyom/Desktop/Pico/pico-sdk/src/rp2_common/pico_stdio_usb/stdio_usb_descriptors.c.obj
 *fill*         0x10009c7a        0x2 
 .rodata.usbd_desc_cfg
                0x10009c7c       0x54 CMakeFiles/nano_http_client.dir/C_/Users/yoyom/Desktop/Pico/pico-sdk/src/rp2_common/pico_stdio_usb/stdio_usb_descriptors.c.obj
 .rodata.usbd_desc_device
                0x10009cd0       0x12 CMakeFiles/nano_http_client.dir/C_/Users/yoyom/Desktop/Pico/pico-sdk/src/rp2_common/pico_stdio_usb/stdio_usb_descriptors.c.obj
 *fill*         0x10009ce2        0x2 
 .rodata.usbd_desc_str
                0x10009ce4       0x18 CMakeFiles/nano_http_client.dir/C_/Users/yoyom/Desktop/Pico/pico-sdk/src/rp2_common/pico_stdio_usb/stdio_usb_descriptors.c.obj
 .rodata.str1.4
                0x10009cfc       0x14 CMakeFiles/nano_http_client.dir/C_/Users/yoyom/Desktop/Pico/pico-sdk/lib/tinyusb/src/portable/raspberrypi/rp2040/dcd_rp2040.c.obj
 .rodata.str1.4
                0x10009d10       0x48 CMakeFiles/nano_http_client.dir/C_/Users/yoyom/Desktop/Pico/pico-sdk/lib/tinyusb/src/portable/raspberrypi/rp2040/rp2040_usb.c.obj
 .rodata.tud_task_ext
                0x10009d58       0x8c CMakeFiles/nano_http_client.dir/C_/Users/yoyom/Desktop/Pico/pico-sdk/lib/tinyusb/src/device/usbd.c.obj
 .rodata        0x10009de4       0x1c CMakeFiles/nano_http_client.dir/C_/Users/yoyom/Desktop/Pico/pico-sdk/lib/tinyusb/src/device/usbd.c.obj
 .rodata._usbd_driver
                0x10009e00       0x40 CMakeFiles/nano_http_client.dir/C_/Users/yoyom/Desktop/Pico/pico-sdk/lib/tinyusb/src/device/usbd.c.obj
 .rodata.mem_free.str1.4
                0x10009e40       0xb6 CMakeFiles/nano_http_client.dir/C_/Users/yoyom/Desktop/Pico/pico-sdk/lib/lwip/src/core/mem.c.obj
 *fill*         0x10009ef6        0x2 
 .rodata.mem_trim.str1.4
                0x10009ef8       0x49 CMakeFiles/nano_http_client.dir/C_/Users/yoyom/Desktop/Pico/pico-sdk/lib/lwip/src/core/mem.c.obj
 *fill*         0x10009f41        0x3 
 .rodata.mem_malloc.str1.4
                0x10009f44       0x5f CMakeFiles/nano_http_client.dir/C_/Users/yoyom/Desktop/Pico/pico-sdk/lib/lwip/src/core/mem.c.obj
 *fill*         0x10009fa3        0x1 
 .rodata.memp_malloc_pool.str1.4
                0x10009fa4       0x37 CMakeFiles/nano_http_client.dir/C_/Users/yoyom/Desktop/Pico/pico-sdk/lib/lwip/src/core/memp.c.obj
 *fill*         0x10009fdb        0x1 
 .rodata.memp_free_pool.str1.4
                0x10009fdc       0x20 CMakeFiles/nano_http_client.dir/C_/Users/yoyom/Desktop/Pico/pico-sdk/lib/lwip/src/core/memp.c.obj
 .rodata.memp_PBUF
                0x10009ffc        0xc CMakeFiles/nano_http_client.dir/C_/Users/yoyom/Desktop/Pico/pico-sdk/lib/lwip/src/core/memp.c.obj
                0x10009ffc                memp_PBUF
 .rodata.memp_PBUF_POOL
                0x1000a008        0xc CMakeFiles/nano_http_client.dir/C_/Users/yoyom/Desktop/Pico/pico-sdk/lib/lwip/src/core/memp.c.obj
                0x1000a008                memp_PBUF_POOL
 .rodata.memp_RAW_PCB
                0x1000a014        0xc CMakeFiles/nano_http_client.dir/C_/Users/yoyom/Desktop/Pico/pico-sdk/lib/lwip/src/core/memp.c.obj
                0x1000a014                memp_RAW_PCB
 .rodata.memp_REASSDATA
                0x1000a020        0xc CMakeFiles/nano_http_client.dir/C_/Users/yoyom/Desktop/Pico/pico-sdk/lib/lwip/src/core/memp.c.obj
                0x1000a020                memp_REASSDATA
 .rodata.memp_SYS_TIMEOUT
                0x1000a02c        0xc CMakeFiles/nano_http_client.dir/C_/Users/yoyom/Desktop/Pico/pico-sdk/lib/lwip/src/core/memp.c.obj
                0x1000a02c                memp_SYS_TIMEOUT
 .rodata.memp_TCP_PCB
                0x1000a038        0xc CMakeFiles/nano_http_client.dir/C_/Users/yoyom/Desktop/Pico/pico-sdk/lib/lwip/src/core/memp.c.obj
                0x1000a038                memp_TCP_PCB
 .rodata.memp_TCP_PCB_LISTEN
                0x1000a044        0xc CMakeFiles/nano_http_client.dir/C_/Users/yoyom/Desktop/Pico/pico-sdk/lib/lwip/src/core/memp.c.obj
                0x1000a044                memp_TCP_PCB_LISTEN
 .rodata.memp_TCP_SEG
                0x1000a050        0xc CMakeFiles/nano_http_client.dir/C_/Users/yoyom/Desktop/Pico/pico-sdk/lib/lwip/src/core/memp.c.obj
                0x1000a050                memp_TCP_SEG
 .rodata.memp_UDP_PCB
                0x1000a05c        0xc CMakeFiles/nano_http_client.dir/C_/Users/yoyom/Desktop/Pico/pico-sdk/lib/lwip/src/core/memp.c.obj
                0x1000a05c                memp_UDP_PCB
 .rodata.memp_pools
                0x1000a068       0x24 CMakeFiles/nano_http_client.dir/C_/Users/yoyom/Desktop/Pico/pico-sdk/lib/lwip/src/core/memp.c.obj
                0x1000a068                memp_pools
 .rodata.pbuf_free.part.0.str1.4
                0x1000a08c       0x2a CMakeFiles/nano_http_client.dir/C_/Users/yoyom/Desktop/Pico/pico-sdk/lib/lwip/src/core/pbuf.c.obj
 *fill*         0x1000a0b6        0x2 
 .rodata.pbuf_alloc.str1.4
                0x1000a0b8       0x1b CMakeFiles/nano_http_client.dir/C_/Users/yoyom/Desktop/Pico/pico-sdk/lib/lwip/src/core/pbuf.c.obj
 *fill*         0x1000a0d3        0x1 
 .rodata.pbuf_realloc.str1.4
                0x1000a0d4       0x65 CMakeFiles/nano_http_client.dir/C_/Users/yoyom/Desktop/Pico/pico-sdk/lib/lwip/src/core/pbuf.c.obj
 *fill*         0x1000a139        0x3 
 .rodata.pbuf_add_header.str1.4
                0x1000a13c        0xa CMakeFiles/nano_http_client.dir/C_/Users/yoyom/Desktop/Pico/pico-sdk/lib/lwip/src/core/pbuf.c.obj
 *fill*         0x1000a146        0x2 
 .rodata.tcp_close_shutdown_fin.str1.4
                0x1000a148        0xc CMakeFiles/nano_http_client.dir/C_/Users/yoyom/Desktop/Pico/pico-sdk/lib/lwip/src/core/tcp.c.obj
 .rodata.tcp_free.str1.4
                0x1000a154       0x11 CMakeFiles/nano_http_client.dir/C_/Users/yoyom/Desktop/Pico/pico-sdk/lib/lwip/src/core/tcp.c.obj
 *fill*         0x1000a165        0x3 
 .rodata.tcp_update_rcv_ann_wnd.str1.4
                0x1000a168       0x3e CMakeFiles/nano_http_client.dir/C_/Users/yoyom/Desktop/Pico/pico-sdk/lib/lwip/src/core/tcp.c.obj
 *fill*         0x1000a1a6        0x2 
 .rodata.tcp_recved.str1.4
                0x1000a1a8       0x26 CMakeFiles/nano_http_client.dir/C_/Users/yoyom/Desktop/Pico/pico-sdk/lib/lwip/src/core/tcp.c.obj
 *fill*         0x1000a1ce        0x2 
 .rodata.tcp_slowtmr.str1.4
                0x1000a1d0      0x1c6 CMakeFiles/nano_http_client.dir/C_/Users/yoyom/Desktop/Pico/pico-sdk/lib/lwip/src/core/tcp.c.obj
 *fill*         0x1000a396        0x2 
 .rodata.tcp_recv.str1.4
                0x1000a398       0x27 CMakeFiles/nano_http_client.dir/C_/Users/yoyom/Desktop/Pico/pico-sdk/lib/lwip/src/core/tcp.c.obj
 *fill*         0x1000a3bf        0x1 
 .rodata.tcp_err.str1.4
                0x1000a3c0       0x26 CMakeFiles/nano_http_client.dir/C_/Users/yoyom/Desktop/Pico/pico-sdk/lib/lwip/src/core/tcp.c.obj
 *fill*         0x1000a3e6        0x2 
 .rodata.tcp_pcb_remove.str1.4
                0x1000a3e8       0x87 CMakeFiles/nano_http_client.dir/C_/Users/yoyom/Desktop/Pico/pico-sdk/lib/lwip/src/core/tcp.c.obj
 *fill*         0x1000a46f        0x1 
 .rodata.tcp_abandon.str1.4
                0x1000a470       0x31 CMakeFiles/nano_http_client.dir/C_/Users/yoyom/Desktop/Pico/pico-sdk/lib/lwip/src/core/tcp.c.obj
 *fill*         0x1000a4a1        0x3 
 .rodata.tcp_close_shutdown.str1.4
                0x1000a4a4       0x55 CMakeFiles/nano_http_client.dir/C_/Users/yoyom/Desktop/Pico/pico-sdk/lib/lwip/src/core/tcp.c.obj
 *fill*         0x1000a4f9        0x3 
 .rodata.tcp_eff_send_mss_netif.str1.4
                0x1000a4fc       0x27 CMakeFiles/nano_http_client.dir/C_/Users/yoyom/Desktop/Pico/pico-sdk/lib/lwip/src/core/tcp.c.obj
 *fill*         0x1000a523        0x1 
 .rodata.tcp_backoff
                0x1000a524        0xd CMakeFiles/nano_http_client.dir/C_/Users/yoyom/Desktop/Pico/pico-sdk/lib/lwip/src/core/tcp.c.obj
 *fill*         0x1000a531        0x3 
 .rodata.tcp_pcb_lists
                0x1000a534       0x10 CMakeFiles/nano_http_client.dir/C_/Users/yoyom/Desktop/Pico/pico-sdk/lib/lwip/src/core/tcp.c.obj
                0x1000a534                tcp_pcb_lists
 .rodata.tcp_persist_backoff
                0x1000a544        0x7 CMakeFiles/nano_http_client.dir/C_/Users/yoyom/Desktop/Pico/pico-sdk/lib/lwip/src/core/tcp.c.obj
 *fill*         0x1000a54b        0x1 
 .rodata.tcp_create_segment.str1.4
                0x1000a54c       0x59 CMakeFiles/nano_http_client.dir/C_/Users/yoyom/Desktop/Pico/pico-sdk/lib/lwip/src/core/tcp_out.c.obj
 *fill*         0x1000a5a5        0x3 
 .rodata.tcp_output_control_segment.str1.4
                0x1000a5a8       0x29 CMakeFiles/nano_http_client.dir/C_/Users/yoyom/Desktop/Pico/pico-sdk/lib/lwip/src/core/tcp_out.c.obj
 *fill*         0x1000a5d1        0x3 
 .rodata.tcp_output_alloc_header.constprop.0.str1.4
                0x1000a5d4       0x56 CMakeFiles/nano_http_client.dir/C_/Users/yoyom/Desktop/Pico/pico-sdk/lib/lwip/src/core/tcp_out.c.obj
 *fill*         0x1000a62a        0x2 
 .rodata.tcp_write.str1.4
                0x1000a62c      0x13e CMakeFiles/nano_http_client.dir/C_/Users/yoyom/Desktop/Pico/pico-sdk/lib/lwip/src/core/tcp_out.c.obj
 *fill*         0x1000a76a        0x2 
 .rodata.tcp_split_unsent_seg.str1.4
                0x1000a76c       0x55 CMakeFiles/nano_http_client.dir/C_/Users/yoyom/Desktop/Pico/pico-sdk/lib/lwip/src/core/tcp_out.c.obj
 *fill*         0x1000a7c1        0x3 
 .rodata.tcp_send_fin.str1.4
                0x1000a7c4       0x88 CMakeFiles/nano_http_client.dir/C_/Users/yoyom/Desktop/Pico/pico-sdk/lib/lwip/src/core/tcp_out.c.obj
 .rodata.tcp_enqueue_flags.str1.4
                0x1000a84c       0xb1 CMakeFiles/nano_http_client.dir/C_/Users/yoyom/Desktop/Pico/pico-sdk/lib/lwip/src/core/tcp_out.c.obj
 *fill*         0x1000a8fd        0x3 
 .rodata.tcp_rexmit_rto_prepare.str1.4
                0x1000a900       0x24 CMakeFiles/nano_http_client.dir/C_/Users/yoyom/Desktop/Pico/pico-sdk/lib/lwip/src/core/tcp_out.c.obj
 .rodata.tcp_rst.str1.4
                0x1000a924       0x37 CMakeFiles/nano_http_client.dir/C_/Users/yoyom/Desktop/Pico/pico-sdk/lib/lwip/src/core/tcp_out.c.obj
 *fill*         0x1000a95b        0x1 
 .rodata.tcp_send_empty_ack.str1.4
                0x1000a95c       0x20 CMakeFiles/nano_http_client.dir/C_/Users/yoyom/Desktop/Pico/pico-sdk/lib/lwip/src/core/tcp_out.c.obj
 .rodata.tcp_output.str1.4
                0x1000a97c       0x6b CMakeFiles/nano_http_client.dir/C_/Users/yoyom/Desktop/Pico/pico-sdk/lib/lwip/src/core/tcp_out.c.obj
 *fill*         0x1000a9e7        0x1 
 .rodata.tcp_rexmit_rto_commit.str1.4
                0x1000a9e8       0x23 CMakeFiles/nano_http_client.dir/C_/Users/yoyom/Desktop/Pico/pico-sdk/lib/lwip/src/core/tcp_out.c.obj
 *fill*         0x1000aa0b        0x1 
 .rodata.tcp_keepalive.str1.4
                0x1000aa0c       0x1b CMakeFiles/nano_http_client.dir/C_/Users/yoyom/Desktop/Pico/pico-sdk/lib/lwip/src/core/tcp_out.c.obj
 *fill*         0x1000aa27        0x1 
 .rodata.tcp_zero_window_probe.str1.4
                0x1000aa28       0x23 CMakeFiles/nano_http_client.dir/C_/Users/yoyom/Desktop/Pico/pico-sdk/lib/lwip/src/core/tcp_out.c.obj
 *fill*         0x1000aa4b        0x1 
 .rodata.sys_timeout_abs.str1.4
                0x1000aa4c       0x3d CMakeFiles/nano_http_client.dir/C_/Users/yoyom/Desktop/Pico/pico-sdk/lib/lwip/src/core/timeouts.c.obj
 *fill*         0x1000aa89        0x3 
 .rodata.ip4_frag.str1.4
                0x1000aa8c       0x20 CMakeFiles/nano_http_client.dir/C_/Users/yoyom/Desktop/Pico/pico-sdk/lib/lwip/src/core/ipv4/ip4_frag.c.obj
 .rodata.ip4_output_if.str1.4
                0x1000aaac       0x39 CMakeFiles/nano_http_client.dir/C_/Users/yoyom/Desktop/Pico/pico-sdk/lib/lwip/src/core/ipv4/ip4.c.obj
 *fill*         0x1000aae5        0x3 
 .rodata.ip4addr_aton.str1.4
                0x1000aae8        0xa CMakeFiles/nano_http_client.dir/C_/Users/yoyom/Desktop/Pico/pico-sdk/lib/lwip/src/core/ipv4/ip4_addr.c.obj
 *fill*         0x1000aaf2        0x2 
 .rodata.ip4addr_aton
                0x1000aaf4       0x14 CMakeFiles/nano_http_client.dir/C_/Users/yoyom/Desktop/Pico/pico-sdk/lib/lwip/src/core/ipv4/ip4_addr.c.obj
 .rodata._ctype_
                0x1000ab08      0x101 c:/vsarm/armcc/102021~1.10/bin/../lib/gcc/arm-none-eabi/10.3.1/../../../../arm-none-eabi/lib/thumb/v6-m/nofp\libg.a(lib_a-ctype_.o)
                0x1000ab08                _ctype_
                0x1000ac0c                . = ALIGN (0x4)
 *fill*         0x1000ac09        0x3 
 *(SORT_BY_ALIGNMENT(SORT_BY_NAME(.flashdata*)))
                0x1000ac0c                . = ALIGN (0x4)

.ARM.extab
 *(.ARM.extab* .gnu.linkonce.armextab.*)
                0x1000ac0c                __exidx_start = .

.ARM.exidx
 *(.ARM.exidx* .gnu.linkonce.armexidx.*)
                0x1000ac0c                __exidx_end = .
                0x1000ac0c                . = ALIGN (0x4)
                0x1000ac0c                __binary_info_start = .

.binary_info    0x1000ac0c       0x20
 *(.binary_info.keep.*)
 .binary_info.keep.__bi_ptr26
                0x1000ac0c        0x4 CMakeFiles/nano_http_client.dir/C_/Users/yoyom/Desktop/Pico/pico-sdk/src/rp2_common/pico_standard_binary_info/standard_binary_info.c.obj
 .binary_info.keep.__bi_ptr34
                0x1000ac10        0x4 CMakeFiles/nano_http_client.dir/C_/Users/yoyom/Desktop/Pico/pico-sdk/src/rp2_common/pico_standard_binary_info/standard_binary_info.c.obj
 .binary_info.keep.__bi_ptr42
                0x1000ac14        0x4 CMakeFiles/nano_http_client.dir/C_/Users/yoyom/Desktop/Pico/pico-sdk/src/rp2_common/pico_standard_binary_info/standard_binary_info.c.obj
 .binary_info.keep.__bi_ptr48
                0x1000ac18        0x4 CMakeFiles/nano_http_client.dir/C_/Users/yoyom/Desktop/Pico/pico-sdk/src/rp2_common/pico_standard_binary_info/standard_binary_info.c.obj
 .binary_info.keep.__bi_ptr54
                0x1000ac1c        0x4 CMakeFiles/nano_http_client.dir/C_/Users/yoyom/Desktop/Pico/pico-sdk/src/rp2_common/pico_standard_binary_info/standard_binary_info.c.obj
 .binary_info.keep.__bi_ptr78
                0x1000ac20        0x4 CMakeFiles/nano_http_client.dir/C_/Users/yoyom/Desktop/Pico/pico-sdk/src/rp2_common/pico_standard_binary_info/standard_binary_info.c.obj
 .binary_info.keep.__bi_ptr84
                0x1000ac24        0x4 CMakeFiles/nano_http_client.dir/C_/Users/yoyom/Desktop/Pico/pico-sdk/src/rp2_common/pico_standard_binary_info/standard_binary_info.c.obj
 *(.binary_info.*)
 .binary_info.__bi_ptr197
                0x1000ac28        0x4 CMakeFiles/nano_http_client.dir/C_/Users/yoyom/Desktop/Pico/pico-sdk/src/rp2_common/pico_stdio_usb/stdio_usb.c.obj
                0x1000ac2c                __binary_info_end = .

.rel.dyn        0x1000ac2c        0x0
 .rel.iplt      0x1000ac2c        0x0 c:/vsarm/armcc/102021~1.10/bin/../lib/gcc/arm-none-eabi/10.3.1/thumb/v6-m/nofp/crtbegin.o
                0x1000ac2c                . = ALIGN (0x4)

.ram_vector_table
                0x20000000       0xc0
 *(.ram_vector_table)
 .ram_vector_table
                0x20000000       0xc0 CMakeFiles/nano_http_client.dir/C_/Users/yoyom/Desktop/Pico/pico-sdk/src/rp2_common/pico_runtime_init/runtime_init.c.obj
                0x20000000                ram_vector_table

.uninitialized_data
                0x200000c0        0x0
                0x200000c0                . = ALIGN (0x4)
 *(.uninitialized_data*)

.data           0x200000c0     0x1098 load address 0x1000ac2c
                0x200000c0                __data_start__ = .
 *(vtable)
 *(.time_critical*)
 .time_critical.mutex_try_enter
                0x200000c0       0x44 CMakeFiles/nano_http_client.dir/C_/Users/yoyom/Desktop/Pico/pico-sdk/src/common/pico_sync/mutex.c.obj
                0x200000c0                mutex_try_enter
 .time_critical.mutex_try_enter_block_until
                0x20000104       0x9c CMakeFiles/nano_http_client.dir/C_/Users/yoyom/Desktop/Pico/pico-sdk/src/common/pico_sync/mutex.c.obj
                0x20000104                mutex_try_enter_block_until
 .time_critical.mutex_enter_timeout_ms
                0x200001a0       0x90 CMakeFiles/nano_http_client.dir/C_/Users/yoyom/Desktop/Pico/pico-sdk/src/common/pico_sync/mutex.c.obj
                0x200001a0                mutex_enter_timeout_ms
 .time_critical.mutex_exit
                0x20000230       0x28 CMakeFiles/nano_http_client.dir/C_/Users/yoyom/Desktop/Pico/pico-sdk/src/common/pico_sync/mutex.c.obj
                0x20000230                mutex_exit
 .time_critical.flash_init_boot2_copyout
                0x20000258       0x30 CMakeFiles/nano_http_client.dir/C_/Users/yoyom/Desktop/Pico/pico-sdk/src/rp2_common/hardware_flash/flash.c.obj
 .time_critical.flash_enable_xip_via_boot2
                0x20000288       0x10 CMakeFiles/nano_http_client.dir/C_/Users/yoyom/Desktop/Pico/pico-sdk/src/rp2_common/hardware_flash/flash.c.obj
 .time_critical.flash_cs_force
                0x20000298       0x38 CMakeFiles/nano_http_client.dir/C_/Users/yoyom/Desktop/Pico/pico-sdk/src/rp2_common/hardware_flash/flash.c.obj
 .time_critical.flash_do_cmd
                0x200002d0       0xc4 CMakeFiles/nano_http_client.dir/C_/Users/yoyom/Desktop/Pico/pico-sdk/src/rp2_common/hardware_flash/flash.c.obj
                0x200002d0                flash_do_cmd
 .time_critical.reset_non_control_endpoints
                0x20000394       0xbc CMakeFiles/nano_http_client.dir/C_/Users/yoyom/Desktop/Pico/pico-sdk/lib/tinyusb/src/portable/raspberrypi/rp2040/dcd_rp2040.c.obj
 .time_critical.hw_handle_buff_status
                0x20000450       0xa8 CMakeFiles/nano_http_client.dir/C_/Users/yoyom/Desktop/Pico/pico-sdk/lib/tinyusb/src/portable/raspberrypi/rp2040/dcd_rp2040.c.obj
 .time_critical.dcd_rp2040_irq
                0x200004f8      0x554 CMakeFiles/nano_http_client.dir/C_/Users/yoyom/Desktop/Pico/pico-sdk/lib/tinyusb/src/portable/raspberrypi/rp2040/dcd_rp2040.c.obj
 .time_critical.prepare_ep_buffer
                0x20000a4c       0xf4 CMakeFiles/nano_http_client.dir/C_/Users/yoyom/Desktop/Pico/pico-sdk/lib/tinyusb/src/portable/raspberrypi/rp2040/rp2040_usb.c.obj
 .time_critical.sync_ep_buffer
                0x20000b40       0xb4 CMakeFiles/nano_http_client.dir/C_/Users/yoyom/Desktop/Pico/pico-sdk/lib/tinyusb/src/portable/raspberrypi/rp2040/rp2040_usb.c.obj
 .time_critical._hw_endpoint_xfer_sync
                0x20000bf4       0x28 CMakeFiles/nano_http_client.dir/C_/Users/yoyom/Desktop/Pico/pico-sdk/lib/tinyusb/src/portable/raspberrypi/rp2040/rp2040_usb.c.obj
 .time_critical.e15_is_bulkin_ep
                0x20000c1c       0x28 CMakeFiles/nano_http_client.dir/C_/Users/yoyom/Desktop/Pico/pico-sdk/lib/tinyusb/src/portable/raspberrypi/rp2040/rp2040_usb.c.obj
 .time_critical.e15_is_critical_frame_period
                0x20000c44       0x34 CMakeFiles/nano_http_client.dir/C_/Users/yoyom/Desktop/Pico/pico-sdk/lib/tinyusb/src/portable/raspberrypi/rp2040/rp2040_usb.c.obj
 .time_critical.hw_endpoint_reset_transfer
                0x20000c78        0xc CMakeFiles/nano_http_client.dir/C_/Users/yoyom/Desktop/Pico/pico-sdk/lib/tinyusb/src/portable/raspberrypi/rp2040/rp2040_usb.c.obj
                0x20000c78                hw_endpoint_reset_transfer
 .time_critical._hw_endpoint_buffer_control_update32
                0x20000c84       0x50 CMakeFiles/nano_http_client.dir/C_/Users/yoyom/Desktop/Pico/pico-sdk/lib/tinyusb/src/portable/raspberrypi/rp2040/rp2040_usb.c.obj
                0x20000c84                _hw_endpoint_buffer_control_update32
 .time_critical.hw_endpoint_start_next_buffer
                0x20000cd4       0x6c CMakeFiles/nano_http_client.dir/C_/Users/yoyom/Desktop/Pico/pico-sdk/lib/tinyusb/src/portable/raspberrypi/rp2040/rp2040_usb.c.obj
                0x20000cd4                hw_endpoint_start_next_buffer
 .time_critical.hw_endpoint_xfer_continue
                0x20000d40       0x40 CMakeFiles/nano_http_client.dir/C_/Users/yoyom/Desktop/Pico/pico-sdk/lib/tinyusb/src/portable/raspberrypi/rp2040/rp2040_usb.c.obj
                0x20000d40                hw_endpoint_xfer_continue
 .time_critical.tinyusb
                0x20000d80      0x1f0 CMakeFiles/nano_http_client.dir/C_/Users/yoyom/Desktop/Pico/pico-sdk/lib/tinyusb/src/device/usbd.c.obj
                0x20000d80                dcd_event_handler
 *(.text*)
 .text          0x20000f70        0x4 c:/vsarm/armcc/102021~1.10/bin/../lib/gcc/arm-none-eabi/10.3.1/thumb/v6-m/nofp\libgcc.a(_dvmd_tls.o)
                0x20000f70                __aeabi_idiv0
                0x20000f70                __aeabi_ldiv0
 *fill*         0x20000f74        0x4 
 .text.__stub   0x20000f78       0x80 linker stubs
                0x20000ff8                . = ALIGN (0x4)
 *(.rodata*)
                0x20000ff8                . = ALIGN (0x4)
 *(.data*)
 .data.striped_spin_lock_num
                0x20000ff8        0x1 CMakeFiles/nano_http_client.dir/C_/Users/yoyom/Desktop/Pico/pico-sdk/src/rp2_common/hardware_sync/sync.c.obj
 *fill*         0x20000ff9        0x3 
 .data          0x20000ffc       0xd8 CMakeFiles/nano_http_client.dir/C_/Users/yoyom/Desktop/Pico/pico-sdk/src/rp2_common/hardware_irq/irq_handler_chain.S.obj
                0x20000ffc                irq_handler_chain_slots
                0x200010bc                irq_handler_chain_first_slot
                0x200010c6                irq_handler_chain_remove_tail
 .data.default_alarm_pool
                0x200010d4       0x18 CMakeFiles/nano_http_client.dir/C_/Users/yoyom/Desktop/Pico/pico-sdk/src/common/pico_time/time.c.obj
 *fill*         0x200010ec        0x4 
 .data.aeabi_bits_funcs
                0x200010f0       0x10 CMakeFiles/nano_http_client.dir/C_/Users/yoyom/Desktop/Pico/pico-sdk/src/rp2_common/pico_bit_ops/bit_ops_aeabi.S.obj
                0x200010f0                aeabi_bits_funcs
                0x20001100                aeabi_bits_funcs_end
 .data.aeabi_mem_funcs
                0x20001100       0x10 CMakeFiles/nano_http_client.dir/C_/Users/yoyom/Desktop/Pico/pico-sdk/src/rp2_common/pico_mem_ops/mem_ops_aeabi.S.obj
                0x20001100                aeabi_mem_funcs
                0x20001110                aeabi_mem_funcs_end
 .data.stdio_usb
                0x20001110       0x18 CMakeFiles/nano_http_client.dir/C_/Users/yoyom/Desktop/Pico/pico-sdk/src/rp2_common/pico_stdio_usb/stdio_usb.c.obj
                0x20001110                stdio_usb
 .data._usbd_qdef
                0x20001128       0x1c CMakeFiles/nano_http_client.dir/C_/Users/yoyom/Desktop/Pico/pico-sdk/lib/tinyusb/src/device/usbd.c.obj
                0x20001128                _usbd_qdef
 .data._usbd_rhport
                0x20001144        0x1 CMakeFiles/nano_http_client.dir/C_/Users/yoyom/Desktop/Pico/pico-sdk/lib/tinyusb/src/device/usbd.c.obj
 *fill*         0x20001145        0x3 
 .data.iss.0    0x20001148        0x4 CMakeFiles/nano_http_client.dir/C_/Users/yoyom/Desktop/Pico/pico-sdk/lib/lwip/src/core/tcp.c.obj
 .data.tcp_port
                0x2000114c        0x2 CMakeFiles/nano_http_client.dir/C_/Users/yoyom/Desktop/Pico/pico-sdk/lib/lwip/src/core/tcp.c.obj
                0x20001150                . = ALIGN (0x4)
 *fill*         0x2000114e        0x2 
 *(.after_data.*)
                0x20001150                . = ALIGN (0x4)
                0x20001150                PROVIDE (__mutex_array_start = .)
 *(SORT_BY_NAME(.mutex_array.*))
 *(.mutex_array)
 .mutex_array   0x20001150        0x8 CMakeFiles/nano_http_client.dir/C_/Users/yoyom/Desktop/Pico/pico-sdk/src/rp2_common/pico_stdio/stdio.c.obj
                0x20001158                PROVIDE (__mutex_array_end = .)
                0x20001158                . = ALIGN (0x4)
 *(.jcr)
                0x20001158                . = ALIGN (0x4)

.igot.plt       0x20001158        0x0 load address 0x1000bcc4
 .igot.plt      0x20001158        0x0 c:/vsarm/armcc/102021~1.10/bin/../lib/gcc/arm-none-eabi/10.3.1/thumb/v6-m/nofp/crtbegin.o

.tdata          0x20001158        0x0 load address 0x1000bcc4
                0x20001158                . = ALIGN (0x4)
 *(.tdata .tdata.* .gnu.linkonce.td.*)
                0x20001158                __tdata_end = .
                0x20001158                PROVIDE (__data_end__ = .)
                0x1000ac2c                __etext = LOADADDR (.data)

.tbss           0x20001158        0x0 load address 0x1000bcc4
                0x20001158                . = ALIGN (0x4)
                0x20001158                __bss_start__ = .
                0x20001158                __tls_base = .
 *(.tbss .tbss.* .gnu.linkonce.tb.*)
 *(.tcommon)
                0x20001158                __tls_end = .

.bss            0x20001158     0xab34 load address 0x1000bcc4
                0x20001158                . = ALIGN (0x4)
                0x20001158                __tbss_end = .
 *(SORT_BY_ALIGNMENT(SORT_BY_NAME(.bss*)))
 .bss.default_alarm_pool_entries
                0x20001158      0x180 CMakeFiles/nano_http_client.dir/C_/Users/yoyom/Desktop/Pico/pico-sdk/src/common/pico_time/time.c.obj
 .bss.last_avail_time.1
                0x200012d8        0x8 CMakeFiles/nano_http_client.dir/C_/Users/yoyom/Desktop/Pico/pico-sdk/src/rp2_common/pico_stdio_usb/stdio_usb.c.obj
 .bss.sd_table  0x200012e0      0x100 CMakeFiles/nano_http_client.dir/C_/Users/yoyom/Desktop/Pico/pico-sdk/src/rp2_common/pico_double/double_init_rom_rp2040.c.obj
                0x200012e0                sd_table
 .bss           0x200013e0       0x1c c:/vsarm/armcc/102021~1.10/bin/../lib/gcc/arm-none-eabi/10.3.1/thumb/v6-m/nofp/crtbegin.o
 .bss._app_driver
                0x200013fc        0x4 CMakeFiles/nano_http_client.dir/C_/Users/yoyom/Desktop/Pico/pico-sdk/lib/tinyusb/src/device/usbd.c.obj
 .bss._cdcd_fifo_cfg
                0x20001400        0x1 CMakeFiles/nano_http_client.dir/C_/Users/yoyom/Desktop/Pico/pico-sdk/lib/tinyusb/src/class/cdc/cdc_device.c.obj
 *fill*         0x20001401        0x3 
 .bss._cdcd_itf
                0x20001404      0x2c8 CMakeFiles/nano_http_client.dir/C_/Users/yoyom/Desktop/Pico/pico-sdk/lib/tinyusb/src/class/cdc/cdc_device.c.obj
 .bss._ctrl_xfer
                0x200016cc       0x14 CMakeFiles/nano_http_client.dir/C_/Users/yoyom/Desktop/Pico/pico-sdk/lib/tinyusb/src/device/usbd_control.c.obj
 .bss._ubsd_mutexdef
                0x200016e0        0x8 CMakeFiles/nano_http_client.dir/C_/Users/yoyom/Desktop/Pico/pico-sdk/lib/tinyusb/src/device/usbd.c.obj
 .bss._usbd_ctrl_buf
                0x200016e8       0x40 CMakeFiles/nano_http_client.dir/C_/Users/yoyom/Desktop/Pico/pico-sdk/lib/tinyusb/src/device/usbd_control.c.obj
 .bss._usbd_dev
                0x20001728       0x54 CMakeFiles/nano_http_client.dir/C_/Users/yoyom/Desktop/Pico/pico-sdk/lib/tinyusb/src/device/usbd.c.obj
 .bss._usbd_mutex
                0x2000177c        0x4 CMakeFiles/nano_http_client.dir/C_/Users/yoyom/Desktop/Pico/pico-sdk/lib/tinyusb/src/device/usbd.c.obj
 .bss._usbd_q   0x20001780        0x4 CMakeFiles/nano_http_client.dir/C_/Users/yoyom/Desktop/Pico/pico-sdk/lib/tinyusb/src/device/usbd.c.obj
 .bss._usbd_qdef_buf
                0x20001784       0xc0 CMakeFiles/nano_http_client.dir/C_/Users/yoyom/Desktop/Pico/pico-sdk/lib/tinyusb/src/device/usbd.c.obj
                0x20001784                _usbd_qdef_buf
 .bss._vendord_itf
                0x20001844      0x2bc CMakeFiles/nano_http_client.dir/C_/Users/yoyom/Desktop/Pico/pico-sdk/lib/tinyusb/src/class/vendor/vendor_device.c.obj
 .bss.boot2_copyout
                0x20001b00      0x100 CMakeFiles/nano_http_client.dir/C_/Users/yoyom/Desktop/Pico/pico-sdk/src/rp2_common/hardware_flash/flash.c.obj
 .bss.chars_available_callback
                0x20001c00        0x4 CMakeFiles/nano_http_client.dir/C_/Users/yoyom/Desktop/Pico/pico-sdk/src/rp2_common/pico_stdio_usb/stdio_usb.c.obj
 .bss.chars_available_param
                0x20001c04        0x4 CMakeFiles/nano_http_client.dir/C_/Users/yoyom/Desktop/Pico/pico-sdk/src/rp2_common/pico_stdio_usb/stdio_usb.c.obj
 .bss.claimed   0x20001c08        0x4 CMakeFiles/nano_http_client.dir/C_/Users/yoyom/Desktop/Pico/pico-sdk/src/rp2_common/hardware_sync/sync.c.obj
 .bss.claimed   0x20001c0c        0x1 CMakeFiles/nano_http_client.dir/C_/Users/yoyom/Desktop/Pico/pico-sdk/src/rp2_common/hardware_timer/timer.c.obj
 *fill*         0x20001c0d        0x3 
 .bss.client    0x20001c10       0x10 CMakeFiles/nano_http_client.dir/main.c.obj
 .bss.configured_freq
                0x20001c20       0x28 CMakeFiles/nano_http_client.dir/C_/Users/yoyom/Desktop/Pico/pico-sdk/src/rp2_common/hardware_clocks/clocks.c.obj
 .bss.desc_str.0
                0x20001c48       0x28 CMakeFiles/nano_http_client.dir/C_/Users/yoyom/Desktop/Pico/pico-sdk/src/rp2_common/pico_stdio_usb/stdio_usb_descriptors.c.obj
 .bss.drivers   0x20001c70        0x4 CMakeFiles/nano_http_client.dir/C_/Users/yoyom/Desktop/Pico/pico-sdk/src/rp2_common/pico_stdio/stdio.c.obj
 .bss.e15_last_sof
                0x20001c74        0x4 CMakeFiles/nano_http_client.dir/C_/Users/yoyom/Desktop/Pico/pico-sdk/lib/tinyusb/src/portable/raspberrypi/rp2040/rp2040_usb.c.obj
                0x20001c74                e15_last_sof
 .bss.filter    0x20001c78        0x4 CMakeFiles/nano_http_client.dir/C_/Users/yoyom/Desktop/Pico/pico-sdk/src/rp2_common/pico_stdio/stdio.c.obj
 .bss.hw_endpoints
                0x20001c7c      0x400 CMakeFiles/nano_http_client.dir/C_/Users/yoyom/Desktop/Pico/pico-sdk/lib/tinyusb/src/portable/raspberrypi/rp2040/dcd_rp2040.c.obj
 .bss.lazy_vsnprintf
                0x2000207c        0x4 CMakeFiles/nano_http_client.dir/C_/Users/yoyom/Desktop/Pico/pico-sdk/src/rp2_common/pico_printf/printf.c.obj
 .bss.lfree     0x20002080        0x4 CMakeFiles/nano_http_client.dir/C_/Users/yoyom/Desktop/Pico/pico-sdk/lib/lwip/src/core/mem.c.obj
 .bss.load_value
                0x20002084        0x4 CMakeFiles/nano_http_client.dir/C_/Users/yoyom/Desktop/Pico/pico-sdk/src/rp2_common/hardware_watchdog/watchdog.c.obj
 .bss.lwip_stats
                0x20002088       0x90 CMakeFiles/nano_http_client.dir/C_/Users/yoyom/Desktop/Pico/pico-sdk/lib/lwip/src/core/stats.c.obj
                0x20002088                lwip_stats
 .bss.memp_memory_PBUF_POOL_base
                0x20002118     0x8fa3 CMakeFiles/nano_http_client.dir/C_/Users/yoyom/Desktop/Pico/pico-sdk/lib/lwip/src/core/memp.c.obj
                0x20002118                memp_memory_PBUF_POOL_base
 *fill*         0x2000b0bb        0x1 
 .bss.memp_memory_PBUF_base
                0x2000b0bc      0x103 CMakeFiles/nano_http_client.dir/C_/Users/yoyom/Desktop/Pico/pico-sdk/lib/lwip/src/core/memp.c.obj
                0x2000b0bc                memp_memory_PBUF_base
 *fill*         0x2000b1bf        0x1 
 .bss.memp_memory_RAW_PCB_base
                0x2000b1c0       0x73 CMakeFiles/nano_http_client.dir/C_/Users/yoyom/Desktop/Pico/pico-sdk/lib/lwip/src/core/memp.c.obj
                0x2000b1c0                memp_memory_RAW_PCB_base
 *fill*         0x2000b233        0x1 
 .bss.memp_memory_REASSDATA_base
                0x2000b234       0xa3 CMakeFiles/nano_http_client.dir/C_/Users/yoyom/Desktop/Pico/pico-sdk/lib/lwip/src/core/memp.c.obj
                0x2000b234                memp_memory_REASSDATA_base
 *fill*         0x2000b2d7        0x1 
 .bss.memp_memory_SYS_TIMEOUT_base
                0x2000b2d8       0x63 CMakeFiles/nano_http_client.dir/C_/Users/yoyom/Desktop/Pico/pico-sdk/lib/lwip/src/core/memp.c.obj
                0x2000b2d8                memp_memory_SYS_TIMEOUT_base
 *fill*         0x2000b33b        0x1 
 .bss.memp_memory_TCP_PCB_LISTEN_base
                0x2000b33c       0xe3 CMakeFiles/nano_http_client.dir/C_/Users/yoyom/Desktop/Pico/pico-sdk/lib/lwip/src/core/memp.c.obj
                0x2000b33c                memp_memory_TCP_PCB_LISTEN_base
 *fill*         0x2000b41f        0x1 
 .bss.memp_memory_TCP_PCB_base
                0x2000b420      0x337 CMakeFiles/nano_http_client.dir/C_/Users/yoyom/Desktop/Pico/pico-sdk/lib/lwip/src/core/memp.c.obj
                0x2000b420                memp_memory_TCP_PCB_base
 *fill*         0x2000b757        0x1 
 .bss.memp_memory_TCP_SEG_base
                0x2000b758      0x203 CMakeFiles/nano_http_client.dir/C_/Users/yoyom/Desktop/Pico/pico-sdk/lib/lwip/src/core/memp.c.obj
                0x2000b758                memp_memory_TCP_SEG_base
 *fill*         0x2000b95b        0x1 
 .bss.memp_memory_UDP_PCB_base
                0x2000b95c       0x83 CMakeFiles/nano_http_client.dir/C_/Users/yoyom/Desktop/Pico/pico-sdk/lib/lwip/src/core/memp.c.obj
                0x2000b95c                memp_memory_UDP_PCB_base
 *fill*         0x2000b9df        0x1 
 .bss.memp_tab_PBUF
                0x2000b9e0        0x4 CMakeFiles/nano_http_client.dir/C_/Users/yoyom/Desktop/Pico/pico-sdk/lib/lwip/src/core/memp.c.obj
 .bss.memp_tab_PBUF_POOL
                0x2000b9e4        0x4 CMakeFiles/nano_http_client.dir/C_/Users/yoyom/Desktop/Pico/pico-sdk/lib/lwip/src/core/memp.c.obj
 .bss.memp_tab_RAW_PCB
                0x2000b9e8        0x4 CMakeFiles/nano_http_client.dir/C_/Users/yoyom/Desktop/Pico/pico-sdk/lib/lwip/src/core/memp.c.obj
 .bss.memp_tab_REASSDATA
                0x2000b9ec        0x4 CMakeFiles/nano_http_client.dir/C_/Users/yoyom/Desktop/Pico/pico-sdk/lib/lwip/src/core/memp.c.obj
 .bss.memp_tab_SYS_TIMEOUT
                0x2000b9f0        0x4 CMakeFiles/nano_http_client.dir/C_/Users/yoyom/Desktop/Pico/pico-sdk/lib/lwip/src/core/memp.c.obj
 .bss.memp_tab_TCP_PCB
                0x2000b9f4        0x4 CMakeFiles/nano_http_client.dir/C_/Users/yoyom/Desktop/Pico/pico-sdk/lib/lwip/src/core/memp.c.obj
 .bss.memp_tab_TCP_PCB_LISTEN
                0x2000b9f8        0x4 CMakeFiles/nano_http_client.dir/C_/Users/yoyom/Desktop/Pico/pico-sdk/lib/lwip/src/core/memp.c.obj
 .bss.memp_tab_TCP_SEG
                0x2000b9fc        0x4 CMakeFiles/nano_http_client.dir/C_/Users/yoyom/Desktop/Pico/pico-sdk/lib/lwip/src/core/memp.c.obj
 .bss.memp_tab_UDP_PCB
                0x2000ba00        0x4 CMakeFiles/nano_http_client.dir/C_/Users/yoyom/Desktop/Pico/pico-sdk/lib/lwip/src/core/memp.c.obj
 .bss.netif_default
                0x2000ba04        0x4 CMakeFiles/nano_http_client.dir/C_/Users/yoyom/Desktop/Pico/pico-sdk/lib/lwip/src/core/netif.c.obj
                0x2000ba04                netif_default
 .bss.netif_list
                0x2000ba08        0x4 CMakeFiles/nano_http_client.dir/C_/Users/yoyom/Desktop/Pico/pico-sdk/lib/lwip/src/core/netif.c.obj
                0x2000ba08                netif_list
 .bss.next_buffer_ptr
                0x2000ba0c        0x4 CMakeFiles/nano_http_client.dir/C_/Users/yoyom/Desktop/Pico/pico-sdk/lib/tinyusb/src/portable/raspberrypi/rp2040/dcd_rp2040.c.obj
 .bss.next_timeout
                0x2000ba10        0x4 CMakeFiles/nano_http_client.dir/C_/Users/yoyom/Desktop/Pico/pico-sdk/lib/lwip/src/core/timeouts.c.obj
 .bss.one_shot_timer_crit_sec
                0x2000ba14        0x8 CMakeFiles/nano_http_client.dir/C_/Users/yoyom/Desktop/Pico/pico-sdk/src/rp2_common/pico_stdio_usb/stdio_usb.c.obj
 .bss.pools     0x2000ba1c       0x10 CMakeFiles/nano_http_client.dir/C_/Users/yoyom/Desktop/Pico/pico-sdk/src/common/pico_time/time.c.obj
 .bss.ram       0x2000ba2c        0x4 CMakeFiles/nano_http_client.dir/C_/Users/yoyom/Desktop/Pico/pico-sdk/lib/lwip/src/core/mem.c.obj
 .bss.ram_end   0x2000ba30        0x4 CMakeFiles/nano_http_client.dir/C_/Users/yoyom/Desktop/Pico/pico-sdk/lib/lwip/src/core/mem.c.obj
 .bss.request_buffer.0
                0x2000ba34      0x100 CMakeFiles/nano_http_client.dir/main.c.obj
 .bss.retrieved_id
                0x2000bb34        0x8 CMakeFiles/nano_http_client.dir/C_/Users/yoyom/Desktop/Pico/pico-sdk/src/rp2_common/pico_unique_id/unique_id.c.obj
 .bss.sf_clz_func
                0x2000bb3c        0x4 CMakeFiles/nano_http_client.dir/C_/Users/yoyom/Desktop/Pico/pico-sdk/src/rp2_common/pico_double/double_init_rom_rp2040.c.obj
                0x2000bb3c                sf_clz_func
 .bss.sf_table  0x2000bb40      0x100 CMakeFiles/nano_http_client.dir/C_/Users/yoyom/Desktop/Pico/pico-sdk/src/rp2_common/pico_float/float_init_rom_rp2040.c.obj
                0x2000bb40                sf_table
 .bss.sleep_notifier
                0x2000bc40        0x4 CMakeFiles/nano_http_client.dir/C_/Users/yoyom/Desktop/Pico/pico-sdk/src/common/pico_time/time.c.obj
 .bss.stdio_usb_mutex
                0x2000bc44        0x8 CMakeFiles/nano_http_client.dir/C_/Users/yoyom/Desktop/Pico/pico-sdk/src/rp2_common/pico_stdio_usb/stdio_usb.c.obj
 .bss.tcp_active_pcbs
                0x2000bc4c        0x4 CMakeFiles/nano_http_client.dir/C_/Users/yoyom/Desktop/Pico/pico-sdk/lib/lwip/src/core/tcp.c.obj
                0x2000bc4c                tcp_active_pcbs
 .bss.tcp_bound_pcbs
                0x2000bc50        0x4 CMakeFiles/nano_http_client.dir/C_/Users/yoyom/Desktop/Pico/pico-sdk/lib/lwip/src/core/tcp.c.obj
                0x2000bc50                tcp_bound_pcbs
 .bss.tcp_input_pcb
                0x2000bc54        0x4 CMakeFiles/nano_http_client.dir/C_/Users/yoyom/Desktop/Pico/pico-sdk/lib/lwip/src/core/tcp_in.c.obj
                0x2000bc54                tcp_input_pcb
 .bss.tcp_listen_pcbs
                0x2000bc58        0x4 CMakeFiles/nano_http_client.dir/C_/Users/yoyom/Desktop/Pico/pico-sdk/lib/lwip/src/core/tcp.c.obj
                0x2000bc58                tcp_listen_pcbs
 .bss.tcp_ticks
                0x2000bc5c        0x4 CMakeFiles/nano_http_client.dir/C_/Users/yoyom/Desktop/Pico/pico-sdk/lib/lwip/src/core/tcp.c.obj
                0x2000bc5c                tcp_ticks
 .bss.tcp_tw_pcbs
                0x2000bc60        0x4 CMakeFiles/nano_http_client.dir/C_/Users/yoyom/Desktop/Pico/pico-sdk/lib/lwip/src/core/tcp.c.obj
                0x2000bc60                tcp_tw_pcbs
 .bss.tcpip_tcp_timer_active
                0x2000bc64        0x4 CMakeFiles/nano_http_client.dir/C_/Users/yoyom/Desktop/Pico/pico-sdk/lib/lwip/src/core/timeouts.c.obj
 .bss.usbd_serial_str
                0x2000bc68       0x11 CMakeFiles/nano_http_client.dir/C_/Users/yoyom/Desktop/Pico/pico-sdk/src/rp2_common/pico_stdio_usb/stdio_usb_descriptors.c.obj
 *fill*         0x2000bc79        0x1 
 .bss.ip_id     0x2000bc7a        0x2 CMakeFiles/nano_http_client.dir/C_/Users/yoyom/Desktop/Pico/pico-sdk/lib/lwip/src/core/ipv4/ip4.c.obj
 .bss._app_driver_count
                0x2000bc7c        0x1 CMakeFiles/nano_http_client.dir/C_/Users/yoyom/Desktop/Pico/pico-sdk/lib/tinyusb/src/device/usbd.c.obj
 .bss._sof_enable
                0x2000bc7d        0x1 CMakeFiles/nano_http_client.dir/C_/Users/yoyom/Desktop/Pico/pico-sdk/lib/tinyusb/src/portable/raspberrypi/rp2040/dcd_rp2040.c.obj
 .bss._usbd_queued_setup
                0x2000bc7e        0x1 CMakeFiles/nano_http_client.dir/C_/Users/yoyom/Desktop/Pico/pico-sdk/lib/tinyusb/src/device/usbd.c.obj
 .bss.boot2_copyout_valid
                0x2000bc7f        0x1 CMakeFiles/nano_http_client.dir/C_/Users/yoyom/Desktop/Pico/pico-sdk/src/rp2_common/hardware_flash/flash.c.obj
 .bss.irq_handler_chain_free_slot_head
                0x2000bc80        0x1 CMakeFiles/nano_http_client.dir/C_/Users/yoyom/Desktop/Pico/pico-sdk/src/rp2_common/hardware_irq/irq.c.obj
 .bss.itf_num   0x2000bc81        0x1 CMakeFiles/nano_http_client.dir/C_/Users/yoyom/Desktop/Pico/pico-sdk/src/rp2_common/pico_stdio_usb/reset_interface.c.obj
 .bss.low_priority_irq_num
                0x2000bc82        0x1 CMakeFiles/nano_http_client.dir/C_/Users/yoyom/Desktop/Pico/pico-sdk/src/rp2_common/pico_stdio_usb/stdio_usb.c.obj
 .bss.one_shot_timer_pending
                0x2000bc83        0x1 CMakeFiles/nano_http_client.dir/C_/Users/yoyom/Desktop/Pico/pico-sdk/src/rp2_common/pico_stdio_usb/stdio_usb.c.obj
 .bss.pbuf_free_ooseq_pending
                0x2000bc84        0x1 CMakeFiles/nano_http_client.dir/C_/Users/yoyom/Desktop/Pico/pico-sdk/lib/lwip/src/core/pbuf.c.obj
                0x2000bc84                pbuf_free_ooseq_pending
 .bss.recv_flags
                0x2000bc85        0x1 CMakeFiles/nano_http_client.dir/C_/Users/yoyom/Desktop/Pico/pico-sdk/lib/lwip/src/core/tcp_in.c.obj
 .bss.tcp_active_pcbs_changed
                0x2000bc86        0x1 CMakeFiles/nano_http_client.dir/C_/Users/yoyom/Desktop/Pico/pico-sdk/lib/lwip/src/core/tcp.c.obj
                0x2000bc86                tcp_active_pcbs_changed
 .bss.tcp_timer
                0x2000bc87        0x1 CMakeFiles/nano_http_client.dir/C_/Users/yoyom/Desktop/Pico/pico-sdk/lib/lwip/src/core/tcp.c.obj
 .bss.tcp_timer_ctr
                0x2000bc88        0x1 CMakeFiles/nano_http_client.dir/C_/Users/yoyom/Desktop/Pico/pico-sdk/lib/lwip/src/core/tcp.c.obj
 .bss.user_irq_claimed
                0x2000bc89        0x1 CMakeFiles/nano_http_client.dir/C_/Users/yoyom/Desktop/Pico/pico-sdk/src/rp2_common/hardware_irq/irq.c.obj
 *(COMMON)
                0x2000bc8c                . = ALIGN (0x4)
 *fill*         0x2000bc8a        0x2 
                0x2000bc8c                __bss_end__ = .

.heap           0x2000bc8c      0x800 load address 0x1000bcc4
                0x2000bc8c                __end__ = .
                0x2000bc8c                end = __end__
 *(.heap*)
 .heap          0x2000bc8c      0x800 CMakeFiles/nano_http_client.dir/C_/Users/yoyom/Desktop/Pico/pico-sdk/src/rp2_common/pico_crt0/crt0.S.obj
                0x20040000                __HeapLimit = (ORIGIN (RAM) + LENGTH (RAM))

.scratch_x      0x20040000        0x0 load address 0x1000bcc4
                0x20040000                __scratch_x_start__ = .
 *(.scratch_x.*)
                0x20040000                . = ALIGN (0x4)
                0x20040000                __scratch_x_end__ = .
                0x1000bcc4                __scratch_x_source__ = LOADADDR (.scratch_x)

.scratch_y      0x20041000        0x0 load address 0x1000bcc4
                0x20041000                __scratch_y_start__ = .
 *(.scratch_y.*)
                0x20041000                . = ALIGN (0x4)
                0x20041000                __scratch_y_end__ = .
                0x1000bcc4                __scratch_y_source__ = LOADADDR (.scratch_y)

.stack1_dummy   0x20040000        0x0
 *(.stack1*)

.stack_dummy    0x20041000      0x800
 *(.stack*)
 .stack         0x20041000      0x800 CMakeFiles/nano_http_client.dir/C_/Users/yoyom/Desktop/Pico/pico-sdk/src/rp2_common/pico_crt0/crt0.S.obj

.flash_end      0x1000bcc4        0x0
 *(.embedded_end_block*)
                0x1000bcc4                PROVIDE (__flash_binary_end = .)
                0x20040000                __StackLimit = (ORIGIN (RAM) + LENGTH (RAM))
                0x20041000                __StackOneTop = (ORIGIN (SCRATCH_X) + LENGTH (SCRATCH_X))
                0x20042000                __StackTop = (ORIGIN (SCRATCH_Y) + LENGTH (SCRATCH_Y))
                0x20041000                __StackOneBottom = (__StackOneTop - SIZEOF (.stack1_dummy))
                0x20041800                __StackBottom = (__StackTop - SIZEOF (.stack_dummy))
                0x20042000                PROVIDE (__stack = __StackTop)
                [!provide]                PROVIDE (__heap_start = __end__)
                [!provide]                PROVIDE (__heap_end = __HeapLimit)
                [!provide]                PROVIDE (__tls_align = MAX (ALIGNOF (.tdata), ALIGNOF (.tbss)))
                [!provide]                PROVIDE (__tls_size_align = (((__tls_size + __tls_align) - 0x1) & ~ ((__tls_align - 0x1))))
                [!provide]                PROVIDE (__arm32_tls_tcb_offset = MAX (0x8, __tls_align))
                [!provide]                PROVIDE (_end = __end__)
                [!provide]                PROVIDE (__llvm_libc_heap_limit = __HeapLimit)
                0x00000001                ASSERT ((__StackLimit >= __HeapLimit), region RAM overflowed)
                0x00000001                ASSERT (((__binary_info_header_end - __logical_binary_start) <= 0x100), Binary info must be in first 256 bytes of the binary)
LOAD CMakeFiles/nano_http_client.dir/main.c.obj
LOAD CMakeFiles/nano_http_client.dir/C_/Users/yoyom/Desktop/Pico/pico-sdk/src/rp2_common/pico_stdlib/stdlib.c.obj
LOAD CMakeFiles/nano_http_client.dir/C_/Users/yoyom/Desktop/Pico/pico-sdk/src/rp2_common/hardware_gpio/gpio.c.obj
LOAD CMakeFiles/nano_http_client.dir/C_/Users/yoyom/Desktop/Pico/pico-sdk/src/rp2040/pico_platform/platform.c.obj
LOAD CMakeFiles/nano_http_client.dir/C_/Users/yoyom/Desktop/Pico/pico-sdk/src/rp2_common/pico_platform_panic/panic.c.obj
LOAD CMakeFiles/nano_http_client.dir/C_/Users/yoyom/Desktop/Pico/pico-sdk/src/common/hardware_claim/claim.c.obj
LOAD CMakeFiles/nano_http_client.dir/C_/Users/yoyom/Desktop/Pico/pico-sdk/src/rp2_common/hardware_sync/sync.c.obj
LOAD CMakeFiles/nano_http_client.dir/C_/Users/yoyom/Desktop/Pico/pico-sdk/src/rp2_common/hardware_sync_spin_lock/sync_spin_lock.c.obj
LOAD CMakeFiles/nano_http_client.dir/C_/Users/yoyom/Desktop/Pico/pico-sdk/src/rp2_common/hardware_irq/irq.c.obj
LOAD CMakeFiles/nano_http_client.dir/C_/Users/yoyom/Desktop/Pico/pico-sdk/src/rp2_common/hardware_irq/irq_handler_chain.S.obj
LOAD CMakeFiles/nano_http_client.dir/C_/Users/yoyom/Desktop/Pico/pico-sdk/src/common/pico_sync/sem.c.obj
LOAD CMakeFiles/nano_http_client.dir/C_/Users/yoyom/Desktop/Pico/pico-sdk/src/common/pico_sync/lock_core.c.obj
LOAD CMakeFiles/nano_http_client.dir/C_/Users/yoyom/Desktop/Pico/pico-sdk/src/common/pico_sync/mutex.c.obj
LOAD CMakeFiles/nano_http_client.dir/C_/Users/yoyom/Desktop/Pico/pico-sdk/src/common/pico_sync/critical_section.c.obj
LOAD CMakeFiles/nano_http_client.dir/C_/Users/yoyom/Desktop/Pico/pico-sdk/src/common/pico_time/time.c.obj
LOAD CMakeFiles/nano_http_client.dir/C_/Users/yoyom/Desktop/Pico/pico-sdk/src/common/pico_time/timeout_helper.c.obj
LOAD CMakeFiles/nano_http_client.dir/C_/Users/yoyom/Desktop/Pico/pico-sdk/src/rp2_common/hardware_timer/timer.c.obj
LOAD CMakeFiles/nano_http_client.dir/C_/Users/yoyom/Desktop/Pico/pico-sdk/src/common/pico_util/datetime.c.obj
LOAD CMakeFiles/nano_http_client.dir/C_/Users/yoyom/Desktop/Pico/pico-sdk/src/common/pico_util/pheap.c.obj
LOAD CMakeFiles/nano_http_client.dir/C_/Users/yoyom/Desktop/Pico/pico-sdk/src/common/pico_util/queue.c.obj
LOAD CMakeFiles/nano_http_client.dir/C_/Users/yoyom/Desktop/Pico/pico-sdk/src/rp2_common/hardware_uart/uart.c.obj
LOAD CMakeFiles/nano_http_client.dir/C_/Users/yoyom/Desktop/Pico/pico-sdk/src/rp2_common/hardware_clocks/clocks.c.obj
LOAD CMakeFiles/nano_http_client.dir/C_/Users/yoyom/Desktop/Pico/pico-sdk/src/rp2_common/hardware_pll/pll.c.obj
LOAD CMakeFiles/nano_http_client.dir/C_/Users/yoyom/Desktop/Pico/pico-sdk/src/rp2_common/hardware_vreg/vreg.c.obj
LOAD CMakeFiles/nano_http_client.dir/C_/Users/yoyom/Desktop/Pico/pico-sdk/src/rp2_common/hardware_watchdog/watchdog.c.obj
LOAD CMakeFiles/nano_http_client.dir/C_/Users/yoyom/Desktop/Pico/pico-sdk/src/rp2_common/hardware_ticks/ticks.c.obj
LOAD CMakeFiles/nano_http_client.dir/C_/Users/yoyom/Desktop/Pico/pico-sdk/src/rp2_common/pico_bootrom/bootrom.c.obj
LOAD CMakeFiles/nano_http_client.dir/C_/Users/yoyom/Desktop/Pico/pico-sdk/src/rp2_common/pico_bootrom/bootrom_lock.c.obj
LOAD CMakeFiles/nano_http_client.dir/C_/Users/yoyom/Desktop/Pico/pico-sdk/src/rp2_common/hardware_boot_lock/boot_lock.c.obj
LOAD CMakeFiles/nano_http_client.dir/C_/Users/yoyom/Desktop/Pico/pico-sdk/src/rp2_common/pico_flash/flash.c.obj
LOAD CMakeFiles/nano_http_client.dir/C_/Users/yoyom/Desktop/Pico/pico-sdk/src/rp2_common/hardware_xosc/xosc.c.obj
LOAD CMakeFiles/nano_http_client.dir/C_/Users/yoyom/Desktop/Pico/pico-sdk/src/rp2_common/hardware_divider/divider.S.obj
LOAD CMakeFiles/nano_http_client.dir/C_/Users/yoyom/Desktop/Pico/pico-sdk/src/rp2_common/pico_runtime/runtime.c.obj
LOAD CMakeFiles/nano_http_client.dir/C_/Users/yoyom/Desktop/Pico/pico-sdk/src/rp2_common/pico_runtime_init/runtime_init.c.obj
LOAD CMakeFiles/nano_http_client.dir/C_/Users/yoyom/Desktop/Pico/pico-sdk/src/rp2_common/pico_runtime_init/runtime_init_clocks.c.obj
LOAD CMakeFiles/nano_http_client.dir/C_/Users/yoyom/Desktop/Pico/pico-sdk/src/rp2_common/pico_runtime_init/runtime_init_stack_guard.c.obj
LOAD CMakeFiles/nano_http_client.dir/C_/Users/yoyom/Desktop/Pico/pico-sdk/src/rp2_common/pico_bit_ops/bit_ops_aeabi.S.obj
LOAD CMakeFiles/nano_http_client.dir/C_/Users/yoyom/Desktop/Pico/pico-sdk/src/rp2_common/pico_divider/divider_hardware.S.obj
LOAD CMakeFiles/nano_http_client.dir/C_/Users/yoyom/Desktop/Pico/pico-sdk/src/rp2_common/pico_double/double_aeabi_rp2040.S.obj
LOAD CMakeFiles/nano_http_client.dir/C_/Users/yoyom/Desktop/Pico/pico-sdk/src/rp2_common/pico_double/double_init_rom_rp2040.c.obj
LOAD CMakeFiles/nano_http_client.dir/C_/Users/yoyom/Desktop/Pico/pico-sdk/src/rp2_common/pico_double/double_math.c.obj
LOAD CMakeFiles/nano_http_client.dir/C_/Users/yoyom/Desktop/Pico/pico-sdk/src/rp2_common/pico_double/double_v1_rom_shim_rp2040.S.obj
LOAD CMakeFiles/nano_http_client.dir/C_/Users/yoyom/Desktop/Pico/pico-sdk/src/rp2_common/pico_int64_ops/pico_int64_ops_aeabi.S.obj
LOAD CMakeFiles/nano_http_client.dir/C_/Users/yoyom/Desktop/Pico/pico-sdk/src/rp2_common/pico_float/float_aeabi_rp2040.S.obj
LOAD CMakeFiles/nano_http_client.dir/C_/Users/yoyom/Desktop/Pico/pico-sdk/src/rp2_common/pico_float/float_init_rom_rp2040.c.obj
LOAD CMakeFiles/nano_http_client.dir/C_/Users/yoyom/Desktop/Pico/pico-sdk/src/rp2_common/pico_float/float_math.c.obj
LOAD CMakeFiles/nano_http_client.dir/C_/Users/yoyom/Desktop/Pico/pico-sdk/src/rp2_common/pico_float/float_v1_rom_shim_rp2040.S.obj
LOAD CMakeFiles/nano_http_client.dir/C_/Users/yoyom/Desktop/Pico/pico-sdk/src/rp2_common/pico_malloc/malloc.c.obj
LOAD CMakeFiles/nano_http_client.dir/C_/Users/yoyom/Desktop/Pico/pico-sdk/src/rp2_common/pico_mem_ops/mem_ops_aeabi.S.obj
LOAD CMakeFiles/nano_http_client.dir/C_/Users/yoyom/Desktop/Pico/pico-sdk/src/rp2_common/pico_atomic/atomic.c.obj
LOAD CMakeFiles/nano_http_client.dir/C_/Users/yoyom/Desktop/Pico/pico-sdk/src/rp2_common/pico_cxx_options/new_delete.cpp.obj
LOAD CMakeFiles/nano_http_client.dir/C_/Users/yoyom/Desktop/Pico/pico-sdk/src/rp2_common/pico_standard_binary_info/standard_binary_info.c.obj
LOAD CMakeFiles/nano_http_client.dir/C_/Users/yoyom/Desktop/Pico/pico-sdk/src/rp2_common/pico_printf/printf.c.obj
LOAD CMakeFiles/nano_http_client.dir/C_/Users/yoyom/Desktop/Pico/pico-sdk/src/rp2_common/pico_crt0/crt0.S.obj
LOAD CMakeFiles/nano_http_client.dir/C_/Users/yoyom/Desktop/Pico/pico-sdk/src/rp2_common/pico_clib_interface/newlib_interface.c.obj
LOAD CMakeFiles/nano_http_client.dir/C_/Users/yoyom/Desktop/Pico/pico-sdk/src/rp2_common/pico_stdio/stdio.c.obj
LOAD CMakeFiles/nano_http_client.dir/C_/Users/yoyom/Desktop/Pico/pico-sdk/src/rp2_common/pico_stdio_usb/reset_interface.c.obj
LOAD CMakeFiles/nano_http_client.dir/C_/Users/yoyom/Desktop/Pico/pico-sdk/src/rp2_common/pico_stdio_usb/stdio_usb.c.obj
LOAD CMakeFiles/nano_http_client.dir/C_/Users/yoyom/Desktop/Pico/pico-sdk/src/rp2_common/pico_stdio_usb/stdio_usb_descriptors.c.obj
LOAD CMakeFiles/nano_http_client.dir/C_/Users/yoyom/Desktop/Pico/pico-sdk/src/rp2_common/pico_unique_id/unique_id.c.obj
LOAD CMakeFiles/nano_http_client.dir/C_/Users/yoyom/Desktop/Pico/pico-sdk/src/rp2_common/hardware_flash/flash.c.obj
LOAD CMakeFiles/nano_http_client.dir/C_/Users/yoyom/Desktop/Pico/pico-sdk/src/rp2_common/hardware_xip_cache/xip_cache.c.obj
LOAD CMakeFiles/nano_http_client.dir/C_/Users/yoyom/Desktop/Pico/pico-sdk/lib/tinyusb/src/portable/raspberrypi/rp2040/dcd_rp2040.c.obj
LOAD CMakeFiles/nano_http_client.dir/C_/Users/yoyom/Desktop/Pico/pico-sdk/lib/tinyusb/src/portable/raspberrypi/rp2040/rp2040_usb.c.obj
LOAD CMakeFiles/nano_http_client.dir/C_/Users/yoyom/Desktop/Pico/pico-sdk/lib/tinyusb/src/device/usbd.c.obj
LOAD CMakeFiles/nano_http_client.dir/C_/Users/yoyom/Desktop/Pico/pico-sdk/lib/tinyusb/src/device/usbd_control.c.obj
LOAD CMakeFiles/nano_http_client.dir/C_/Users/yoyom/Desktop/Pico/pico-sdk/lib/tinyusb/src/class/audio/audio_device.c.obj
LOAD CMakeFiles/nano_http_client.dir/C_/Users/yoyom/Desktop/Pico/pico-sdk/lib/tinyusb/src/class/cdc/cdc_device.c.obj
LOAD CMakeFiles/nano_http_client.dir/C_/Users/yoyom/Desktop/Pico/pico-sdk/lib/tinyusb/src/class/dfu/dfu_device.c.obj
LOAD CMakeFiles/nano_http_client.dir/C_/Users/yoyom/Desktop/Pico/pico-sdk/lib/tinyusb/src/class/dfu/dfu_rt_device.c.obj
LOAD CMakeFiles/nano_http_client.dir/C_/Users/yoyom/Desktop/Pico/pico-sdk/lib/tinyusb/src/class/hid/hid_device.c.obj
LOAD CMakeFiles/nano_http_client.dir/C_/Users/yoyom/Desktop/Pico/pico-sdk/lib/tinyusb/src/class/midi/midi_device.c.obj
LOAD CMakeFiles/nano_http_client.dir/C_/Users/yoyom/Desktop/Pico/pico-sdk/lib/tinyusb/src/class/msc/msc_device.c.obj
LOAD CMakeFiles/nano_http_client.dir/C_/Users/yoyom/Desktop/Pico/pico-sdk/lib/tinyusb/src/class/net/ecm_rndis_device.c.obj
LOAD CMakeFiles/nano_http_client.dir/C_/Users/yoyom/Desktop/Pico/pico-sdk/lib/tinyusb/src/class/net/ncm_device.c.obj
LOAD CMakeFiles/nano_http_client.dir/C_/Users/yoyom/Desktop/Pico/pico-sdk/lib/tinyusb/src/class/usbtmc/usbtmc_device.c.obj
LOAD CMakeFiles/nano_http_client.dir/C_/Users/yoyom/Desktop/Pico/pico-sdk/lib/tinyusb/src/class/vendor/vendor_device.c.obj
LOAD CMakeFiles/nano_http_client.dir/C_/Users/yoyom/Desktop/Pico/pico-sdk/lib/tinyusb/src/class/video/video_device.c.obj
LOAD CMakeFiles/nano_http_client.dir/C_/Users/yoyom/Desktop/Pico/pico-sdk/lib/tinyusb/src/tusb.c.obj
LOAD CMakeFiles/nano_http_client.dir/C_/Users/yoyom/Desktop/Pico/pico-sdk/lib/tinyusb/src/common/tusb_fifo.c.obj
LOAD CMakeFiles/nano_http_client.dir/C_/Users/yoyom/Desktop/Pico/pico-sdk/src/rp2_common/pico_fix/rp2040_usb_device_enumeration/rp2040_usb_device_enumeration.c.obj
LOAD CMakeFiles/nano_http_client.dir/C_/Users/yoyom/Desktop/Pico/pico-sdk/src/rp2_common/pico_rand/rand.c.obj
LOAD CMakeFiles/nano_http_client.dir/C_/Users/yoyom/Desktop/Pico/pico-sdk/lib/lwip/src/core/init.c.obj
LOAD CMakeFiles/nano_http_client.dir/C_/Users/yoyom/Desktop/Pico/pico-sdk/lib/lwip/src/core/def.c.obj
LOAD CMakeFiles/nano_http_client.dir/C_/Users/yoyom/Desktop/Pico/pico-sdk/lib/lwip/src/core/dns.c.obj
LOAD CMakeFiles/nano_http_client.dir/C_/Users/yoyom/Desktop/Pico/pico-sdk/lib/lwip/src/core/inet_chksum.c.obj
LOAD CMakeFiles/nano_http_client.dir/C_/Users/yoyom/Desktop/Pico/pico-sdk/lib/lwip/src/core/ip.c.obj
LOAD CMakeFiles/nano_http_client.dir/C_/Users/yoyom/Desktop/Pico/pico-sdk/lib/lwip/src/core/mem.c.obj
LOAD CMakeFiles/nano_http_client.dir/C_/Users/yoyom/Desktop/Pico/pico-sdk/lib/lwip/src/core/memp.c.obj
LOAD CMakeFiles/nano_http_client.dir/C_/Users/yoyom/Desktop/Pico/pico-sdk/lib/lwip/src/core/netif.c.obj
LOAD CMakeFiles/nano_http_client.dir/C_/Users/yoyom/Desktop/Pico/pico-sdk/lib/lwip/src/core/pbuf.c.obj
LOAD CMakeFiles/nano_http_client.dir/C_/Users/yoyom/Desktop/Pico/pico-sdk/lib/lwip/src/core/raw.c.obj
LOAD CMakeFiles/nano_http_client.dir/C_/Users/yoyom/Desktop/Pico/pico-sdk/lib/lwip/src/core/stats.c.obj
LOAD CMakeFiles/nano_http_client.dir/C_/Users/yoyom/Desktop/Pico/pico-sdk/lib/lwip/src/core/sys.c.obj
LOAD CMakeFiles/nano_http_client.dir/C_/Users/yoyom/Desktop/Pico/pico-sdk/lib/lwip/src/core/altcp.c.obj
LOAD CMakeFiles/nano_http_client.dir/C_/Users/yoyom/Desktop/Pico/pico-sdk/lib/lwip/src/core/altcp_alloc.c.obj
LOAD CMakeFiles/nano_http_client.dir/C_/Users/yoyom/Desktop/Pico/pico-sdk/lib/lwip/src/core/altcp_tcp.c.obj
LOAD CMakeFiles/nano_http_client.dir/C_/Users/yoyom/Desktop/Pico/pico-sdk/lib/lwip/src/core/tcp.c.obj
LOAD CMakeFiles/nano_http_client.dir/C_/Users/yoyom/Desktop/Pico/pico-sdk/lib/lwip/src/core/tcp_in.c.obj
LOAD CMakeFiles/nano_http_client.dir/C_/Users/yoyom/Desktop/Pico/pico-sdk/lib/lwip/src/core/tcp_out.c.obj
LOAD CMakeFiles/nano_http_client.dir/C_/Users/yoyom/Desktop/Pico/pico-sdk/lib/lwip/src/core/timeouts.c.obj
LOAD CMakeFiles/nano_http_client.dir/C_/Users/yoyom/Desktop/Pico/pico-sdk/lib/lwip/src/core/udp.c.obj
LOAD CMakeFiles/nano_http_client.dir/C_/Users/yoyom/Desktop/Pico/pico-sdk/lib/lwip/src/core/ipv4/autoip.c.obj
LOAD CMakeFiles/nano_http_client.dir/C_/Users/yoyom/Desktop/Pico/pico-sdk/lib/lwip/src/core/ipv4/dhcp.c.obj
LOAD CMakeFiles/nano_http_client.dir/C_/Users/yoyom/Desktop/Pico/pico-sdk/lib/lwip/src/core/ipv4/etharp.c.obj
LOAD CMakeFiles/nano_http_client.dir/C_/Users/yoyom/Desktop/Pico/pico-sdk/lib/lwip/src/core/ipv4/icmp.c.obj
LOAD CMakeFiles/nano_http_client.dir/C_/Users/yoyom/Desktop/Pico/pico-sdk/lib/lwip/src/core/ipv4/igmp.c.obj
LOAD CMakeFiles/nano_http_client.dir/C_/Users/yoyom/Desktop/Pico/pico-sdk/lib/lwip/src/core/ipv4/ip4_frag.c.obj
LOAD CMakeFiles/nano_http_client.dir/C_/Users/yoyom/Desktop/Pico/pico-sdk/lib/lwip/src/core/ipv4/ip4.c.obj
LOAD CMakeFiles/nano_http_client.dir/C_/Users/yoyom/Desktop/Pico/pico-sdk/lib/lwip/src/core/ipv4/ip4_addr.c.obj
LOAD CMakeFiles/nano_http_client.dir/C_/Users/yoyom/Desktop/Pico/pico-sdk/lib/lwip/src/core/ipv4/acd.c.obj
LOAD CMakeFiles/nano_http_client.dir/C_/Users/yoyom/Desktop/Pico/pico-sdk/lib/lwip/src/core/ipv6/dhcp6.c.obj
LOAD CMakeFiles/nano_http_client.dir/C_/Users/yoyom/Desktop/Pico/pico-sdk/lib/lwip/src/core/ipv6/ethip6.c.obj
LOAD CMakeFiles/nano_http_client.dir/C_/Users/yoyom/Desktop/Pico/pico-sdk/lib/lwip/src/core/ipv6/icmp6.c.obj
LOAD CMakeFiles/nano_http_client.dir/C_/Users/yoyom/Desktop/Pico/pico-sdk/lib/lwip/src/core/ipv6/inet6.c.obj
LOAD CMakeFiles/nano_http_client.dir/C_/Users/yoyom/Desktop/Pico/pico-sdk/lib/lwip/src/core/ipv6/ip6.c.obj
LOAD CMakeFiles/nano_http_client.dir/C_/Users/yoyom/Desktop/Pico/pico-sdk/lib/lwip/src/core/ipv6/ip6_addr.c.obj
LOAD CMakeFiles/nano_http_client.dir/C_/Users/yoyom/Desktop/Pico/pico-sdk/lib/lwip/src/core/ipv6/ip6_frag.c.obj
LOAD CMakeFiles/nano_http_client.dir/C_/Users/yoyom/Desktop/Pico/pico-sdk/lib/lwip/src/core/ipv6/mld6.c.obj
LOAD CMakeFiles/nano_http_client.dir/C_/Users/yoyom/Desktop/Pico/pico-sdk/lib/lwip/src/core/ipv6/nd6.c.obj
LOAD CMakeFiles/nano_http_client.dir/C_/Users/yoyom/Desktop/Pico/pico-sdk/lib/lwip/src/api/api_lib.c.obj
LOAD CMakeFiles/nano_http_client.dir/C_/Users/yoyom/Desktop/Pico/pico-sdk/lib/lwip/src/api/api_msg.c.obj
LOAD CMakeFiles/nano_http_client.dir/C_/Users/yoyom/Desktop/Pico/pico-sdk/lib/lwip/src/api/err.c.obj
LOAD CMakeFiles/nano_http_client.dir/C_/Users/yoyom/Desktop/Pico/pico-sdk/lib/lwip/src/api/if_api.c.obj
LOAD CMakeFiles/nano_http_client.dir/C_/Users/yoyom/Desktop/Pico/pico-sdk/lib/lwip/src/api/netbuf.c.obj
LOAD CMakeFiles/nano_http_client.dir/C_/Users/yoyom/Desktop/Pico/pico-sdk/lib/lwip/src/api/netdb.c.obj
LOAD CMakeFiles/nano_http_client.dir/C_/Users/yoyom/Desktop/Pico/pico-sdk/lib/lwip/src/api/netifapi.c.obj
LOAD CMakeFiles/nano_http_client.dir/C_/Users/yoyom/Desktop/Pico/pico-sdk/lib/lwip/src/api/sockets.c.obj
LOAD CMakeFiles/nano_http_client.dir/C_/Users/yoyom/Desktop/Pico/pico-sdk/lib/lwip/src/api/tcpip.c.obj
LOAD CMakeFiles/nano_http_client.dir/C_/Users/yoyom/Desktop/Pico/pico-sdk/lib/lwip/src/netif/ethernet.c.obj
LOAD CMakeFiles/nano_http_client.dir/C_/Users/yoyom/Desktop/Pico/pico-sdk/lib/lwip/src/netif/bridgeif.c.obj
LOAD CMakeFiles/nano_http_client.dir/C_/Users/yoyom/Desktop/Pico/pico-sdk/lib/lwip/src/netif/bridgeif_fdb.c.obj
LOAD CMakeFiles/nano_http_client.dir/C_/Users/yoyom/Desktop/Pico/pico-sdk/lib/lwip/src/netif/slipif.c.obj
LOAD CMakeFiles/nano_http_client.dir/C_/Users/yoyom/Desktop/Pico/pico-sdk/lib/lwip/src/netif/lowpan6_common.c.obj
LOAD CMakeFiles/nano_http_client.dir/C_/Users/yoyom/Desktop/Pico/pico-sdk/lib/lwip/src/netif/lowpan6.c.obj
LOAD CMakeFiles/nano_http_client.dir/C_/Users/yoyom/Desktop/Pico/pico-sdk/lib/lwip/src/netif/lowpan6_ble.c.obj
LOAD CMakeFiles/nano_http_client.dir/C_/Users/yoyom/Desktop/Pico/pico-sdk/lib/lwip/src/netif/zepif.c.obj
LOAD CMakeFiles/nano_http_client.dir/C_/Users/yoyom/Desktop/Pico/pico-sdk/lib/lwip/src/netif/ppp/auth.c.obj
LOAD CMakeFiles/nano_http_client.dir/C_/Users/yoyom/Desktop/Pico/pico-sdk/lib/lwip/src/netif/ppp/ccp.c.obj
LOAD CMakeFiles/nano_http_client.dir/C_/Users/yoyom/Desktop/Pico/pico-sdk/lib/lwip/src/netif/ppp/chap-md5.c.obj
LOAD CMakeFiles/nano_http_client.dir/C_/Users/yoyom/Desktop/Pico/pico-sdk/lib/lwip/src/netif/ppp/chap_ms.c.obj
LOAD CMakeFiles/nano_http_client.dir/C_/Users/yoyom/Desktop/Pico/pico-sdk/lib/lwip/src/netif/ppp/chap-new.c.obj
LOAD CMakeFiles/nano_http_client.dir/C_/Users/yoyom/Desktop/Pico/pico-sdk/lib/lwip/src/netif/ppp/demand.c.obj
LOAD CMakeFiles/nano_http_client.dir/C_/Users/yoyom/Desktop/Pico/pico-sdk/lib/lwip/src/netif/ppp/eap.c.obj
LOAD CMakeFiles/nano_http_client.dir/C_/Users/yoyom/Desktop/Pico/pico-sdk/lib/lwip/src/netif/ppp/ecp.c.obj
LOAD CMakeFiles/nano_http_client.dir/C_/Users/yoyom/Desktop/Pico/pico-sdk/lib/lwip/src/netif/ppp/eui64.c.obj
LOAD CMakeFiles/nano_http_client.dir/C_/Users/yoyom/Desktop/Pico/pico-sdk/lib/lwip/src/netif/ppp/fsm.c.obj
LOAD CMakeFiles/nano_http_client.dir/C_/Users/yoyom/Desktop/Pico/pico-sdk/lib/lwip/src/netif/ppp/ipcp.c.obj
LOAD CMakeFiles/nano_http_client.dir/C_/Users/yoyom/Desktop/Pico/pico-sdk/lib/lwip/src/netif/ppp/ipv6cp.c.obj
LOAD CMakeFiles/nano_http_client.dir/C_/Users/yoyom/Desktop/Pico/pico-sdk/lib/lwip/src/netif/ppp/lcp.c.obj
LOAD CMakeFiles/nano_http_client.dir/C_/Users/yoyom/Desktop/Pico/pico-sdk/lib/lwip/src/netif/ppp/magic.c.obj
LOAD CMakeFiles/nano_http_client.dir/C_/Users/yoyom/Desktop/Pico/pico-sdk/lib/lwip/src/netif/ppp/mppe.c.obj
LOAD CMakeFiles/nano_http_client.dir/C_/Users/yoyom/Desktop/Pico/pico-sdk/lib/lwip/src/netif/ppp/multilink.c.obj
LOAD CMakeFiles/nano_http_client.dir/C_/Users/yoyom/Desktop/Pico/pico-sdk/lib/lwip/src/netif/ppp/ppp.c.obj
LOAD CMakeFiles/nano_http_client.dir/C_/Users/yoyom/Desktop/Pico/pico-sdk/lib/lwip/src/netif/ppp/pppapi.c.obj
LOAD CMakeFiles/nano_http_client.dir/C_/Users/yoyom/Desktop/Pico/pico-sdk/lib/lwip/src/netif/ppp/pppcrypt.c.obj
LOAD CMakeFiles/nano_http_client.dir/C_/Users/yoyom/Desktop/Pico/pico-sdk/lib/lwip/src/netif/ppp/pppoe.c.obj
LOAD CMakeFiles/nano_http_client.dir/C_/Users/yoyom/Desktop/Pico/pico-sdk/lib/lwip/src/netif/ppp/pppol2tp.c.obj
LOAD CMakeFiles/nano_http_client.dir/C_/Users/yoyom/Desktop/Pico/pico-sdk/lib/lwip/src/netif/ppp/pppos.c.obj
LOAD CMakeFiles/nano_http_client.dir/C_/Users/yoyom/Desktop/Pico/pico-sdk/lib/lwip/src/netif/ppp/upap.c.obj
LOAD CMakeFiles/nano_http_client.dir/C_/Users/yoyom/Desktop/Pico/pico-sdk/lib/lwip/src/netif/ppp/utils.c.obj
LOAD CMakeFiles/nano_http_client.dir/C_/Users/yoyom/Desktop/Pico/pico-sdk/lib/lwip/src/netif/ppp/vj.c.obj
LOAD CMakeFiles/nano_http_client.dir/C_/Users/yoyom/Desktop/Pico/pico-sdk/lib/lwip/src/netif/ppp/polarssl/arc4.c.obj
LOAD CMakeFiles/nano_http_client.dir/C_/Users/yoyom/Desktop/Pico/pico-sdk/lib/lwip/src/netif/ppp/polarssl/des.c.obj
LOAD CMakeFiles/nano_http_client.dir/C_/Users/yoyom/Desktop/Pico/pico-sdk/lib/lwip/src/netif/ppp/polarssl/md4.c.obj
LOAD CMakeFiles/nano_http_client.dir/C_/Users/yoyom/Desktop/Pico/pico-sdk/lib/lwip/src/netif/ppp/polarssl/md5.c.obj
LOAD CMakeFiles/nano_http_client.dir/C_/Users/yoyom/Desktop/Pico/pico-sdk/lib/lwip/src/netif/ppp/polarssl/sha1.c.obj
LOAD CMakeFiles/nano_http_client.dir/C_/Users/yoyom/Desktop/Pico/pico-sdk/src/rp2_common/hardware_adc/adc.c.obj
LOAD pico-sdk/src/rp2040/boot_stage2/CMakeFiles/bs2_default_library.dir/./bs2_default_padded_checksummed.S.obj
LOAD c:/vsarm/armcc/102021~1.10/bin/../lib/gcc/arm-none-eabi/10.3.1/../../../../arm-none-eabi/lib/thumb/v6-m/nofp\libstdc++.a
LOAD c:/vsarm/armcc/102021~1.10/bin/../lib/gcc/arm-none-eabi/10.3.1/../../../../arm-none-eabi/lib/thumb/v6-m/nofp\libm.a
START GROUP
LOAD c:/vsarm/armcc/102021~1.10/bin/../lib/gcc/arm-none-eabi/10.3.1/thumb/v6-m/nofp\libgcc.a
LOAD c:/vsarm/armcc/102021~1.10/bin/../lib/gcc/arm-none-eabi/10.3.1/../../../../arm-none-eabi/lib/thumb/v6-m/nofp\libg.a
LOAD c:/vsarm/armcc/102021~1.10/bin/../lib/gcc/arm-none-eabi/10.3.1/../../../../arm-none-eabi/lib/thumb/v6-m/nofp\libc.a
END GROUP
START GROUP
LOAD c:/vsarm/armcc/102021~1.10/bin/../lib/gcc/arm-none-eabi/10.3.1/thumb/v6-m/nofp\libgcc.a
LOAD c:/vsarm/armcc/102021~1.10/bin/../lib/gcc/arm-none-eabi/10.3.1/../../../../arm-none-eabi/lib/thumb/v6-m/nofp\libc.a
LOAD c:/vsarm/armcc/102021~1.10/bin/../lib/gcc/arm-none-eabi/10.3.1/../../../../arm-none-eabi/lib/thumb/v6-m/nofp\libnosys.a
END GROUP
LOAD c:/vsarm/armcc/102021~1.10/bin/../lib/gcc/arm-none-eabi/10.3.1/thumb/v6-m/nofp/crtend.o
LOAD c:/vsarm/armcc/102021~1.10/bin/../lib/gcc/arm-none-eabi/10.3.1/thumb/v6-m/nofp/crtn.o
OUTPUT(nano_http_client.elf elf32-littlearm)
LOAD linker stubs

.ARM.attributes
                0x00000000       0x28
 .ARM.attributes
                0x00000000       0x1e c:/vsarm/armcc/102021~1.10/bin/../lib/gcc/arm-none-eabi/10.3.1/thumb/v6-m/nofp/crti.o
 .ARM.attributes
                0x0000001e       0x2c c:/vsarm/armcc/102021~1.10/bin/../lib/gcc/arm-none-eabi/10.3.1/thumb/v6-m/nofp/crtbegin.o
 .ARM.attributes
                0x0000004a       0x2c CMakeFiles/nano_http_client.dir/main.c.obj
 .ARM.attributes
                0x00000076       0x2c CMakeFiles/nano_http_client.dir/C_/Users/yoyom/Desktop/Pico/pico-sdk/src/rp2040/pico_platform/platform.c.obj
 .ARM.attributes
                0x000000a2       0x2c CMakeFiles/nano_http_client.dir/C_/Users/yoyom/Desktop/Pico/pico-sdk/src/rp2_common/pico_platform_panic/panic.c.obj
 .ARM.attributes
                0x000000ce       0x2c CMakeFiles/nano_http_client.dir/C_/Users/yoyom/Desktop/Pico/pico-sdk/src/common/hardware_claim/claim.c.obj
 .ARM.attributes
                0x000000fa       0x2c CMakeFiles/nano_http_client.dir/C_/Users/yoyom/Desktop/Pico/pico-sdk/src/rp2_common/hardware_sync/sync.c.obj
 .ARM.attributes
                0x00000126       0x2c CMakeFiles/nano_http_client.dir/C_/Users/yoyom/Desktop/Pico/pico-sdk/src/rp2_common/hardware_sync_spin_lock/sync_spin_lock.c.obj
 .ARM.attributes
                0x00000152       0x2c CMakeFiles/nano_http_client.dir/C_/Users/yoyom/Desktop/Pico/pico-sdk/src/rp2_common/hardware_irq/irq.c.obj
 .ARM.attributes
                0x0000017e       0x22 CMakeFiles/nano_http_client.dir/C_/Users/yoyom/Desktop/Pico/pico-sdk/src/rp2_common/hardware_irq/irq_handler_chain.S.obj
 .ARM.attributes
                0x000001a0       0x2c CMakeFiles/nano_http_client.dir/C_/Users/yoyom/Desktop/Pico/pico-sdk/src/common/pico_sync/lock_core.c.obj
 .ARM.attributes
                0x000001cc       0x2c CMakeFiles/nano_http_client.dir/C_/Users/yoyom/Desktop/Pico/pico-sdk/src/common/pico_sync/mutex.c.obj
 .ARM.attributes
                0x000001f8       0x2c CMakeFiles/nano_http_client.dir/C_/Users/yoyom/Desktop/Pico/pico-sdk/src/common/pico_sync/critical_section.c.obj
 .ARM.attributes
                0x00000224       0x2c CMakeFiles/nano_http_client.dir/C_/Users/yoyom/Desktop/Pico/pico-sdk/src/common/pico_time/time.c.obj
 .ARM.attributes
                0x00000250       0x2c CMakeFiles/nano_http_client.dir/C_/Users/yoyom/Desktop/Pico/pico-sdk/src/rp2_common/hardware_timer/timer.c.obj
 .ARM.attributes
                0x0000027c       0x2c CMakeFiles/nano_http_client.dir/C_/Users/yoyom/Desktop/Pico/pico-sdk/src/rp2_common/hardware_clocks/clocks.c.obj
 .ARM.attributes
                0x000002a8       0x2c CMakeFiles/nano_http_client.dir/C_/Users/yoyom/Desktop/Pico/pico-sdk/src/rp2_common/hardware_pll/pll.c.obj
 .ARM.attributes
                0x000002d4       0x2c CMakeFiles/nano_http_client.dir/C_/Users/yoyom/Desktop/Pico/pico-sdk/src/rp2_common/hardware_watchdog/watchdog.c.obj
 .ARM.attributes
                0x00000300       0x2c CMakeFiles/nano_http_client.dir/C_/Users/yoyom/Desktop/Pico/pico-sdk/src/rp2_common/hardware_ticks/ticks.c.obj
 .ARM.attributes
                0x0000032c       0x2c CMakeFiles/nano_http_client.dir/C_/Users/yoyom/Desktop/Pico/pico-sdk/src/rp2_common/pico_bootrom/bootrom.c.obj
 .ARM.attributes
                0x00000358       0x2c CMakeFiles/nano_http_client.dir/C_/Users/yoyom/Desktop/Pico/pico-sdk/src/rp2_common/hardware_xosc/xosc.c.obj
 .ARM.attributes
                0x00000384       0x2c CMakeFiles/nano_http_client.dir/C_/Users/yoyom/Desktop/Pico/pico-sdk/src/rp2_common/pico_runtime/runtime.c.obj
 .ARM.attributes
                0x000003b0       0x2c CMakeFiles/nano_http_client.dir/C_/Users/yoyom/Desktop/Pico/pico-sdk/src/rp2_common/pico_runtime_init/runtime_init.c.obj
 .ARM.attributes
                0x000003dc       0x2c CMakeFiles/nano_http_client.dir/C_/Users/yoyom/Desktop/Pico/pico-sdk/src/rp2_common/pico_runtime_init/runtime_init_clocks.c.obj
 .ARM.attributes
                0x00000408       0x22 CMakeFiles/nano_http_client.dir/C_/Users/yoyom/Desktop/Pico/pico-sdk/src/rp2_common/pico_bit_ops/bit_ops_aeabi.S.obj
 .ARM.attributes
                0x0000042a       0x22 CMakeFiles/nano_http_client.dir/C_/Users/yoyom/Desktop/Pico/pico-sdk/src/rp2_common/pico_divider/divider_hardware.S.obj
 .ARM.attributes
                0x0000044c       0x22 CMakeFiles/nano_http_client.dir/C_/Users/yoyom/Desktop/Pico/pico-sdk/src/rp2_common/pico_double/double_aeabi_rp2040.S.obj
 .ARM.attributes
                0x0000046e       0x2c CMakeFiles/nano_http_client.dir/C_/Users/yoyom/Desktop/Pico/pico-sdk/src/rp2_common/pico_double/double_init_rom_rp2040.c.obj
 .ARM.attributes
                0x0000049a       0x22 CMakeFiles/nano_http_client.dir/C_/Users/yoyom/Desktop/Pico/pico-sdk/src/rp2_common/pico_double/double_v1_rom_shim_rp2040.S.obj
 .ARM.attributes
                0x000004bc       0x22 CMakeFiles/nano_http_client.dir/C_/Users/yoyom/Desktop/Pico/pico-sdk/src/rp2_common/pico_int64_ops/pico_int64_ops_aeabi.S.obj
 .ARM.attributes
                0x000004de       0x22 CMakeFiles/nano_http_client.dir/C_/Users/yoyom/Desktop/Pico/pico-sdk/src/rp2_common/pico_float/float_aeabi_rp2040.S.obj
 .ARM.attributes
                0x00000500       0x2c CMakeFiles/nano_http_client.dir/C_/Users/yoyom/Desktop/Pico/pico-sdk/src/rp2_common/pico_float/float_init_rom_rp2040.c.obj
 .ARM.attributes
                0x0000052c       0x22 CMakeFiles/nano_http_client.dir/C_/Users/yoyom/Desktop/Pico/pico-sdk/src/rp2_common/pico_mem_ops/mem_ops_aeabi.S.obj
 .ARM.attributes
                0x0000054e       0x2c CMakeFiles/nano_http_client.dir/C_/Users/yoyom/Desktop/Pico/pico-sdk/src/rp2_common/pico_standard_binary_info/standard_binary_info.c.obj
 .ARM.attributes
                0x0000057a       0x2c CMakeFiles/nano_http_client.dir/C_/Users/yoyom/Desktop/Pico/pico-sdk/src/rp2_common/pico_printf/printf.c.obj
 .ARM.attributes
                0x000005a6       0x22 CMakeFiles/nano_http_client.dir/C_/Users/yoyom/Desktop/Pico/pico-sdk/src/rp2_common/pico_crt0/crt0.S.obj
 .ARM.attributes
                0x000005c8       0x2c CMakeFiles/nano_http_client.dir/C_/Users/yoyom/Desktop/Pico/pico-sdk/src/rp2_common/pico_clib_interface/newlib_interface.c.obj
 .ARM.attributes
                0x000005f4       0x2c CMakeFiles/nano_http_client.dir/C_/Users/yoyom/Desktop/Pico/pico-sdk/src/rp2_common/pico_stdio/stdio.c.obj
 .ARM.attributes
                0x00000620       0x2c CMakeFiles/nano_http_client.dir/C_/Users/yoyom/Desktop/Pico/pico-sdk/src/rp2_common/pico_stdio_usb/reset_interface.c.obj
 .ARM.attributes
                0x0000064c       0x2c CMakeFiles/nano_http_client.dir/C_/Users/yoyom/Desktop/Pico/pico-sdk/src/rp2_common/pico_stdio_usb/stdio_usb.c.obj
 .ARM.attributes
                0x00000678       0x2c CMakeFiles/nano_http_client.dir/C_/Users/yoyom/Desktop/Pico/pico-sdk/src/rp2_common/pico_stdio_usb/stdio_usb_descriptors.c.obj
 .ARM.attributes
                0x000006a4       0x2c CMakeFiles/nano_http_client.dir/C_/Users/yoyom/Desktop/Pico/pico-sdk/src/rp2_common/pico_unique_id/unique_id.c.obj
 .ARM.attributes
                0x000006d0       0x2c CMakeFiles/nano_http_client.dir/C_/Users/yoyom/Desktop/Pico/pico-sdk/src/rp2_common/hardware_flash/flash.c.obj
 .ARM.attributes
                0x000006fc       0x2c CMakeFiles/nano_http_client.dir/C_/Users/yoyom/Desktop/Pico/pico-sdk/lib/tinyusb/src/portable/raspberrypi/rp2040/dcd_rp2040.c.obj
 .ARM.attributes
                0x00000728       0x2c CMakeFiles/nano_http_client.dir/C_/Users/yoyom/Desktop/Pico/pico-sdk/lib/tinyusb/src/portable/raspberrypi/rp2040/rp2040_usb.c.obj
 .ARM.attributes
                0x00000754       0x2c CMakeFiles/nano_http_client.dir/C_/Users/yoyom/Desktop/Pico/pico-sdk/lib/tinyusb/src/device/usbd.c.obj
 .ARM.attributes
                0x00000780       0x2c CMakeFiles/nano_http_client.dir/C_/Users/yoyom/Desktop/Pico/pico-sdk/lib/tinyusb/src/device/usbd_control.c.obj
 .ARM.attributes
                0x000007ac       0x2c CMakeFiles/nano_http_client.dir/C_/Users/yoyom/Desktop/Pico/pico-sdk/lib/tinyusb/src/class/cdc/cdc_device.c.obj
 .ARM.attributes
                0x000007d8       0x2c CMakeFiles/nano_http_client.dir/C_/Users/yoyom/Desktop/Pico/pico-sdk/lib/tinyusb/src/class/vendor/vendor_device.c.obj
 .ARM.attributes
                0x00000804       0x2c CMakeFiles/nano_http_client.dir/C_/Users/yoyom/Desktop/Pico/pico-sdk/lib/tinyusb/src/tusb.c.obj
 .ARM.attributes
                0x00000830       0x2c CMakeFiles/nano_http_client.dir/C_/Users/yoyom/Desktop/Pico/pico-sdk/lib/tinyusb/src/common/tusb_fifo.c.obj
 .ARM.attributes
                0x0000085c       0x2c CMakeFiles/nano_http_client.dir/C_/Users/yoyom/Desktop/Pico/pico-sdk/lib/lwip/src/core/def.c.obj
 .ARM.attributes
                0x00000888       0x2c CMakeFiles/nano_http_client.dir/C_/Users/yoyom/Desktop/Pico/pico-sdk/lib/lwip/src/core/inet_chksum.c.obj
 .ARM.attributes
                0x000008b4       0x2c CMakeFiles/nano_http_client.dir/C_/Users/yoyom/Desktop/Pico/pico-sdk/lib/lwip/src/core/mem.c.obj
 .ARM.attributes
                0x000008e0       0x2c CMakeFiles/nano_http_client.dir/C_/Users/yoyom/Desktop/Pico/pico-sdk/lib/lwip/src/core/memp.c.obj
 .ARM.attributes
                0x0000090c       0x2c CMakeFiles/nano_http_client.dir/C_/Users/yoyom/Desktop/Pico/pico-sdk/lib/lwip/src/core/netif.c.obj
 .ARM.attributes
                0x00000938       0x2c CMakeFiles/nano_http_client.dir/C_/Users/yoyom/Desktop/Pico/pico-sdk/lib/lwip/src/core/pbuf.c.obj
 .ARM.attributes
                0x00000964       0x2c CMakeFiles/nano_http_client.dir/C_/Users/yoyom/Desktop/Pico/pico-sdk/lib/lwip/src/core/stats.c.obj
 .ARM.attributes
                0x00000990       0x2c CMakeFiles/nano_http_client.dir/C_/Users/yoyom/Desktop/Pico/pico-sdk/lib/lwip/src/core/tcp.c.obj
 .ARM.attributes
                0x000009bc       0x2c CMakeFiles/nano_http_client.dir/C_/Users/yoyom/Desktop/Pico/pico-sdk/lib/lwip/src/core/tcp_in.c.obj
 .ARM.attributes
                0x000009e8       0x2c CMakeFiles/nano_http_client.dir/C_/Users/yoyom/Desktop/Pico/pico-sdk/lib/lwip/src/core/tcp_out.c.obj
 .ARM.attributes
                0x00000a14       0x2c CMakeFiles/nano_http_client.dir/C_/Users/yoyom/Desktop/Pico/pico-sdk/lib/lwip/src/core/timeouts.c.obj
 .ARM.attributes
                0x00000a40       0x2c CMakeFiles/nano_http_client.dir/C_/Users/yoyom/Desktop/Pico/pico-sdk/lib/lwip/src/core/ipv4/ip4_frag.c.obj
 .ARM.attributes
                0x00000a6c       0x2c CMakeFiles/nano_http_client.dir/C_/Users/yoyom/Desktop/Pico/pico-sdk/lib/lwip/src/core/ipv4/ip4.c.obj
 .ARM.attributes
                0x00000a98       0x2c CMakeFiles/nano_http_client.dir/C_/Users/yoyom/Desktop/Pico/pico-sdk/lib/lwip/src/core/ipv4/ip4_addr.c.obj
 .ARM.attributes
                0x00000ac4       0x22 pico-sdk/src/rp2040/boot_stage2/CMakeFiles/bs2_default_library.dir/./bs2_default_padded_checksummed.S.obj
 .ARM.attributes
                0x00000ae6       0x1e c:/vsarm/armcc/102021~1.10/bin/../lib/gcc/arm-none-eabi/10.3.1/thumb/v6-m/nofp\libgcc.a(_dvmd_tls.o)
 .ARM.attributes
                0x00000b04       0x2c c:/vsarm/armcc/102021~1.10/bin/../lib/gcc/arm-none-eabi/10.3.1/../../../../arm-none-eabi/lib/thumb/v6-m/nofp\libg.a(lib_a-ctype_.o)
 .ARM.attributes
                0x00000b30       0x2c c:/vsarm/armcc/102021~1.10/bin/../lib/gcc/arm-none-eabi/10.3.1/../../../../arm-none-eabi/lib/thumb/v6-m/nofp\libg.a(lib_a-strlen-stub.o)

.comment        0x00000000       0x49
 .comment       0x00000000       0x49 CMakeFiles/nano_http_client.dir/main.c.obj
                                 0x4a (size before relaxing)
 .comment       0x00000049       0x4a CMakeFiles/nano_http_client.dir/C_/Users/yoyom/Desktop/Pico/pico-sdk/src/rp2040/pico_platform/platform.c.obj
 .comment       0x00000049       0x4a CMakeFiles/nano_http_client.dir/C_/Users/yoyom/Desktop/Pico/pico-sdk/src/rp2_common/pico_platform_panic/panic.c.obj
 .comment       0x00000049       0x4a CMakeFiles/nano_http_client.dir/C_/Users/yoyom/Desktop/Pico/pico-sdk/src/common/hardware_claim/claim.c.obj
 .comment       0x00000049       0x4a CMakeFiles/nano_http_client.dir/C_/Users/yoyom/Desktop/Pico/pico-sdk/src/rp2_common/hardware_sync/sync.c.obj
 .comment       0x00000049       0x4a CMakeFiles/nano_http_client.dir/C_/Users/yoyom/Desktop/Pico/pico-sdk/src/rp2_common/hardware_sync_spin_lock/sync_spin_lock.c.obj
 .comment       0x00000049       0x4a CMakeFiles/nano_http_client.dir/C_/Users/yoyom/Desktop/Pico/pico-sdk/src/rp2_common/hardware_irq/irq.c.obj
 .comment       0x00000049       0x4a CMakeFiles/nano_http_client.dir/C_/Users/yoyom/Desktop/Pico/pico-sdk/src/common/pico_sync/lock_core.c.obj
 .comment       0x00000049       0x4a CMakeFiles/nano_http_client.dir/C_/Users/yoyom/Desktop/Pico/pico-sdk/src/common/pico_sync/mutex.c.obj
 .comment       0x00000049       0x4a CMakeFiles/nano_http_client.dir/C_/Users/yoyom/Desktop/Pico/pico-sdk/src/common/pico_sync/critical_section.c.obj
 .comment       0x00000049       0x4a CMakeFiles/nano_http_client.dir/C_/Users/yoyom/Desktop/Pico/pico-sdk/src/common/pico_time/time.c.obj
 .comment       0x00000049       0x4a CMakeFiles/nano_http_client.dir/C_/Users/yoyom/Desktop/Pico/pico-sdk/src/rp2_common/hardware_timer/timer.c.obj
 .comment       0x00000049       0x4a CMakeFiles/nano_http_client.dir/C_/Users/yoyom/Desktop/Pico/pico-sdk/src/rp2_common/hardware_clocks/clocks.c.obj
 .comment       0x00000049       0x4a CMakeFiles/nano_http_client.dir/C_/Users/yoyom/Desktop/Pico/pico-sdk/src/rp2_common/hardware_pll/pll.c.obj
 .comment       0x00000049       0x4a CMakeFiles/nano_http_client.dir/C_/Users/yoyom/Desktop/Pico/pico-sdk/src/rp2_common/hardware_watchdog/watchdog.c.obj
 .comment       0x00000049       0x4a CMakeFiles/nano_http_client.dir/C_/Users/yoyom/Desktop/Pico/pico-sdk/src/rp2_common/hardware_ticks/ticks.c.obj
 .comment       0x00000049       0x4a CMakeFiles/nano_http_client.dir/C_/Users/yoyom/Desktop/Pico/pico-sdk/src/rp2_common/pico_bootrom/bootrom.c.obj
 .comment       0x00000049       0x4a CMakeFiles/nano_http_client.dir/C_/Users/yoyom/Desktop/Pico/pico-sdk/src/rp2_common/hardware_xosc/xosc.c.obj
 .comment       0x00000049       0x4a CMakeFiles/nano_http_client.dir/C_/Users/yoyom/Desktop/Pico/pico-sdk/src/rp2_common/pico_runtime/runtime.c.obj
 .comment       0x00000049       0x4a CMakeFiles/nano_http_client.dir/C_/Users/yoyom/Desktop/Pico/pico-sdk/src/rp2_common/pico_runtime_init/runtime_init.c.obj
 .comment       0x00000049       0x4a CMakeFiles/nano_http_client.dir/C_/Users/yoyom/Desktop/Pico/pico-sdk/src/rp2_common/pico_runtime_init/runtime_init_clocks.c.obj
 .comment       0x00000049       0x4a CMakeFiles/nano_http_client.dir/C_/Users/yoyom/Desktop/Pico/pico-sdk/src/rp2_common/pico_double/double_init_rom_rp2040.c.obj
 .comment       0x00000049       0x4a CMakeFiles/nano_http_client.dir/C_/Users/yoyom/Desktop/Pico/pico-sdk/src/rp2_common/pico_float/float_init_rom_rp2040.c.obj
 .comment       0x00000049       0x4a CMakeFiles/nano_http_client.dir/C_/Users/yoyom/Desktop/Pico/pico-sdk/src/rp2_common/pico_standard_binary_info/standard_binary_info.c.obj
 .comment       0x00000049       0x4a CMakeFiles/nano_http_client.dir/C_/Users/yoyom/Desktop/Pico/pico-sdk/src/rp2_common/pico_printf/printf.c.obj
 .comment       0x00000049       0x4a CMakeFiles/nano_http_client.dir/C_/Users/yoyom/Desktop/Pico/pico-sdk/src/rp2_common/pico_clib_interface/newlib_interface.c.obj
 .comment       0x00000049       0x4a CMakeFiles/nano_http_client.dir/C_/Users/yoyom/Desktop/Pico/pico-sdk/src/rp2_common/pico_stdio/stdio.c.obj
 .comment       0x00000049       0x4a CMakeFiles/nano_http_client.dir/C_/Users/yoyom/Desktop/Pico/pico-sdk/src/rp2_common/pico_stdio_usb/reset_interface.c.obj
 .comment       0x00000049       0x4a CMakeFiles/nano_http_client.dir/C_/Users/yoyom/Desktop/Pico/pico-sdk/src/rp2_common/pico_stdio_usb/stdio_usb.c.obj
 .comment       0x00000049       0x4a CMakeFiles/nano_http_client.dir/C_/Users/yoyom/Desktop/Pico/pico-sdk/src/rp2_common/pico_stdio_usb/stdio_usb_descriptors.c.obj
 .comment       0x00000049       0x4a CMakeFiles/nano_http_client.dir/C_/Users/yoyom/Desktop/Pico/pico-sdk/src/rp2_common/pico_unique_id/unique_id.c.obj
 .comment       0x00000049       0x4a CMakeFiles/nano_http_client.dir/C_/Users/yoyom/Desktop/Pico/pico-sdk/src/rp2_common/hardware_flash/flash.c.obj
 .comment       0x00000049       0x4a CMakeFiles/nano_http_client.dir/C_/Users/yoyom/Desktop/Pico/pico-sdk/lib/tinyusb/src/portable/raspberrypi/rp2040/dcd_rp2040.c.obj
 .comment       0x00000049       0x4a CMakeFiles/nano_http_client.dir/C_/Users/yoyom/Desktop/Pico/pico-sdk/lib/tinyusb/src/portable/raspberrypi/rp2040/rp2040_usb.c.obj
 .comment       0x00000049       0x4a CMakeFiles/nano_http_client.dir/C_/Users/yoyom/Desktop/Pico/pico-sdk/lib/tinyusb/src/device/usbd.c.obj
 .comment       0x00000049       0x4a CMakeFiles/nano_http_client.dir/C_/Users/yoyom/Desktop/Pico/pico-sdk/lib/tinyusb/src/device/usbd_control.c.obj
 .comment       0x00000049       0x4a CMakeFiles/nano_http_client.dir/C_/Users/yoyom/Desktop/Pico/pico-sdk/lib/tinyusb/src/class/cdc/cdc_device.c.obj
 .comment       0x00000049       0x4a CMakeFiles/nano_http_client.dir/C_/Users/yoyom/Desktop/Pico/pico-sdk/lib/tinyusb/src/class/vendor/vendor_device.c.obj
 .comment       0x00000049       0x4a CMakeFiles/nano_http_client.dir/C_/Users/yoyom/Desktop/Pico/pico-sdk/lib/tinyusb/src/tusb.c.obj
 .comment       0x00000049       0x4a CMakeFiles/nano_http_client.dir/C_/Users/yoyom/Desktop/Pico/pico-sdk/lib/tinyusb/src/common/tusb_fifo.c.obj
 .comment       0x00000049       0x4a CMakeFiles/nano_http_client.dir/C_/Users/yoyom/Desktop/Pico/pico-sdk/lib/lwip/src/core/def.c.obj
 .comment       0x00000049       0x4a CMakeFiles/nano_http_client.dir/C_/Users/yoyom/Desktop/Pico/pico-sdk/lib/lwip/src/core/inet_chksum.c.obj
 .comment       0x00000049       0x4a CMakeFiles/nano_http_client.dir/C_/Users/yoyom/Desktop/Pico/pico-sdk/lib/lwip/src/core/mem.c.obj
 .comment       0x00000049       0x4a CMakeFiles/nano_http_client.dir/C_/Users/yoyom/Desktop/Pico/pico-sdk/lib/lwip/src/core/memp.c.obj
 .comment       0x00000049       0x4a CMakeFiles/nano_http_client.dir/C_/Users/yoyom/Desktop/Pico/pico-sdk/lib/lwip/src/core/netif.c.obj
 .comment       0x00000049       0x4a CMakeFiles/nano_http_client.dir/C_/Users/yoyom/Desktop/Pico/pico-sdk/lib/lwip/src/core/pbuf.c.obj
 .comment       0x00000049       0x4a CMakeFiles/nano_http_client.dir/C_/Users/yoyom/Desktop/Pico/pico-sdk/lib/lwip/src/core/stats.c.obj
 .comment       0x00000049       0x4a CMakeFiles/nano_http_client.dir/C_/Users/yoyom/Desktop/Pico/pico-sdk/lib/lwip/src/core/tcp.c.obj
 .comment       0x00000049       0x4a CMakeFiles/nano_http_client.dir/C_/Users/yoyom/Desktop/Pico/pico-sdk/lib/lwip/src/core/tcp_in.c.obj
 .comment       0x00000049       0x4a CMakeFiles/nano_http_client.dir/C_/Users/yoyom/Desktop/Pico/pico-sdk/lib/lwip/src/core/tcp_out.c.obj
 .comment       0x00000049       0x4a CMakeFiles/nano_http_client.dir/C_/Users/yoyom/Desktop/Pico/pico-sdk/lib/lwip/src/core/timeouts.c.obj
 .comment       0x00000049       0x4a CMakeFiles/nano_http_client.dir/C_/Users/yoyom/Desktop/Pico/pico-sdk/lib/lwip/src/core/ipv4/ip4_frag.c.obj
 .comment       0x00000049       0x4a CMakeFiles/nano_http_client.dir/C_/Users/yoyom/Desktop/Pico/pico-sdk/lib/lwip/src/core/ipv4/ip4.c.obj
 .comment       0x00000049       0x4a CMakeFiles/nano_http_client.dir/C_/Users/yoyom/Desktop/Pico/pico-sdk/lib/lwip/src/core/ipv4/ip4_addr.c.obj

.debug_info     0x00000000    0x415e9
 .debug_info    0x00000000     0x1301 CMakeFiles/nano_http_client.dir/main.c.obj
 .debug_info    0x00001301      0x12c CMakeFiles/nano_http_client.dir/C_/Users/yoyom/Desktop/Pico/pico-sdk/src/rp2040/pico_platform/platform.c.obj
 .debug_info    0x0000142d      0x19c CMakeFiles/nano_http_client.dir/C_/Users/yoyom/Desktop/Pico/pico-sdk/src/rp2_common/pico_platform_panic/panic.c.obj
 .debug_info    0x000015c9      0xa51 CMakeFiles/nano_http_client.dir/C_/Users/yoyom/Desktop/Pico/pico-sdk/src/common/hardware_claim/claim.c.obj
 .debug_info    0x0000201a      0x3f5 CMakeFiles/nano_http_client.dir/C_/Users/yoyom/Desktop/Pico/pico-sdk/src/rp2_common/hardware_sync/sync.c.obj
 .debug_info    0x0000240f      0x24e CMakeFiles/nano_http_client.dir/C_/Users/yoyom/Desktop/Pico/pico-sdk/src/rp2_common/hardware_sync_spin_lock/sync_spin_lock.c.obj
 .debug_info    0x0000265d     0x2242 CMakeFiles/nano_http_client.dir/C_/Users/yoyom/Desktop/Pico/pico-sdk/src/rp2_common/hardware_irq/irq.c.obj
 .debug_info    0x0000489f      0x160 CMakeFiles/nano_http_client.dir/C_/Users/yoyom/Desktop/Pico/pico-sdk/src/common/pico_sync/lock_core.c.obj
 .debug_info    0x000049ff     0x2adf CMakeFiles/nano_http_client.dir/C_/Users/yoyom/Desktop/Pico/pico-sdk/src/common/pico_sync/mutex.c.obj
 .debug_info    0x000074de      0x310 CMakeFiles/nano_http_client.dir/C_/Users/yoyom/Desktop/Pico/pico-sdk/src/common/pico_sync/critical_section.c.obj
 .debug_info    0x000077ee     0x4a0c CMakeFiles/nano_http_client.dir/C_/Users/yoyom/Desktop/Pico/pico-sdk/src/common/pico_time/time.c.obj
 .debug_info    0x0000c1fa     0x2afe CMakeFiles/nano_http_client.dir/C_/Users/yoyom/Desktop/Pico/pico-sdk/src/rp2_common/hardware_timer/timer.c.obj
 .debug_info    0x0000ecf8     0x2926 CMakeFiles/nano_http_client.dir/C_/Users/yoyom/Desktop/Pico/pico-sdk/src/rp2_common/hardware_clocks/clocks.c.obj
 .debug_info    0x0001161e      0x511 CMakeFiles/nano_http_client.dir/C_/Users/yoyom/Desktop/Pico/pico-sdk/src/rp2_common/hardware_pll/pll.c.obj
 .debug_info    0x00011b2f      0x8e3 CMakeFiles/nano_http_client.dir/C_/Users/yoyom/Desktop/Pico/pico-sdk/src/rp2_common/hardware_watchdog/watchdog.c.obj
 .debug_info    0x00012412      0x25a CMakeFiles/nano_http_client.dir/C_/Users/yoyom/Desktop/Pico/pico-sdk/src/rp2_common/hardware_ticks/ticks.c.obj
 .debug_info    0x0001266c      0x4c8 CMakeFiles/nano_http_client.dir/C_/Users/yoyom/Desktop/Pico/pico-sdk/src/rp2_common/pico_bootrom/bootrom.c.obj
 .debug_info    0x00012b34      0x1dd CMakeFiles/nano_http_client.dir/C_/Users/yoyom/Desktop/Pico/pico-sdk/src/rp2_common/hardware_xosc/xosc.c.obj
 .debug_info    0x00012d11      0x214 CMakeFiles/nano_http_client.dir/C_/Users/yoyom/Desktop/Pico/pico-sdk/src/rp2_common/pico_runtime/runtime.c.obj
 .debug_info    0x00012f25      0x7dc CMakeFiles/nano_http_client.dir/C_/Users/yoyom/Desktop/Pico/pico-sdk/src/rp2_common/pico_runtime_init/runtime_init.c.obj
 .debug_info    0x00013701      0x719 CMakeFiles/nano_http_client.dir/C_/Users/yoyom/Desktop/Pico/pico-sdk/src/rp2_common/pico_runtime_init/runtime_init_clocks.c.obj
 .debug_info    0x00013e1a       0x22 CMakeFiles/nano_http_client.dir/C_/Users/yoyom/Desktop/Pico/pico-sdk/src/rp2_common/pico_bit_ops/bit_ops_aeabi.S.obj
 .debug_info    0x00013e3c       0x22 CMakeFiles/nano_http_client.dir/C_/Users/yoyom/Desktop/Pico/pico-sdk/src/rp2_common/pico_divider/divider_hardware.S.obj
 .debug_info    0x00013e5e       0x22 CMakeFiles/nano_http_client.dir/C_/Users/yoyom/Desktop/Pico/pico-sdk/src/rp2_common/pico_double/double_aeabi_rp2040.S.obj
 .debug_info    0x00013e80      0x272 CMakeFiles/nano_http_client.dir/C_/Users/yoyom/Desktop/Pico/pico-sdk/src/rp2_common/pico_double/double_init_rom_rp2040.c.obj
 .debug_info    0x000140f2       0x26 CMakeFiles/nano_http_client.dir/C_/Users/yoyom/Desktop/Pico/pico-sdk/src/rp2_common/pico_double/double_v1_rom_shim_rp2040.S.obj
 .debug_info    0x00014118       0x26 CMakeFiles/nano_http_client.dir/C_/Users/yoyom/Desktop/Pico/pico-sdk/src/rp2_common/pico_int64_ops/pico_int64_ops_aeabi.S.obj
 .debug_info    0x0001413e       0x22 CMakeFiles/nano_http_client.dir/C_/Users/yoyom/Desktop/Pico/pico-sdk/src/rp2_common/pico_float/float_aeabi_rp2040.S.obj
 .debug_info    0x00014160      0x26a CMakeFiles/nano_http_client.dir/C_/Users/yoyom/Desktop/Pico/pico-sdk/src/rp2_common/pico_float/float_init_rom_rp2040.c.obj
 .debug_info    0x000143ca       0x22 CMakeFiles/nano_http_client.dir/C_/Users/yoyom/Desktop/Pico/pico-sdk/src/rp2_common/pico_mem_ops/mem_ops_aeabi.S.obj
 .debug_info    0x000143ec      0x2fb CMakeFiles/nano_http_client.dir/C_/Users/yoyom/Desktop/Pico/pico-sdk/src/rp2_common/pico_standard_binary_info/standard_binary_info.c.obj
 .debug_info    0x000146e7     0x21c9 CMakeFiles/nano_http_client.dir/C_/Users/yoyom/Desktop/Pico/pico-sdk/src/rp2_common/pico_printf/printf.c.obj
 .debug_info    0x000168b0       0x22 CMakeFiles/nano_http_client.dir/C_/Users/yoyom/Desktop/Pico/pico-sdk/src/rp2_common/pico_crt0/crt0.S.obj
 .debug_info    0x000168d2      0xb4e CMakeFiles/nano_http_client.dir/C_/Users/yoyom/Desktop/Pico/pico-sdk/src/rp2_common/pico_clib_interface/newlib_interface.c.obj
 .debug_info    0x00017420     0x1ba4 CMakeFiles/nano_http_client.dir/C_/Users/yoyom/Desktop/Pico/pico-sdk/src/rp2_common/pico_stdio/stdio.c.obj
 .debug_info    0x00018fc4      0xaa4 CMakeFiles/nano_http_client.dir/C_/Users/yoyom/Desktop/Pico/pico-sdk/src/rp2_common/pico_stdio_usb/reset_interface.c.obj
 .debug_info    0x00019a68     0x1d31 CMakeFiles/nano_http_client.dir/C_/Users/yoyom/Desktop/Pico/pico-sdk/src/rp2_common/pico_stdio_usb/stdio_usb.c.obj
 .debug_info    0x0001b799      0x6a4 CMakeFiles/nano_http_client.dir/C_/Users/yoyom/Desktop/Pico/pico-sdk/src/rp2_common/pico_stdio_usb/stdio_usb_descriptors.c.obj
 .debug_info    0x0001be3d      0x1f7 CMakeFiles/nano_http_client.dir/C_/Users/yoyom/Desktop/Pico/pico-sdk/src/rp2_common/pico_unique_id/unique_id.c.obj
 .debug_info    0x0001c034      0xfe8 CMakeFiles/nano_http_client.dir/C_/Users/yoyom/Desktop/Pico/pico-sdk/src/rp2_common/hardware_flash/flash.c.obj
 .debug_info    0x0001d01c     0x271b CMakeFiles/nano_http_client.dir/C_/Users/yoyom/Desktop/Pico/pico-sdk/lib/tinyusb/src/portable/raspberrypi/rp2040/dcd_rp2040.c.obj
 .debug_info    0x0001f737     0x1199 CMakeFiles/nano_http_client.dir/C_/Users/yoyom/Desktop/Pico/pico-sdk/lib/tinyusb/src/portable/raspberrypi/rp2040/rp2040_usb.c.obj
 .debug_info    0x000208d0     0x4730 CMakeFiles/nano_http_client.dir/C_/Users/yoyom/Desktop/Pico/pico-sdk/lib/tinyusb/src/device/usbd.c.obj
 .debug_info    0x00025000      0xb06 CMakeFiles/nano_http_client.dir/C_/Users/yoyom/Desktop/Pico/pico-sdk/lib/tinyusb/src/device/usbd_control.c.obj
 .debug_info    0x00025b06     0x1e58 CMakeFiles/nano_http_client.dir/C_/Users/yoyom/Desktop/Pico/pico-sdk/lib/tinyusb/src/class/cdc/cdc_device.c.obj
 .debug_info    0x0002795e     0x1485 CMakeFiles/nano_http_client.dir/C_/Users/yoyom/Desktop/Pico/pico-sdk/lib/tinyusb/src/class/vendor/vendor_device.c.obj
 .debug_info    0x00028de3     0x166c CMakeFiles/nano_http_client.dir/C_/Users/yoyom/Desktop/Pico/pico-sdk/lib/tinyusb/src/tusb.c.obj
 .debug_info    0x0002a44f     0x290a CMakeFiles/nano_http_client.dir/C_/Users/yoyom/Desktop/Pico/pico-sdk/lib/tinyusb/src/common/tusb_fifo.c.obj
 .debug_info    0x0002cd59      0x5ab CMakeFiles/nano_http_client.dir/C_/Users/yoyom/Desktop/Pico/pico-sdk/lib/lwip/src/core/def.c.obj
 .debug_info    0x0002d304      0x879 CMakeFiles/nano_http_client.dir/C_/Users/yoyom/Desktop/Pico/pico-sdk/lib/lwip/src/core/inet_chksum.c.obj
 .debug_info    0x0002db7d      0xa62 CMakeFiles/nano_http_client.dir/C_/Users/yoyom/Desktop/Pico/pico-sdk/lib/lwip/src/core/mem.c.obj
 .debug_info    0x0002e5df      0x8cc CMakeFiles/nano_http_client.dir/C_/Users/yoyom/Desktop/Pico/pico-sdk/lib/lwip/src/core/memp.c.obj
 .debug_info    0x0002eeab     0x16b3 CMakeFiles/nano_http_client.dir/C_/Users/yoyom/Desktop/Pico/pico-sdk/lib/lwip/src/core/netif.c.obj
 .debug_info    0x0003055e     0x342b CMakeFiles/nano_http_client.dir/C_/Users/yoyom/Desktop/Pico/pico-sdk/lib/lwip/src/core/pbuf.c.obj
 .debug_info    0x00033989      0x21a CMakeFiles/nano_http_client.dir/C_/Users/yoyom/Desktop/Pico/pico-sdk/lib/lwip/src/core/stats.c.obj
 .debug_info    0x00033ba3     0x4112 CMakeFiles/nano_http_client.dir/C_/Users/yoyom/Desktop/Pico/pico-sdk/lib/lwip/src/core/tcp.c.obj
 .debug_info    0x00037cb5     0x2439 CMakeFiles/nano_http_client.dir/C_/Users/yoyom/Desktop/Pico/pico-sdk/lib/lwip/src/core/tcp_in.c.obj
 .debug_info    0x0003a0ee     0x3478 CMakeFiles/nano_http_client.dir/C_/Users/yoyom/Desktop/Pico/pico-sdk/lib/lwip/src/core/tcp_out.c.obj
 .debug_info    0x0003d566     0x10b9 CMakeFiles/nano_http_client.dir/C_/Users/yoyom/Desktop/Pico/pico-sdk/lib/lwip/src/core/timeouts.c.obj
 .debug_info    0x0003e61f     0x13d4 CMakeFiles/nano_http_client.dir/C_/Users/yoyom/Desktop/Pico/pico-sdk/lib/lwip/src/core/ipv4/ip4_frag.c.obj
 .debug_info    0x0003f9f3     0x1306 CMakeFiles/nano_http_client.dir/C_/Users/yoyom/Desktop/Pico/pico-sdk/lib/lwip/src/core/ipv4/ip4.c.obj
 .debug_info    0x00040cf9      0x8f0 CMakeFiles/nano_http_client.dir/C_/Users/yoyom/Desktop/Pico/pico-sdk/lib/lwip/src/core/ipv4/ip4_addr.c.obj

.debug_abbrev   0x00000000     0xa8f5
 .debug_abbrev  0x00000000      0x326 CMakeFiles/nano_http_client.dir/main.c.obj
 .debug_abbrev  0x00000326       0x77 CMakeFiles/nano_http_client.dir/C_/Users/yoyom/Desktop/Pico/pico-sdk/src/rp2040/pico_platform/platform.c.obj
 .debug_abbrev  0x0000039d       0xf4 CMakeFiles/nano_http_client.dir/C_/Users/yoyom/Desktop/Pico/pico-sdk/src/rp2_common/pico_platform_panic/panic.c.obj
 .debug_abbrev  0x00000491      0x2e6 CMakeFiles/nano_http_client.dir/C_/Users/yoyom/Desktop/Pico/pico-sdk/src/common/hardware_claim/claim.c.obj
 .debug_abbrev  0x00000777      0x1de CMakeFiles/nano_http_client.dir/C_/Users/yoyom/Desktop/Pico/pico-sdk/src/rp2_common/hardware_sync/sync.c.obj
 .debug_abbrev  0x00000955      0x1b2 CMakeFiles/nano_http_client.dir/C_/Users/yoyom/Desktop/Pico/pico-sdk/src/rp2_common/hardware_sync_spin_lock/sync_spin_lock.c.obj
 .debug_abbrev  0x00000b07      0x588 CMakeFiles/nano_http_client.dir/C_/Users/yoyom/Desktop/Pico/pico-sdk/src/rp2_common/hardware_irq/irq.c.obj
 .debug_abbrev  0x0000108f       0xee CMakeFiles/nano_http_client.dir/C_/Users/yoyom/Desktop/Pico/pico-sdk/src/common/pico_sync/lock_core.c.obj
 .debug_abbrev  0x0000117d      0x413 CMakeFiles/nano_http_client.dir/C_/Users/yoyom/Desktop/Pico/pico-sdk/src/common/pico_sync/mutex.c.obj
 .debug_abbrev  0x00001590      0x1ae CMakeFiles/nano_http_client.dir/C_/Users/yoyom/Desktop/Pico/pico-sdk/src/common/pico_sync/critical_section.c.obj
 .debug_abbrev  0x0000173e      0x606 CMakeFiles/nano_http_client.dir/C_/Users/yoyom/Desktop/Pico/pico-sdk/src/common/pico_time/time.c.obj
 .debug_abbrev  0x00001d44      0x49d CMakeFiles/nano_http_client.dir/C_/Users/yoyom/Desktop/Pico/pico-sdk/src/rp2_common/hardware_timer/timer.c.obj
 .debug_abbrev  0x000021e1      0x49f CMakeFiles/nano_http_client.dir/C_/Users/yoyom/Desktop/Pico/pico-sdk/src/rp2_common/hardware_clocks/clocks.c.obj
 .debug_abbrev  0x00002680      0x1c6 CMakeFiles/nano_http_client.dir/C_/Users/yoyom/Desktop/Pico/pico-sdk/src/rp2_common/hardware_pll/pll.c.obj
 .debug_abbrev  0x00002846      0x25a CMakeFiles/nano_http_client.dir/C_/Users/yoyom/Desktop/Pico/pico-sdk/src/rp2_common/hardware_watchdog/watchdog.c.obj
 .debug_abbrev  0x00002aa0      0x141 CMakeFiles/nano_http_client.dir/C_/Users/yoyom/Desktop/Pico/pico-sdk/src/rp2_common/hardware_ticks/ticks.c.obj
 .debug_abbrev  0x00002be1      0x1d9 CMakeFiles/nano_http_client.dir/C_/Users/yoyom/Desktop/Pico/pico-sdk/src/rp2_common/pico_bootrom/bootrom.c.obj
 .debug_abbrev  0x00002dba      0x118 CMakeFiles/nano_http_client.dir/C_/Users/yoyom/Desktop/Pico/pico-sdk/src/rp2_common/hardware_xosc/xosc.c.obj
 .debug_abbrev  0x00002ed2      0x16c CMakeFiles/nano_http_client.dir/C_/Users/yoyom/Desktop/Pico/pico-sdk/src/rp2_common/pico_runtime/runtime.c.obj
 .debug_abbrev  0x0000303e      0x20c CMakeFiles/nano_http_client.dir/C_/Users/yoyom/Desktop/Pico/pico-sdk/src/rp2_common/pico_runtime_init/runtime_init.c.obj
 .debug_abbrev  0x0000324a      0x246 CMakeFiles/nano_http_client.dir/C_/Users/yoyom/Desktop/Pico/pico-sdk/src/rp2_common/pico_runtime_init/runtime_init_clocks.c.obj
 .debug_abbrev  0x00003490       0x12 CMakeFiles/nano_http_client.dir/C_/Users/yoyom/Desktop/Pico/pico-sdk/src/rp2_common/pico_bit_ops/bit_ops_aeabi.S.obj
 .debug_abbrev  0x000034a2       0x12 CMakeFiles/nano_http_client.dir/C_/Users/yoyom/Desktop/Pico/pico-sdk/src/rp2_common/pico_divider/divider_hardware.S.obj
 .debug_abbrev  0x000034b4       0x12 CMakeFiles/nano_http_client.dir/C_/Users/yoyom/Desktop/Pico/pico-sdk/src/rp2_common/pico_double/double_aeabi_rp2040.S.obj
 .debug_abbrev  0x000034c6      0x179 CMakeFiles/nano_http_client.dir/C_/Users/yoyom/Desktop/Pico/pico-sdk/src/rp2_common/pico_double/double_init_rom_rp2040.c.obj
 .debug_abbrev  0x0000363f       0x14 CMakeFiles/nano_http_client.dir/C_/Users/yoyom/Desktop/Pico/pico-sdk/src/rp2_common/pico_double/double_v1_rom_shim_rp2040.S.obj
 .debug_abbrev  0x00003653       0x14 CMakeFiles/nano_http_client.dir/C_/Users/yoyom/Desktop/Pico/pico-sdk/src/rp2_common/pico_int64_ops/pico_int64_ops_aeabi.S.obj
 .debug_abbrev  0x00003667       0x12 CMakeFiles/nano_http_client.dir/C_/Users/yoyom/Desktop/Pico/pico-sdk/src/rp2_common/pico_float/float_aeabi_rp2040.S.obj
 .debug_abbrev  0x00003679      0x166 CMakeFiles/nano_http_client.dir/C_/Users/yoyom/Desktop/Pico/pico-sdk/src/rp2_common/pico_float/float_init_rom_rp2040.c.obj
 .debug_abbrev  0x000037df       0x12 CMakeFiles/nano_http_client.dir/C_/Users/yoyom/Desktop/Pico/pico-sdk/src/rp2_common/pico_mem_ops/mem_ops_aeabi.S.obj
 .debug_abbrev  0x000037f1       0xad CMakeFiles/nano_http_client.dir/C_/Users/yoyom/Desktop/Pico/pico-sdk/src/rp2_common/pico_standard_binary_info/standard_binary_info.c.obj
 .debug_abbrev  0x0000389e      0x517 CMakeFiles/nano_http_client.dir/C_/Users/yoyom/Desktop/Pico/pico-sdk/src/rp2_common/pico_printf/printf.c.obj
 .debug_abbrev  0x00003db5       0x12 CMakeFiles/nano_http_client.dir/C_/Users/yoyom/Desktop/Pico/pico-sdk/src/rp2_common/pico_crt0/crt0.S.obj
 .debug_abbrev  0x00003dc7      0x315 CMakeFiles/nano_http_client.dir/C_/Users/yoyom/Desktop/Pico/pico-sdk/src/rp2_common/pico_clib_interface/newlib_interface.c.obj
 .debug_abbrev  0x000040dc      0x58d CMakeFiles/nano_http_client.dir/C_/Users/yoyom/Desktop/Pico/pico-sdk/src/rp2_common/pico_stdio/stdio.c.obj
 .debug_abbrev  0x00004669      0x37e CMakeFiles/nano_http_client.dir/C_/Users/yoyom/Desktop/Pico/pico-sdk/src/rp2_common/pico_stdio_usb/reset_interface.c.obj
 .debug_abbrev  0x000049e7      0x515 CMakeFiles/nano_http_client.dir/C_/Users/yoyom/Desktop/Pico/pico-sdk/src/rp2_common/pico_stdio_usb/stdio_usb.c.obj
 .debug_abbrev  0x00004efc      0x161 CMakeFiles/nano_http_client.dir/C_/Users/yoyom/Desktop/Pico/pico-sdk/src/rp2_common/pico_stdio_usb/stdio_usb_descriptors.c.obj
 .debug_abbrev  0x0000505d      0x14d CMakeFiles/nano_http_client.dir/C_/Users/yoyom/Desktop/Pico/pico-sdk/src/rp2_common/pico_unique_id/unique_id.c.obj
 .debug_abbrev  0x000051aa      0x359 CMakeFiles/nano_http_client.dir/C_/Users/yoyom/Desktop/Pico/pico-sdk/src/rp2_common/hardware_flash/flash.c.obj
 .debug_abbrev  0x00005503      0x53d CMakeFiles/nano_http_client.dir/C_/Users/yoyom/Desktop/Pico/pico-sdk/lib/tinyusb/src/portable/raspberrypi/rp2040/dcd_rp2040.c.obj
 .debug_abbrev  0x00005a40      0x44f CMakeFiles/nano_http_client.dir/C_/Users/yoyom/Desktop/Pico/pico-sdk/lib/tinyusb/src/portable/raspberrypi/rp2040/rp2040_usb.c.obj
 .debug_abbrev  0x00005e8f      0x6fd CMakeFiles/nano_http_client.dir/C_/Users/yoyom/Desktop/Pico/pico-sdk/lib/tinyusb/src/device/usbd.c.obj
 .debug_abbrev  0x0000658c      0x324 CMakeFiles/nano_http_client.dir/C_/Users/yoyom/Desktop/Pico/pico-sdk/lib/tinyusb/src/device/usbd_control.c.obj
 .debug_abbrev  0x000068b0      0x4e4 CMakeFiles/nano_http_client.dir/C_/Users/yoyom/Desktop/Pico/pico-sdk/lib/tinyusb/src/class/cdc/cdc_device.c.obj
 .debug_abbrev  0x00006d94      0x42d CMakeFiles/nano_http_client.dir/C_/Users/yoyom/Desktop/Pico/pico-sdk/lib/tinyusb/src/class/vendor/vendor_device.c.obj
 .debug_abbrev  0x000071c1      0x43c CMakeFiles/nano_http_client.dir/C_/Users/yoyom/Desktop/Pico/pico-sdk/lib/tinyusb/src/tusb.c.obj
 .debug_abbrev  0x000075fd      0x3f3 CMakeFiles/nano_http_client.dir/C_/Users/yoyom/Desktop/Pico/pico-sdk/lib/tinyusb/src/common/tusb_fifo.c.obj
 .debug_abbrev  0x000079f0      0x1e4 CMakeFiles/nano_http_client.dir/C_/Users/yoyom/Desktop/Pico/pico-sdk/lib/lwip/src/core/def.c.obj
 .debug_abbrev  0x00007bd4      0x23a CMakeFiles/nano_http_client.dir/C_/Users/yoyom/Desktop/Pico/pico-sdk/lib/lwip/src/core/inet_chksum.c.obj
 .debug_abbrev  0x00007e0e      0x262 CMakeFiles/nano_http_client.dir/C_/Users/yoyom/Desktop/Pico/pico-sdk/lib/lwip/src/core/mem.c.obj
 .debug_abbrev  0x00008070      0x2d3 CMakeFiles/nano_http_client.dir/C_/Users/yoyom/Desktop/Pico/pico-sdk/lib/lwip/src/core/memp.c.obj
 .debug_abbrev  0x00008343      0x463 CMakeFiles/nano_http_client.dir/C_/Users/yoyom/Desktop/Pico/pico-sdk/lib/lwip/src/core/netif.c.obj
 .debug_abbrev  0x000087a6      0x495 CMakeFiles/nano_http_client.dir/C_/Users/yoyom/Desktop/Pico/pico-sdk/lib/lwip/src/core/pbuf.c.obj
 .debug_abbrev  0x00008c3b       0xcf CMakeFiles/nano_http_client.dir/C_/Users/yoyom/Desktop/Pico/pico-sdk/lib/lwip/src/core/stats.c.obj
 .debug_abbrev  0x00008d0a      0x569 CMakeFiles/nano_http_client.dir/C_/Users/yoyom/Desktop/Pico/pico-sdk/lib/lwip/src/core/tcp.c.obj
 .debug_abbrev  0x00009273      0x409 CMakeFiles/nano_http_client.dir/C_/Users/yoyom/Desktop/Pico/pico-sdk/lib/lwip/src/core/tcp_in.c.obj
 .debug_abbrev  0x0000967c      0x479 CMakeFiles/nano_http_client.dir/C_/Users/yoyom/Desktop/Pico/pico-sdk/lib/lwip/src/core/tcp_out.c.obj
 .debug_abbrev  0x00009af5      0x424 CMakeFiles/nano_http_client.dir/C_/Users/yoyom/Desktop/Pico/pico-sdk/lib/lwip/src/core/timeouts.c.obj
 .debug_abbrev  0x00009f19      0x3c0 CMakeFiles/nano_http_client.dir/C_/Users/yoyom/Desktop/Pico/pico-sdk/lib/lwip/src/core/ipv4/ip4_frag.c.obj
 .debug_abbrev  0x0000a2d9      0x32d CMakeFiles/nano_http_client.dir/C_/Users/yoyom/Desktop/Pico/pico-sdk/lib/lwip/src/core/ipv4/ip4.c.obj
 .debug_abbrev  0x0000a606      0x2ef CMakeFiles/nano_http_client.dir/C_/Users/yoyom/Desktop/Pico/pico-sdk/lib/lwip/src/core/ipv4/ip4_addr.c.obj

.debug_loc      0x00000000    0x36d7f
 .debug_loc     0x00000000      0x507 CMakeFiles/nano_http_client.dir/main.c.obj
 .debug_loc     0x00000507       0x73 CMakeFiles/nano_http_client.dir/C_/Users/yoyom/Desktop/Pico/pico-sdk/src/rp2040/pico_platform/platform.c.obj
 .debug_loc     0x0000057a      0x6c7 CMakeFiles/nano_http_client.dir/C_/Users/yoyom/Desktop/Pico/pico-sdk/src/common/hardware_claim/claim.c.obj
 .debug_loc     0x00000c41      0x154 CMakeFiles/nano_http_client.dir/C_/Users/yoyom/Desktop/Pico/pico-sdk/src/rp2_common/hardware_sync/sync.c.obj
 .debug_loc     0x00000d95       0xb5 CMakeFiles/nano_http_client.dir/C_/Users/yoyom/Desktop/Pico/pico-sdk/src/rp2_common/hardware_sync_spin_lock/sync_spin_lock.c.obj
 .debug_loc     0x00000e4a     0x1df4 CMakeFiles/nano_http_client.dir/C_/Users/yoyom/Desktop/Pico/pico-sdk/src/rp2_common/hardware_irq/irq.c.obj
 .debug_loc     0x00002c3e       0x4d CMakeFiles/nano_http_client.dir/C_/Users/yoyom/Desktop/Pico/pico-sdk/src/common/pico_sync/lock_core.c.obj
 .debug_loc     0x00002c8b     0x1b8e CMakeFiles/nano_http_client.dir/C_/Users/yoyom/Desktop/Pico/pico-sdk/src/common/pico_sync/mutex.c.obj
 .debug_loc     0x00004819      0x119 CMakeFiles/nano_http_client.dir/C_/Users/yoyom/Desktop/Pico/pico-sdk/src/common/pico_sync/critical_section.c.obj
 .debug_loc     0x00004932     0x400a CMakeFiles/nano_http_client.dir/C_/Users/yoyom/Desktop/Pico/pico-sdk/src/common/pico_time/time.c.obj
 .debug_loc     0x0000893c     0x2553 CMakeFiles/nano_http_client.dir/C_/Users/yoyom/Desktop/Pico/pico-sdk/src/rp2_common/hardware_timer/timer.c.obj
 .debug_loc     0x0000ae8f     0x31ea CMakeFiles/nano_http_client.dir/C_/Users/yoyom/Desktop/Pico/pico-sdk/src/rp2_common/hardware_clocks/clocks.c.obj
 .debug_loc     0x0000e079      0x28f CMakeFiles/nano_http_client.dir/C_/Users/yoyom/Desktop/Pico/pico-sdk/src/rp2_common/hardware_pll/pll.c.obj
 .debug_loc     0x0000e308      0x6fd CMakeFiles/nano_http_client.dir/C_/Users/yoyom/Desktop/Pico/pico-sdk/src/rp2_common/hardware_watchdog/watchdog.c.obj
 .debug_loc     0x0000ea05       0x57 CMakeFiles/nano_http_client.dir/C_/Users/yoyom/Desktop/Pico/pico-sdk/src/rp2_common/hardware_ticks/ticks.c.obj
 .debug_loc     0x0000ea5c      0x4a4 CMakeFiles/nano_http_client.dir/C_/Users/yoyom/Desktop/Pico/pico-sdk/src/rp2_common/pico_bootrom/bootrom.c.obj
 .debug_loc     0x0000ef00       0x71 CMakeFiles/nano_http_client.dir/C_/Users/yoyom/Desktop/Pico/pico-sdk/src/rp2_common/hardware_xosc/xosc.c.obj
 .debug_loc     0x0000ef71       0xbc CMakeFiles/nano_http_client.dir/C_/Users/yoyom/Desktop/Pico/pico-sdk/src/rp2_common/pico_runtime/runtime.c.obj
 .debug_loc     0x0000f02d      0x11c CMakeFiles/nano_http_client.dir/C_/Users/yoyom/Desktop/Pico/pico-sdk/src/rp2_common/pico_runtime_init/runtime_init.c.obj
 .debug_loc     0x0000f149       0xa7 CMakeFiles/nano_http_client.dir/C_/Users/yoyom/Desktop/Pico/pico-sdk/src/rp2_common/pico_runtime_init/runtime_init_clocks.c.obj
 .debug_loc     0x0000f1f0       0x44 CMakeFiles/nano_http_client.dir/C_/Users/yoyom/Desktop/Pico/pico-sdk/src/rp2_common/pico_double/double_init_rom_rp2040.c.obj
 .debug_loc     0x0000f234       0x74 CMakeFiles/nano_http_client.dir/C_/Users/yoyom/Desktop/Pico/pico-sdk/src/rp2_common/pico_float/float_init_rom_rp2040.c.obj
 .debug_loc     0x0000f2a8     0x3c08 CMakeFiles/nano_http_client.dir/C_/Users/yoyom/Desktop/Pico/pico-sdk/src/rp2_common/pico_printf/printf.c.obj
 .debug_loc     0x00012eb0      0x5b1 CMakeFiles/nano_http_client.dir/C_/Users/yoyom/Desktop/Pico/pico-sdk/src/rp2_common/pico_clib_interface/newlib_interface.c.obj
 .debug_loc     0x00013461     0x1563 CMakeFiles/nano_http_client.dir/C_/Users/yoyom/Desktop/Pico/pico-sdk/src/rp2_common/pico_stdio/stdio.c.obj
 .debug_loc     0x000149c4      0x362 CMakeFiles/nano_http_client.dir/C_/Users/yoyom/Desktop/Pico/pico-sdk/src/rp2_common/pico_stdio_usb/reset_interface.c.obj
 .debug_loc     0x00014d26      0xd60 CMakeFiles/nano_http_client.dir/C_/Users/yoyom/Desktop/Pico/pico-sdk/src/rp2_common/pico_stdio_usb/stdio_usb.c.obj
 .debug_loc     0x00015a86       0xed CMakeFiles/nano_http_client.dir/C_/Users/yoyom/Desktop/Pico/pico-sdk/src/rp2_common/pico_stdio_usb/stdio_usb_descriptors.c.obj
 .debug_loc     0x00015b73      0x4aa CMakeFiles/nano_http_client.dir/C_/Users/yoyom/Desktop/Pico/pico-sdk/src/rp2_common/pico_unique_id/unique_id.c.obj
 .debug_loc     0x0001601d      0xba9 CMakeFiles/nano_http_client.dir/C_/Users/yoyom/Desktop/Pico/pico-sdk/src/rp2_common/hardware_flash/flash.c.obj
 .debug_loc     0x00016bc6     0x1d56 CMakeFiles/nano_http_client.dir/C_/Users/yoyom/Desktop/Pico/pico-sdk/lib/tinyusb/src/portable/raspberrypi/rp2040/dcd_rp2040.c.obj
 .debug_loc     0x0001891c      0xba4 CMakeFiles/nano_http_client.dir/C_/Users/yoyom/Desktop/Pico/pico-sdk/lib/tinyusb/src/portable/raspberrypi/rp2040/rp2040_usb.c.obj
 .debug_loc     0x000194c0     0x3273 CMakeFiles/nano_http_client.dir/C_/Users/yoyom/Desktop/Pico/pico-sdk/lib/tinyusb/src/device/usbd.c.obj
 .debug_loc     0x0001c733      0x616 CMakeFiles/nano_http_client.dir/C_/Users/yoyom/Desktop/Pico/pico-sdk/lib/tinyusb/src/device/usbd_control.c.obj
 .debug_loc     0x0001cd49      0xed8 CMakeFiles/nano_http_client.dir/C_/Users/yoyom/Desktop/Pico/pico-sdk/lib/tinyusb/src/class/cdc/cdc_device.c.obj
 .debug_loc     0x0001dc21      0xa14 CMakeFiles/nano_http_client.dir/C_/Users/yoyom/Desktop/Pico/pico-sdk/lib/tinyusb/src/class/vendor/vendor_device.c.obj
 .debug_loc     0x0001e635     0x10e2 CMakeFiles/nano_http_client.dir/C_/Users/yoyom/Desktop/Pico/pico-sdk/lib/tinyusb/src/tusb.c.obj
 .debug_loc     0x0001f717     0x3187 CMakeFiles/nano_http_client.dir/C_/Users/yoyom/Desktop/Pico/pico-sdk/lib/tinyusb/src/common/tusb_fifo.c.obj
 .debug_loc     0x0002289e      0x9b2 CMakeFiles/nano_http_client.dir/C_/Users/yoyom/Desktop/Pico/pico-sdk/lib/lwip/src/core/def.c.obj
 .debug_loc     0x00023250      0xb57 CMakeFiles/nano_http_client.dir/C_/Users/yoyom/Desktop/Pico/pico-sdk/lib/lwip/src/core/inet_chksum.c.obj
 .debug_loc     0x00023da7      0xa51 CMakeFiles/nano_http_client.dir/C_/Users/yoyom/Desktop/Pico/pico-sdk/lib/lwip/src/core/mem.c.obj
 .debug_loc     0x000247f8      0x59b CMakeFiles/nano_http_client.dir/C_/Users/yoyom/Desktop/Pico/pico-sdk/lib/lwip/src/core/memp.c.obj
 .debug_loc     0x00024d93     0x11b3 CMakeFiles/nano_http_client.dir/C_/Users/yoyom/Desktop/Pico/pico-sdk/lib/lwip/src/core/netif.c.obj
 .debug_loc     0x00025f46     0x4445 CMakeFiles/nano_http_client.dir/C_/Users/yoyom/Desktop/Pico/pico-sdk/lib/lwip/src/core/pbuf.c.obj
 .debug_loc     0x0002a38b     0x3e90 CMakeFiles/nano_http_client.dir/C_/Users/yoyom/Desktop/Pico/pico-sdk/lib/lwip/src/core/tcp.c.obj
 .debug_loc     0x0002e21b     0x17e9 CMakeFiles/nano_http_client.dir/C_/Users/yoyom/Desktop/Pico/pico-sdk/lib/lwip/src/core/tcp_in.c.obj
 .debug_loc     0x0002fa04     0x3a01 CMakeFiles/nano_http_client.dir/C_/Users/yoyom/Desktop/Pico/pico-sdk/lib/lwip/src/core/tcp_out.c.obj
 .debug_loc     0x00033405      0x7eb CMakeFiles/nano_http_client.dir/C_/Users/yoyom/Desktop/Pico/pico-sdk/lib/lwip/src/core/timeouts.c.obj
 .debug_loc     0x00033bf0     0x154a CMakeFiles/nano_http_client.dir/C_/Users/yoyom/Desktop/Pico/pico-sdk/lib/lwip/src/core/ipv4/ip4_frag.c.obj
 .debug_loc     0x0003513a     0x1231 CMakeFiles/nano_http_client.dir/C_/Users/yoyom/Desktop/Pico/pico-sdk/lib/lwip/src/core/ipv4/ip4.c.obj
 .debug_loc     0x0003636b      0xa14 CMakeFiles/nano_http_client.dir/C_/Users/yoyom/Desktop/Pico/pico-sdk/lib/lwip/src/core/ipv4/ip4_addr.c.obj

.debug_aranges  0x00000000     0x1ab0
 .debug_aranges
                0x00000000       0x40 CMakeFiles/nano_http_client.dir/main.c.obj
 .debug_aranges
                0x00000040       0x20 CMakeFiles/nano_http_client.dir/C_/Users/yoyom/Desktop/Pico/pico-sdk/src/rp2040/pico_platform/platform.c.obj
 .debug_aranges
                0x00000060       0x28 CMakeFiles/nano_http_client.dir/C_/Users/yoyom/Desktop/Pico/pico-sdk/src/rp2_common/pico_platform_panic/panic.c.obj
 .debug_aranges
                0x00000088       0x48 CMakeFiles/nano_http_client.dir/C_/Users/yoyom/Desktop/Pico/pico-sdk/src/common/hardware_claim/claim.c.obj
 .debug_aranges
                0x000000d0       0x48 CMakeFiles/nano_http_client.dir/C_/Users/yoyom/Desktop/Pico/pico-sdk/src/rp2_common/hardware_sync/sync.c.obj
 .debug_aranges
                0x00000118       0x28 CMakeFiles/nano_http_client.dir/C_/Users/yoyom/Desktop/Pico/pico-sdk/src/rp2_common/hardware_sync_spin_lock/sync_spin_lock.c.obj
 .debug_aranges
                0x00000140       0xb0 CMakeFiles/nano_http_client.dir/C_/Users/yoyom/Desktop/Pico/pico-sdk/src/rp2_common/hardware_irq/irq.c.obj
 .debug_aranges
                0x000001f0       0x20 CMakeFiles/nano_http_client.dir/C_/Users/yoyom/Desktop/Pico/pico-sdk/src/common/pico_sync/lock_core.c.obj
 .debug_aranges
                0x00000210       0x98 CMakeFiles/nano_http_client.dir/C_/Users/yoyom/Desktop/Pico/pico-sdk/src/common/pico_sync/mutex.c.obj
 .debug_aranges
                0x000002a8       0x30 CMakeFiles/nano_http_client.dir/C_/Users/yoyom/Desktop/Pico/pico-sdk/src/common/pico_sync/critical_section.c.obj
 .debug_aranges
                0x000002d8       0xe0 CMakeFiles/nano_http_client.dir/C_/Users/yoyom/Desktop/Pico/pico-sdk/src/common/pico_time/time.c.obj
 .debug_aranges
                0x000003b8       0xf0 CMakeFiles/nano_http_client.dir/C_/Users/yoyom/Desktop/Pico/pico-sdk/src/rp2_common/hardware_timer/timer.c.obj
 .debug_aranges
                0x000004a8       0x90 CMakeFiles/nano_http_client.dir/C_/Users/yoyom/Desktop/Pico/pico-sdk/src/rp2_common/hardware_clocks/clocks.c.obj
 .debug_aranges
                0x00000538       0x28 CMakeFiles/nano_http_client.dir/C_/Users/yoyom/Desktop/Pico/pico-sdk/src/rp2_common/hardware_pll/pll.c.obj
 .debug_aranges
                0x00000560       0x60 CMakeFiles/nano_http_client.dir/C_/Users/yoyom/Desktop/Pico/pico-sdk/src/rp2_common/hardware_watchdog/watchdog.c.obj
 .debug_aranges
                0x000005c0       0x30 CMakeFiles/nano_http_client.dir/C_/Users/yoyom/Desktop/Pico/pico-sdk/src/rp2_common/hardware_ticks/ticks.c.obj
 .debug_aranges
                0x000005f0       0x40 CMakeFiles/nano_http_client.dir/C_/Users/yoyom/Desktop/Pico/pico-sdk/src/rp2_common/pico_bootrom/bootrom.c.obj
 .debug_aranges
                0x00000630       0x30 CMakeFiles/nano_http_client.dir/C_/Users/yoyom/Desktop/Pico/pico-sdk/src/rp2_common/hardware_xosc/xosc.c.obj
 .debug_aranges
                0x00000660       0x38 CMakeFiles/nano_http_client.dir/C_/Users/yoyom/Desktop/Pico/pico-sdk/src/rp2_common/pico_runtime/runtime.c.obj
 .debug_aranges
                0x00000698       0x48 CMakeFiles/nano_http_client.dir/C_/Users/yoyom/Desktop/Pico/pico-sdk/src/rp2_common/pico_runtime_init/runtime_init.c.obj
 .debug_aranges
                0x000006e0       0x20 CMakeFiles/nano_http_client.dir/C_/Users/yoyom/Desktop/Pico/pico-sdk/src/rp2_common/pico_runtime_init/runtime_init_clocks.c.obj
 .debug_aranges
                0x00000700       0x60 CMakeFiles/nano_http_client.dir/C_/Users/yoyom/Desktop/Pico/pico-sdk/src/rp2_common/pico_bit_ops/bit_ops_aeabi.S.obj
 .debug_aranges
                0x00000760       0x40 CMakeFiles/nano_http_client.dir/C_/Users/yoyom/Desktop/Pico/pico-sdk/src/rp2_common/pico_divider/divider_hardware.S.obj
 .debug_aranges
                0x000007a0      0x140 CMakeFiles/nano_http_client.dir/C_/Users/yoyom/Desktop/Pico/pico-sdk/src/rp2_common/pico_double/double_aeabi_rp2040.S.obj
 .debug_aranges
                0x000008e0       0x28 CMakeFiles/nano_http_client.dir/C_/Users/yoyom/Desktop/Pico/pico-sdk/src/rp2_common/pico_double/double_init_rom_rp2040.c.obj
 .debug_aranges
                0x00000908       0x20 CMakeFiles/nano_http_client.dir/C_/Users/yoyom/Desktop/Pico/pico-sdk/src/rp2_common/pico_double/double_v1_rom_shim_rp2040.S.obj
 .debug_aranges
                0x00000928       0x20 CMakeFiles/nano_http_client.dir/C_/Users/yoyom/Desktop/Pico/pico-sdk/src/rp2_common/pico_int64_ops/pico_int64_ops_aeabi.S.obj
 .debug_aranges
                0x00000948      0x130 CMakeFiles/nano_http_client.dir/C_/Users/yoyom/Desktop/Pico/pico-sdk/src/rp2_common/pico_float/float_aeabi_rp2040.S.obj
 .debug_aranges
                0x00000a78       0x28 CMakeFiles/nano_http_client.dir/C_/Users/yoyom/Desktop/Pico/pico-sdk/src/rp2_common/pico_float/float_init_rom_rp2040.c.obj
 .debug_aranges
                0x00000aa0       0x38 CMakeFiles/nano_http_client.dir/C_/Users/yoyom/Desktop/Pico/pico-sdk/src/rp2_common/pico_mem_ops/mem_ops_aeabi.S.obj
 .debug_aranges
                0x00000ad8       0x18 CMakeFiles/nano_http_client.dir/C_/Users/yoyom/Desktop/Pico/pico-sdk/src/rp2_common/pico_standard_binary_info/standard_binary_info.c.obj
 .debug_aranges
                0x00000af0       0x90 CMakeFiles/nano_http_client.dir/C_/Users/yoyom/Desktop/Pico/pico-sdk/src/rp2_common/pico_printf/printf.c.obj
 .debug_aranges
                0x00000b80       0x28 CMakeFiles/nano_http_client.dir/C_/Users/yoyom/Desktop/Pico/pico-sdk/src/rp2_common/pico_crt0/crt0.S.obj
 .debug_aranges
                0x00000ba8       0xa0 CMakeFiles/nano_http_client.dir/C_/Users/yoyom/Desktop/Pico/pico-sdk/src/rp2_common/pico_clib_interface/newlib_interface.c.obj
 .debug_aranges
                0x00000c48       0xc8 CMakeFiles/nano_http_client.dir/C_/Users/yoyom/Desktop/Pico/pico-sdk/src/rp2_common/pico_stdio/stdio.c.obj
 .debug_aranges
                0x00000d10       0x60 CMakeFiles/nano_http_client.dir/C_/Users/yoyom/Desktop/Pico/pico-sdk/src/rp2_common/pico_stdio_usb/reset_interface.c.obj
 .debug_aranges
                0x00000d70       0x68 CMakeFiles/nano_http_client.dir/C_/Users/yoyom/Desktop/Pico/pico-sdk/src/rp2_common/pico_stdio_usb/stdio_usb.c.obj
 .debug_aranges
                0x00000dd8       0x30 CMakeFiles/nano_http_client.dir/C_/Users/yoyom/Desktop/Pico/pico-sdk/src/rp2_common/pico_stdio_usb/stdio_usb_descriptors.c.obj
 .debug_aranges
                0x00000e08       0x30 CMakeFiles/nano_http_client.dir/C_/Users/yoyom/Desktop/Pico/pico-sdk/src/rp2_common/pico_unique_id/unique_id.c.obj
 .debug_aranges
                0x00000e38       0x60 CMakeFiles/nano_http_client.dir/C_/Users/yoyom/Desktop/Pico/pico-sdk/src/rp2_common/hardware_flash/flash.c.obj
 .debug_aranges
                0x00000e98       0xb8 CMakeFiles/nano_http_client.dir/C_/Users/yoyom/Desktop/Pico/pico-sdk/lib/tinyusb/src/portable/raspberrypi/rp2040/dcd_rp2040.c.obj
 .debug_aranges
                0x00000f50       0x70 CMakeFiles/nano_http_client.dir/C_/Users/yoyom/Desktop/Pico/pico-sdk/lib/tinyusb/src/portable/raspberrypi/rp2040/rp2040_usb.c.obj
 .debug_aranges
                0x00000fc0      0x150 CMakeFiles/nano_http_client.dir/C_/Users/yoyom/Desktop/Pico/pico-sdk/lib/tinyusb/src/device/usbd.c.obj
 .debug_aranges
                0x00001110       0x50 CMakeFiles/nano_http_client.dir/C_/Users/yoyom/Desktop/Pico/pico-sdk/lib/tinyusb/src/device/usbd_control.c.obj
 .debug_aranges
                0x00001160       0xc0 CMakeFiles/nano_http_client.dir/C_/Users/yoyom/Desktop/Pico/pico-sdk/lib/tinyusb/src/class/cdc/cdc_device.c.obj
 .debug_aranges
                0x00001220       0x80 CMakeFiles/nano_http_client.dir/C_/Users/yoyom/Desktop/Pico/pico-sdk/lib/tinyusb/src/class/vendor/vendor_device.c.obj
 .debug_aranges
                0x000012a0       0xa0 CMakeFiles/nano_http_client.dir/C_/Users/yoyom/Desktop/Pico/pico-sdk/lib/tinyusb/src/tusb.c.obj
 .debug_aranges
                0x00001340       0xb0 CMakeFiles/nano_http_client.dir/C_/Users/yoyom/Desktop/Pico/pico-sdk/lib/tinyusb/src/common/tusb_fifo.c.obj
 .debug_aranges
                0x000013f0       0x50 CMakeFiles/nano_http_client.dir/C_/Users/yoyom/Desktop/Pico/pico-sdk/lib/lwip/src/core/def.c.obj
 .debug_aranges
                0x00001440       0x50 CMakeFiles/nano_http_client.dir/C_/Users/yoyom/Desktop/Pico/pico-sdk/lib/lwip/src/core/inet_chksum.c.obj
 .debug_aranges
                0x00001490       0x40 CMakeFiles/nano_http_client.dir/C_/Users/yoyom/Desktop/Pico/pico-sdk/lib/lwip/src/core/mem.c.obj
 .debug_aranges
                0x000014d0       0x48 CMakeFiles/nano_http_client.dir/C_/Users/yoyom/Desktop/Pico/pico-sdk/lib/lwip/src/core/memp.c.obj
 .debug_aranges
                0x00001518       0xc8 CMakeFiles/nano_http_client.dir/C_/Users/yoyom/Desktop/Pico/pico-sdk/lib/lwip/src/core/netif.c.obj
 .debug_aranges
                0x000015e0      0x118 CMakeFiles/nano_http_client.dir/C_/Users/yoyom/Desktop/Pico/pico-sdk/lib/lwip/src/core/pbuf.c.obj
 .debug_aranges
                0x000016f8       0x20 CMakeFiles/nano_http_client.dir/C_/Users/yoyom/Desktop/Pico/pico-sdk/lib/lwip/src/core/stats.c.obj
 .debug_aranges
                0x00001718      0x178 CMakeFiles/nano_http_client.dir/C_/Users/yoyom/Desktop/Pico/pico-sdk/lib/lwip/src/core/tcp.c.obj
 .debug_aranges
                0x00001890       0x48 CMakeFiles/nano_http_client.dir/C_/Users/yoyom/Desktop/Pico/pico-sdk/lib/lwip/src/core/tcp_in.c.obj
 .debug_aranges
                0x000018d8       0xa8 CMakeFiles/nano_http_client.dir/C_/Users/yoyom/Desktop/Pico/pico-sdk/lib/lwip/src/core/tcp_out.c.obj
 .debug_aranges
                0x00001980       0x68 CMakeFiles/nano_http_client.dir/C_/Users/yoyom/Desktop/Pico/pico-sdk/lib/lwip/src/core/timeouts.c.obj
 .debug_aranges
                0x000019e8       0x40 CMakeFiles/nano_http_client.dir/C_/Users/yoyom/Desktop/Pico/pico-sdk/lib/lwip/src/core/ipv4/ip4_frag.c.obj
 .debug_aranges
                0x00001a28       0x40 CMakeFiles/nano_http_client.dir/C_/Users/yoyom/Desktop/Pico/pico-sdk/lib/lwip/src/core/ipv4/ip4.c.obj
 .debug_aranges
                0x00001a68       0x48 CMakeFiles/nano_http_client.dir/C_/Users/yoyom/Desktop/Pico/pico-sdk/lib/lwip/src/core/ipv4/ip4_addr.c.obj

.debug_ranges   0x00000000     0xd818
 .debug_ranges  0x00000000       0x78 CMakeFiles/nano_http_client.dir/main.c.obj
 .debug_ranges  0x00000078       0x10 CMakeFiles/nano_http_client.dir/C_/Users/yoyom/Desktop/Pico/pico-sdk/src/rp2040/pico_platform/platform.c.obj
 .debug_ranges  0x00000088       0x18 CMakeFiles/nano_http_client.dir/C_/Users/yoyom/Desktop/Pico/pico-sdk/src/rp2_common/pico_platform_panic/panic.c.obj
 .debug_ranges  0x000000a0      0x440 CMakeFiles/nano_http_client.dir/C_/Users/yoyom/Desktop/Pico/pico-sdk/src/common/hardware_claim/claim.c.obj
 .debug_ranges  0x000004e0       0xd8 CMakeFiles/nano_http_client.dir/C_/Users/yoyom/Desktop/Pico/pico-sdk/src/rp2_common/hardware_sync/sync.c.obj
 .debug_ranges  0x000005b8       0xa8 CMakeFiles/nano_http_client.dir/C_/Users/yoyom/Desktop/Pico/pico-sdk/src/rp2_common/hardware_sync_spin_lock/sync_spin_lock.c.obj
 .debug_ranges  0x00000660      0xa40 CMakeFiles/nano_http_client.dir/C_/Users/yoyom/Desktop/Pico/pico-sdk/src/rp2_common/hardware_irq/irq.c.obj
 .debug_ranges  0x000010a0       0x28 CMakeFiles/nano_http_client.dir/C_/Users/yoyom/Desktop/Pico/pico-sdk/src/common/pico_sync/lock_core.c.obj
 .debug_ranges  0x000010c8     0x16b0 CMakeFiles/nano_http_client.dir/C_/Users/yoyom/Desktop/Pico/pico-sdk/src/common/pico_sync/mutex.c.obj
 .debug_ranges  0x00002778       0x88 CMakeFiles/nano_http_client.dir/C_/Users/yoyom/Desktop/Pico/pico-sdk/src/common/pico_sync/critical_section.c.obj
 .debug_ranges  0x00002800     0x1e68 CMakeFiles/nano_http_client.dir/C_/Users/yoyom/Desktop/Pico/pico-sdk/src/common/pico_time/time.c.obj
 .debug_ranges  0x00004668      0xe68 CMakeFiles/nano_http_client.dir/C_/Users/yoyom/Desktop/Pico/pico-sdk/src/rp2_common/hardware_timer/timer.c.obj
 .debug_ranges  0x000054d0      0xac8 CMakeFiles/nano_http_client.dir/C_/Users/yoyom/Desktop/Pico/pico-sdk/src/rp2_common/hardware_clocks/clocks.c.obj
 .debug_ranges  0x00005f98       0xd8 CMakeFiles/nano_http_client.dir/C_/Users/yoyom/Desktop/Pico/pico-sdk/src/rp2_common/hardware_pll/pll.c.obj
 .debug_ranges  0x00006070      0x108 CMakeFiles/nano_http_client.dir/C_/Users/yoyom/Desktop/Pico/pico-sdk/src/rp2_common/hardware_watchdog/watchdog.c.obj
 .debug_ranges  0x00006178       0x38 CMakeFiles/nano_http_client.dir/C_/Users/yoyom/Desktop/Pico/pico-sdk/src/rp2_common/hardware_ticks/ticks.c.obj
 .debug_ranges  0x000061b0      0x118 CMakeFiles/nano_http_client.dir/C_/Users/yoyom/Desktop/Pico/pico-sdk/src/rp2_common/pico_bootrom/bootrom.c.obj
 .debug_ranges  0x000062c8       0x38 CMakeFiles/nano_http_client.dir/C_/Users/yoyom/Desktop/Pico/pico-sdk/src/rp2_common/hardware_xosc/xosc.c.obj
 .debug_ranges  0x00006300       0x58 CMakeFiles/nano_http_client.dir/C_/Users/yoyom/Desktop/Pico/pico-sdk/src/rp2_common/pico_runtime/runtime.c.obj
 .debug_ranges  0x00006358       0xb0 CMakeFiles/nano_http_client.dir/C_/Users/yoyom/Desktop/Pico/pico-sdk/src/rp2_common/pico_runtime_init/runtime_init.c.obj
 .debug_ranges  0x00006408       0x28 CMakeFiles/nano_http_client.dir/C_/Users/yoyom/Desktop/Pico/pico-sdk/src/rp2_common/pico_runtime_init/runtime_init_clocks.c.obj
 .debug_ranges  0x00006430       0x58 CMakeFiles/nano_http_client.dir/C_/Users/yoyom/Desktop/Pico/pico-sdk/src/rp2_common/pico_bit_ops/bit_ops_aeabi.S.obj
 .debug_ranges  0x00006488       0x38 CMakeFiles/nano_http_client.dir/C_/Users/yoyom/Desktop/Pico/pico-sdk/src/rp2_common/pico_divider/divider_hardware.S.obj
 .debug_ranges  0x000064c0      0x138 CMakeFiles/nano_http_client.dir/C_/Users/yoyom/Desktop/Pico/pico-sdk/src/rp2_common/pico_double/double_aeabi_rp2040.S.obj
 .debug_ranges  0x000065f8       0x38 CMakeFiles/nano_http_client.dir/C_/Users/yoyom/Desktop/Pico/pico-sdk/src/rp2_common/pico_double/double_init_rom_rp2040.c.obj
 .debug_ranges  0x00006630      0x128 CMakeFiles/nano_http_client.dir/C_/Users/yoyom/Desktop/Pico/pico-sdk/src/rp2_common/pico_float/float_aeabi_rp2040.S.obj
 .debug_ranges  0x00006758       0x18 CMakeFiles/nano_http_client.dir/C_/Users/yoyom/Desktop/Pico/pico-sdk/src/rp2_common/pico_float/float_init_rom_rp2040.c.obj
 .debug_ranges  0x00006770       0x30 CMakeFiles/nano_http_client.dir/C_/Users/yoyom/Desktop/Pico/pico-sdk/src/rp2_common/pico_mem_ops/mem_ops_aeabi.S.obj
 .debug_ranges  0x000067a0      0x500 CMakeFiles/nano_http_client.dir/C_/Users/yoyom/Desktop/Pico/pico-sdk/src/rp2_common/pico_printf/printf.c.obj
 .debug_ranges  0x00006ca0       0x20 CMakeFiles/nano_http_client.dir/C_/Users/yoyom/Desktop/Pico/pico-sdk/src/rp2_common/pico_crt0/crt0.S.obj
 .debug_ranges  0x00006cc0      0x120 CMakeFiles/nano_http_client.dir/C_/Users/yoyom/Desktop/Pico/pico-sdk/src/rp2_common/pico_clib_interface/newlib_interface.c.obj
 .debug_ranges  0x00006de0      0x8d0 CMakeFiles/nano_http_client.dir/C_/Users/yoyom/Desktop/Pico/pico-sdk/src/rp2_common/pico_stdio/stdio.c.obj
 .debug_ranges  0x000076b0       0x50 CMakeFiles/nano_http_client.dir/C_/Users/yoyom/Desktop/Pico/pico-sdk/src/rp2_common/pico_stdio_usb/reset_interface.c.obj
 .debug_ranges  0x00007700      0x718 CMakeFiles/nano_http_client.dir/C_/Users/yoyom/Desktop/Pico/pico-sdk/src/rp2_common/pico_stdio_usb/stdio_usb.c.obj
 .debug_ranges  0x00007e18       0x38 CMakeFiles/nano_http_client.dir/C_/Users/yoyom/Desktop/Pico/pico-sdk/src/rp2_common/pico_stdio_usb/stdio_usb_descriptors.c.obj
 .debug_ranges  0x00007e50       0xb0 CMakeFiles/nano_http_client.dir/C_/Users/yoyom/Desktop/Pico/pico-sdk/src/rp2_common/pico_unique_id/unique_id.c.obj
 .debug_ranges  0x00007f00      0x288 CMakeFiles/nano_http_client.dir/C_/Users/yoyom/Desktop/Pico/pico-sdk/src/rp2_common/hardware_flash/flash.c.obj
 .debug_ranges  0x00008188      0xe58 CMakeFiles/nano_http_client.dir/C_/Users/yoyom/Desktop/Pico/pico-sdk/lib/tinyusb/src/portable/raspberrypi/rp2040/dcd_rp2040.c.obj
 .debug_ranges  0x00008fe0      0x1e0 CMakeFiles/nano_http_client.dir/C_/Users/yoyom/Desktop/Pico/pico-sdk/lib/tinyusb/src/portable/raspberrypi/rp2040/rp2040_usb.c.obj
 .debug_ranges  0x000091c0     0x11a0 CMakeFiles/nano_http_client.dir/C_/Users/yoyom/Desktop/Pico/pico-sdk/lib/tinyusb/src/device/usbd.c.obj
 .debug_ranges  0x0000a360       0xf0 CMakeFiles/nano_http_client.dir/C_/Users/yoyom/Desktop/Pico/pico-sdk/lib/tinyusb/src/device/usbd_control.c.obj
 .debug_ranges  0x0000a450      0x338 CMakeFiles/nano_http_client.dir/C_/Users/yoyom/Desktop/Pico/pico-sdk/lib/tinyusb/src/class/cdc/cdc_device.c.obj
 .debug_ranges  0x0000a788      0x1b0 CMakeFiles/nano_http_client.dir/C_/Users/yoyom/Desktop/Pico/pico-sdk/lib/tinyusb/src/class/vendor/vendor_device.c.obj
 .debug_ranges  0x0000a938      0x278 CMakeFiles/nano_http_client.dir/C_/Users/yoyom/Desktop/Pico/pico-sdk/lib/tinyusb/src/tusb.c.obj
 .debug_ranges  0x0000abb0      0x658 CMakeFiles/nano_http_client.dir/C_/Users/yoyom/Desktop/Pico/pico-sdk/lib/tinyusb/src/common/tusb_fifo.c.obj
 .debug_ranges  0x0000b208       0xb0 CMakeFiles/nano_http_client.dir/C_/Users/yoyom/Desktop/Pico/pico-sdk/lib/lwip/src/core/def.c.obj
 .debug_ranges  0x0000b2b8       0x70 CMakeFiles/nano_http_client.dir/C_/Users/yoyom/Desktop/Pico/pico-sdk/lib/lwip/src/core/inet_chksum.c.obj
 .debug_ranges  0x0000b328      0x1a8 CMakeFiles/nano_http_client.dir/C_/Users/yoyom/Desktop/Pico/pico-sdk/lib/lwip/src/core/mem.c.obj
 .debug_ranges  0x0000b4d0       0xd8 CMakeFiles/nano_http_client.dir/C_/Users/yoyom/Desktop/Pico/pico-sdk/lib/lwip/src/core/memp.c.obj
 .debug_ranges  0x0000b5a8      0x318 CMakeFiles/nano_http_client.dir/C_/Users/yoyom/Desktop/Pico/pico-sdk/lib/lwip/src/core/netif.c.obj
 .debug_ranges  0x0000b8c0      0x6d8 CMakeFiles/nano_http_client.dir/C_/Users/yoyom/Desktop/Pico/pico-sdk/lib/lwip/src/core/pbuf.c.obj
 .debug_ranges  0x0000bf98       0x10 CMakeFiles/nano_http_client.dir/C_/Users/yoyom/Desktop/Pico/pico-sdk/lib/lwip/src/core/stats.c.obj
 .debug_ranges  0x0000bfa8      0xaf8 CMakeFiles/nano_http_client.dir/C_/Users/yoyom/Desktop/Pico/pico-sdk/lib/lwip/src/core/tcp.c.obj
 .debug_ranges  0x0000caa0      0x478 CMakeFiles/nano_http_client.dir/C_/Users/yoyom/Desktop/Pico/pico-sdk/lib/lwip/src/core/tcp_in.c.obj
 .debug_ranges  0x0000cf18      0x530 CMakeFiles/nano_http_client.dir/C_/Users/yoyom/Desktop/Pico/pico-sdk/lib/lwip/src/core/tcp_out.c.obj
 .debug_ranges  0x0000d448       0xf0 CMakeFiles/nano_http_client.dir/C_/Users/yoyom/Desktop/Pico/pico-sdk/lib/lwip/src/core/timeouts.c.obj
 .debug_ranges  0x0000d538      0x130 CMakeFiles/nano_http_client.dir/C_/Users/yoyom/Desktop/Pico/pico-sdk/lib/lwip/src/core/ipv4/ip4_frag.c.obj
 .debug_ranges  0x0000d668      0x148 CMakeFiles/nano_http_client.dir/C_/Users/yoyom/Desktop/Pico/pico-sdk/lib/lwip/src/core/ipv4/ip4.c.obj
 .debug_ranges  0x0000d7b0       0x68 CMakeFiles/nano_http_client.dir/C_/Users/yoyom/Desktop/Pico/pico-sdk/lib/lwip/src/core/ipv4/ip4_addr.c.obj

.debug_line     0x00000000    0x2e3d9
 .debug_line    0x00000000      0x557 CMakeFiles/nano_http_client.dir/main.c.obj
 .debug_line    0x00000557      0x242 CMakeFiles/nano_http_client.dir/C_/Users/yoyom/Desktop/Pico/pico-sdk/src/rp2040/pico_platform/platform.c.obj
 .debug_line    0x00000799      0x25a CMakeFiles/nano_http_client.dir/C_/Users/yoyom/Desktop/Pico/pico-sdk/src/rp2_common/pico_platform_panic/panic.c.obj
 .debug_line    0x000009f3      0x92e CMakeFiles/nano_http_client.dir/C_/Users/yoyom/Desktop/Pico/pico-sdk/src/common/hardware_claim/claim.c.obj
 .debug_line    0x00001321      0x4c1 CMakeFiles/nano_http_client.dir/C_/Users/yoyom/Desktop/Pico/pico-sdk/src/rp2_common/hardware_sync/sync.c.obj
 .debug_line    0x000017e2      0x38b CMakeFiles/nano_http_client.dir/C_/Users/yoyom/Desktop/Pico/pico-sdk/src/rp2_common/hardware_sync_spin_lock/sync_spin_lock.c.obj
 .debug_line    0x00001b6d     0x177b CMakeFiles/nano_http_client.dir/C_/Users/yoyom/Desktop/Pico/pico-sdk/src/rp2_common/hardware_irq/irq.c.obj
 .debug_line    0x000032e8      0x2bf CMakeFiles/nano_http_client.dir/C_/Users/yoyom/Desktop/Pico/pico-sdk/src/common/pico_sync/lock_core.c.obj
 .debug_line    0x000035a7     0x1aab CMakeFiles/nano_http_client.dir/C_/Users/yoyom/Desktop/Pico/pico-sdk/src/common/pico_sync/mutex.c.obj
 .debug_line    0x00005052      0x3fa CMakeFiles/nano_http_client.dir/C_/Users/yoyom/Desktop/Pico/pico-sdk/src/common/pico_sync/critical_section.c.obj
 .debug_line    0x0000544c     0x2fec CMakeFiles/nano_http_client.dir/C_/Users/yoyom/Desktop/Pico/pico-sdk/src/common/pico_time/time.c.obj
 .debug_line    0x00008438     0x1d86 CMakeFiles/nano_http_client.dir/C_/Users/yoyom/Desktop/Pico/pico-sdk/src/rp2_common/hardware_timer/timer.c.obj
 .debug_line    0x0000a1be     0x1cad CMakeFiles/nano_http_client.dir/C_/Users/yoyom/Desktop/Pico/pico-sdk/src/rp2_common/hardware_clocks/clocks.c.obj
 .debug_line    0x0000be6b      0x521 CMakeFiles/nano_http_client.dir/C_/Users/yoyom/Desktop/Pico/pico-sdk/src/rp2_common/hardware_pll/pll.c.obj
 .debug_line    0x0000c38c      0x769 CMakeFiles/nano_http_client.dir/C_/Users/yoyom/Desktop/Pico/pico-sdk/src/rp2_common/hardware_watchdog/watchdog.c.obj
 .debug_line    0x0000caf5      0x315 CMakeFiles/nano_http_client.dir/C_/Users/yoyom/Desktop/Pico/pico-sdk/src/rp2_common/hardware_ticks/ticks.c.obj
 .debug_line    0x0000ce0a      0x37d CMakeFiles/nano_http_client.dir/C_/Users/yoyom/Desktop/Pico/pico-sdk/src/rp2_common/pico_bootrom/bootrom.c.obj
 .debug_line    0x0000d187      0x340 CMakeFiles/nano_http_client.dir/C_/Users/yoyom/Desktop/Pico/pico-sdk/src/rp2_common/hardware_xosc/xosc.c.obj
 .debug_line    0x0000d4c7      0x2db CMakeFiles/nano_http_client.dir/C_/Users/yoyom/Desktop/Pico/pico-sdk/src/rp2_common/pico_runtime/runtime.c.obj
 .debug_line    0x0000d7a2      0x52b CMakeFiles/nano_http_client.dir/C_/Users/yoyom/Desktop/Pico/pico-sdk/src/rp2_common/pico_runtime_init/runtime_init.c.obj
 .debug_line    0x0000dccd      0x541 CMakeFiles/nano_http_client.dir/C_/Users/yoyom/Desktop/Pico/pico-sdk/src/rp2_common/pico_runtime_init/runtime_init_clocks.c.obj
 .debug_line    0x0000e20e      0x13e CMakeFiles/nano_http_client.dir/C_/Users/yoyom/Desktop/Pico/pico-sdk/src/rp2_common/pico_bit_ops/bit_ops_aeabi.S.obj
 .debug_line    0x0000e34c      0x2e3 CMakeFiles/nano_http_client.dir/C_/Users/yoyom/Desktop/Pico/pico-sdk/src/rp2_common/pico_divider/divider_hardware.S.obj
 .debug_line    0x0000e62f      0x42f CMakeFiles/nano_http_client.dir/C_/Users/yoyom/Desktop/Pico/pico-sdk/src/rp2_common/pico_double/double_aeabi_rp2040.S.obj
 .debug_line    0x0000ea5e      0x431 CMakeFiles/nano_http_client.dir/C_/Users/yoyom/Desktop/Pico/pico-sdk/src/rp2_common/pico_double/double_init_rom_rp2040.c.obj
 .debug_line    0x0000ee8f       0x9f CMakeFiles/nano_http_client.dir/C_/Users/yoyom/Desktop/Pico/pico-sdk/src/rp2_common/pico_double/double_v1_rom_shim_rp2040.S.obj
 .debug_line    0x0000ef2e       0xa1 CMakeFiles/nano_http_client.dir/C_/Users/yoyom/Desktop/Pico/pico-sdk/src/rp2_common/pico_int64_ops/pico_int64_ops_aeabi.S.obj
 .debug_line    0x0000efcf      0x3e2 CMakeFiles/nano_http_client.dir/C_/Users/yoyom/Desktop/Pico/pico-sdk/src/rp2_common/pico_float/float_aeabi_rp2040.S.obj
 .debug_line    0x0000f3b1      0x356 CMakeFiles/nano_http_client.dir/C_/Users/yoyom/Desktop/Pico/pico-sdk/src/rp2_common/pico_float/float_init_rom_rp2040.c.obj
 .debug_line    0x0000f707       0xcb CMakeFiles/nano_http_client.dir/C_/Users/yoyom/Desktop/Pico/pico-sdk/src/rp2_common/pico_mem_ops/mem_ops_aeabi.S.obj
 .debug_line    0x0000f7d2      0x1d7 CMakeFiles/nano_http_client.dir/C_/Users/yoyom/Desktop/Pico/pico-sdk/src/rp2_common/pico_standard_binary_info/standard_binary_info.c.obj
 .debug_line    0x0000f9a9     0x187b CMakeFiles/nano_http_client.dir/C_/Users/yoyom/Desktop/Pico/pico-sdk/src/rp2_common/pico_printf/printf.c.obj
 .debug_line    0x00011224       0xd0 CMakeFiles/nano_http_client.dir/C_/Users/yoyom/Desktop/Pico/pico-sdk/src/rp2_common/pico_crt0/crt0.S.obj
 .debug_line    0x000112f4      0x841 CMakeFiles/nano_http_client.dir/C_/Users/yoyom/Desktop/Pico/pico-sdk/src/rp2_common/pico_clib_interface/newlib_interface.c.obj
 .debug_line    0x00011b35     0x1525 CMakeFiles/nano_http_client.dir/C_/Users/yoyom/Desktop/Pico/pico-sdk/src/rp2_common/pico_stdio/stdio.c.obj
 .debug_line    0x0001305a      0x51f CMakeFiles/nano_http_client.dir/C_/Users/yoyom/Desktop/Pico/pico-sdk/src/rp2_common/pico_stdio_usb/reset_interface.c.obj
 .debug_line    0x00013579     0x1121 CMakeFiles/nano_http_client.dir/C_/Users/yoyom/Desktop/Pico/pico-sdk/src/rp2_common/pico_stdio_usb/stdio_usb.c.obj
 .debug_line    0x0001469a      0x34e CMakeFiles/nano_http_client.dir/C_/Users/yoyom/Desktop/Pico/pico-sdk/src/rp2_common/pico_stdio_usb/stdio_usb_descriptors.c.obj
 .debug_line    0x000149e8      0x503 CMakeFiles/nano_http_client.dir/C_/Users/yoyom/Desktop/Pico/pico-sdk/src/rp2_common/pico_unique_id/unique_id.c.obj
 .debug_line    0x00014eeb      0x9ce CMakeFiles/nano_http_client.dir/C_/Users/yoyom/Desktop/Pico/pico-sdk/src/rp2_common/hardware_flash/flash.c.obj
 .debug_line    0x000158b9     0x1e30 CMakeFiles/nano_http_client.dir/C_/Users/yoyom/Desktop/Pico/pico-sdk/lib/tinyusb/src/portable/raspberrypi/rp2040/dcd_rp2040.c.obj
 .debug_line    0x000176e9      0xc83 CMakeFiles/nano_http_client.dir/C_/Users/yoyom/Desktop/Pico/pico-sdk/lib/tinyusb/src/portable/raspberrypi/rp2040/rp2040_usb.c.obj
 .debug_line    0x0001836c     0x2706 CMakeFiles/nano_http_client.dir/C_/Users/yoyom/Desktop/Pico/pico-sdk/lib/tinyusb/src/device/usbd.c.obj
 .debug_line    0x0001aa72      0x63d CMakeFiles/nano_http_client.dir/C_/Users/yoyom/Desktop/Pico/pico-sdk/lib/tinyusb/src/device/usbd_control.c.obj
 .debug_line    0x0001b0af      0xffe CMakeFiles/nano_http_client.dir/C_/Users/yoyom/Desktop/Pico/pico-sdk/lib/tinyusb/src/class/cdc/cdc_device.c.obj
 .debug_line    0x0001c0ad      0xa2f CMakeFiles/nano_http_client.dir/C_/Users/yoyom/Desktop/Pico/pico-sdk/lib/tinyusb/src/class/vendor/vendor_device.c.obj
 .debug_line    0x0001cadc      0xceb CMakeFiles/nano_http_client.dir/C_/Users/yoyom/Desktop/Pico/pico-sdk/lib/tinyusb/src/tusb.c.obj
 .debug_line    0x0001d7c7     0x15f8 CMakeFiles/nano_http_client.dir/C_/Users/yoyom/Desktop/Pico/pico-sdk/lib/tinyusb/src/common/tusb_fifo.c.obj
 .debug_line    0x0001edbf      0x51d CMakeFiles/nano_http_client.dir/C_/Users/yoyom/Desktop/Pico/pico-sdk/lib/lwip/src/core/def.c.obj
 .debug_line    0x0001f2dc      0x6fd CMakeFiles/nano_http_client.dir/C_/Users/yoyom/Desktop/Pico/pico-sdk/lib/lwip/src/core/inet_chksum.c.obj
 .debug_line    0x0001f9d9      0xa30 CMakeFiles/nano_http_client.dir/C_/Users/yoyom/Desktop/Pico/pico-sdk/lib/lwip/src/core/mem.c.obj
 .debug_line    0x00020409      0x631 CMakeFiles/nano_http_client.dir/C_/Users/yoyom/Desktop/Pico/pico-sdk/lib/lwip/src/core/memp.c.obj
 .debug_line    0x00020a3a     0x102c CMakeFiles/nano_http_client.dir/C_/Users/yoyom/Desktop/Pico/pico-sdk/lib/lwip/src/core/netif.c.obj
 .debug_line    0x00021a66     0x1eda CMakeFiles/nano_http_client.dir/C_/Users/yoyom/Desktop/Pico/pico-sdk/lib/lwip/src/core/pbuf.c.obj
 .debug_line    0x00023940      0x15e CMakeFiles/nano_http_client.dir/C_/Users/yoyom/Desktop/Pico/pico-sdk/lib/lwip/src/core/stats.c.obj
 .debug_line    0x00023a9e     0x36df CMakeFiles/nano_http_client.dir/C_/Users/yoyom/Desktop/Pico/pico-sdk/lib/lwip/src/core/tcp.c.obj
 .debug_line    0x0002717d     0x21ba CMakeFiles/nano_http_client.dir/C_/Users/yoyom/Desktop/Pico/pico-sdk/lib/lwip/src/core/tcp_in.c.obj
 .debug_line    0x00029337     0x22ad CMakeFiles/nano_http_client.dir/C_/Users/yoyom/Desktop/Pico/pico-sdk/lib/lwip/src/core/tcp_out.c.obj
 .debug_line    0x0002b5e4      0x927 CMakeFiles/nano_http_client.dir/C_/Users/yoyom/Desktop/Pico/pico-sdk/lib/lwip/src/core/timeouts.c.obj
 .debug_line    0x0002bf0b      0xe57 CMakeFiles/nano_http_client.dir/C_/Users/yoyom/Desktop/Pico/pico-sdk/lib/lwip/src/core/ipv4/ip4_frag.c.obj
 .debug_line    0x0002cd62      0xd8e CMakeFiles/nano_http_client.dir/C_/Users/yoyom/Desktop/Pico/pico-sdk/lib/lwip/src/core/ipv4/ip4.c.obj
 .debug_line    0x0002daf0      0x8e9 CMakeFiles/nano_http_client.dir/C_/Users/yoyom/Desktop/Pico/pico-sdk/lib/lwip/src/core/ipv4/ip4_addr.c.obj

.debug_str      0x00000000     0xa3aa
 .debug_str     0x00000000      0xaba CMakeFiles/nano_http_client.dir/main.c.obj
                                0xbde (size before relaxing)
 .debug_str     0x00000aba       0x85 CMakeFiles/nano_http_client.dir/C_/Users/yoyom/Desktop/Pico/pico-sdk/src/rp2040/pico_platform/platform.c.obj
                                0x202 (size before relaxing)
 .debug_str     0x00000b3f       0x9c CMakeFiles/nano_http_client.dir/C_/Users/yoyom/Desktop/Pico/pico-sdk/src/rp2_common/pico_platform_panic/panic.c.obj
                                0x203 (size before relaxing)
 .debug_str     0x00000bdb      0x1e7 CMakeFiles/nano_http_client.dir/C_/Users/yoyom/Desktop/Pico/pico-sdk/src/common/hardware_claim/claim.c.obj
                                0x38c (size before relaxing)
 .debug_str     0x00000dc2       0xd6 CMakeFiles/nano_http_client.dir/C_/Users/yoyom/Desktop/Pico/pico-sdk/src/rp2_common/hardware_sync/sync.c.obj
                                0x330 (size before relaxing)
 .debug_str     0x00000e98       0x6c CMakeFiles/nano_http_client.dir/C_/Users/yoyom/Desktop/Pico/pico-sdk/src/rp2_common/hardware_sync_spin_lock/sync_spin_lock.c.obj
                                0x248 (size before relaxing)
 .debug_str     0x00000f04      0x51f CMakeFiles/nano_http_client.dir/C_/Users/yoyom/Desktop/Pico/pico-sdk/src/rp2_common/hardware_irq/irq.c.obj
                                0xa17 (size before relaxing)
 .debug_str     0x00001423       0x66 CMakeFiles/nano_http_client.dir/C_/Users/yoyom/Desktop/Pico/pico-sdk/src/common/pico_sync/lock_core.c.obj
                                0x214 (size before relaxing)
 .debug_str     0x00001489      0x292 CMakeFiles/nano_http_client.dir/C_/Users/yoyom/Desktop/Pico/pico-sdk/src/common/pico_sync/mutex.c.obj
                                0x7a7 (size before relaxing)
 .debug_str     0x0000171b       0xd5 CMakeFiles/nano_http_client.dir/C_/Users/yoyom/Desktop/Pico/pico-sdk/src/common/pico_sync/critical_section.c.obj
                                0x2d4 (size before relaxing)
 .debug_str     0x000017f0      0x9f8 CMakeFiles/nano_http_client.dir/C_/Users/yoyom/Desktop/Pico/pico-sdk/src/common/pico_time/time.c.obj
                               0x119d (size before relaxing)
 .debug_str     0x000021e8      0x1ec CMakeFiles/nano_http_client.dir/C_/Users/yoyom/Desktop/Pico/pico-sdk/src/rp2_common/hardware_timer/timer.c.obj
                                0x9dc (size before relaxing)
 .debug_str     0x000023d4      0x593 CMakeFiles/nano_http_client.dir/C_/Users/yoyom/Desktop/Pico/pico-sdk/src/rp2_common/hardware_clocks/clocks.c.obj
                                0x980 (size before relaxing)
 .debug_str     0x00002967      0x233 CMakeFiles/nano_http_client.dir/C_/Users/yoyom/Desktop/Pico/pico-sdk/src/rp2_common/hardware_pll/pll.c.obj
                                0x467 (size before relaxing)
 .debug_str     0x00002b9a      0x18d CMakeFiles/nano_http_client.dir/C_/Users/yoyom/Desktop/Pico/pico-sdk/src/rp2_common/hardware_watchdog/watchdog.c.obj
                                0x38f (size before relaxing)
 .debug_str     0x00002d27       0x74 CMakeFiles/nano_http_client.dir/C_/Users/yoyom/Desktop/Pico/pico-sdk/src/rp2_common/hardware_ticks/ticks.c.obj
                                0x296 (size before relaxing)
 .debug_str     0x00002d9b      0x179 CMakeFiles/nano_http_client.dir/C_/Users/yoyom/Desktop/Pico/pico-sdk/src/rp2_common/pico_bootrom/bootrom.c.obj
                                0x327 (size before relaxing)
 .debug_str     0x00002f14       0x7f CMakeFiles/nano_http_client.dir/C_/Users/yoyom/Desktop/Pico/pico-sdk/src/rp2_common/hardware_xosc/xosc.c.obj
                                0x24b (size before relaxing)
 .debug_str     0x00002f93       0xf4 CMakeFiles/nano_http_client.dir/C_/Users/yoyom/Desktop/Pico/pico-sdk/src/rp2_common/pico_runtime/runtime.c.obj
                                0x296 (size before relaxing)
 .debug_str     0x00003087      0x2ce CMakeFiles/nano_http_client.dir/C_/Users/yoyom/Desktop/Pico/pico-sdk/src/rp2_common/pico_runtime_init/runtime_init.c.obj
                                0x77b (size before relaxing)
 .debug_str     0x00003355       0x6c CMakeFiles/nano_http_client.dir/C_/Users/yoyom/Desktop/Pico/pico-sdk/src/rp2_common/pico_runtime_init/runtime_init_clocks.c.obj
                                0x472 (size before relaxing)
 .debug_str     0x000033c1       0x5f CMakeFiles/nano_http_client.dir/C_/Users/yoyom/Desktop/Pico/pico-sdk/src/rp2_common/pico_bit_ops/bit_ops_aeabi.S.obj
                                 0x94 (size before relaxing)
 .debug_str     0x00003420       0x54 CMakeFiles/nano_http_client.dir/C_/Users/yoyom/Desktop/Pico/pico-sdk/src/rp2_common/pico_divider/divider_hardware.S.obj
                                 0x97 (size before relaxing)
 .debug_str     0x00003474       0x56 CMakeFiles/nano_http_client.dir/C_/Users/yoyom/Desktop/Pico/pico-sdk/src/rp2_common/pico_double/double_aeabi_rp2040.S.obj
                                 0x99 (size before relaxing)
 .debug_str     0x000034ca       0xde CMakeFiles/nano_http_client.dir/C_/Users/yoyom/Desktop/Pico/pico-sdk/src/rp2_common/pico_double/double_init_rom_rp2040.c.obj
                                0x2c3 (size before relaxing)
 .debug_str     0x000035a8       0x5c CMakeFiles/nano_http_client.dir/C_/Users/yoyom/Desktop/Pico/pico-sdk/src/rp2_common/pico_double/double_v1_rom_shim_rp2040.S.obj
                                 0x9f (size before relaxing)
 .debug_str     0x00003604       0x5a CMakeFiles/nano_http_client.dir/C_/Users/yoyom/Desktop/Pico/pico-sdk/src/rp2_common/pico_int64_ops/pico_int64_ops_aeabi.S.obj
                                 0x9d (size before relaxing)
 .debug_str     0x0000365e       0x54 CMakeFiles/nano_http_client.dir/C_/Users/yoyom/Desktop/Pico/pico-sdk/src/rp2_common/pico_float/float_aeabi_rp2040.S.obj
                                 0x97 (size before relaxing)
 .debug_str     0x000036b2       0x95 CMakeFiles/nano_http_client.dir/C_/Users/yoyom/Desktop/Pico/pico-sdk/src/rp2_common/pico_float/float_init_rom_rp2040.c.obj
                                0x2a8 (size before relaxing)
 .debug_str     0x00003747       0x51 CMakeFiles/nano_http_client.dir/C_/Users/yoyom/Desktop/Pico/pico-sdk/src/rp2_common/pico_mem_ops/mem_ops_aeabi.S.obj
                                 0x94 (size before relaxing)
 .debug_str     0x00003798      0x25e CMakeFiles/nano_http_client.dir/C_/Users/yoyom/Desktop/Pico/pico-sdk/src/rp2_common/pico_standard_binary_info/standard_binary_info.c.obj
                                0x40a (size before relaxing)
 .debug_str     0x000039f6      0x293 CMakeFiles/nano_http_client.dir/C_/Users/yoyom/Desktop/Pico/pico-sdk/src/rp2_common/pico_printf/printf.c.obj
                                0x4ed (size before relaxing)
 .debug_str     0x00003c89       0x45 CMakeFiles/nano_http_client.dir/C_/Users/yoyom/Desktop/Pico/pico-sdk/src/rp2_common/pico_crt0/crt0.S.obj
                                 0x88 (size before relaxing)
 .debug_str     0x00003cce      0x2e8 CMakeFiles/nano_http_client.dir/C_/Users/yoyom/Desktop/Pico/pico-sdk/src/rp2_common/pico_clib_interface/newlib_interface.c.obj
                                0x729 (size before relaxing)
 .debug_str     0x00003fb6      0x2d4 CMakeFiles/nano_http_client.dir/C_/Users/yoyom/Desktop/Pico/pico-sdk/src/rp2_common/pico_stdio/stdio.c.obj
                                0xae6 (size before relaxing)
 .debug_str     0x0000428a      0xa7f CMakeFiles/nano_http_client.dir/C_/Users/yoyom/Desktop/Pico/pico-sdk/src/rp2_common/pico_stdio_usb/reset_interface.c.obj
                                0xe03 (size before relaxing)
 .debug_str     0x00004d09      0x36d CMakeFiles/nano_http_client.dir/C_/Users/yoyom/Desktop/Pico/pico-sdk/src/rp2_common/pico_stdio_usb/stdio_usb.c.obj
                                0xe17 (size before relaxing)
 .debug_str     0x00005076      0x8f8 CMakeFiles/nano_http_client.dir/C_/Users/yoyom/Desktop/Pico/pico-sdk/src/rp2_common/pico_stdio_usb/stdio_usb_descriptors.c.obj
                                0xfa0 (size before relaxing)
 .debug_str     0x0000596e       0xca CMakeFiles/nano_http_client.dir/C_/Users/yoyom/Desktop/Pico/pico-sdk/src/rp2_common/pico_unique_id/unique_id.c.obj
                                0x27a (size before relaxing)
 .debug_str     0x00005a38      0x370 CMakeFiles/nano_http_client.dir/C_/Users/yoyom/Desktop/Pico/pico-sdk/src/rp2_common/hardware_flash/flash.c.obj
                                0x6b7 (size before relaxing)
 .debug_str     0x00005da8      0x93c CMakeFiles/nano_http_client.dir/C_/Users/yoyom/Desktop/Pico/pico-sdk/lib/tinyusb/src/portable/raspberrypi/rp2040/dcd_rp2040.c.obj
                               0x1145 (size before relaxing)
 .debug_str     0x000066e4      0x164 CMakeFiles/nano_http_client.dir/C_/Users/yoyom/Desktop/Pico/pico-sdk/lib/tinyusb/src/portable/raspberrypi/rp2040/rp2040_usb.c.obj
                                0x9f9 (size before relaxing)
 .debug_str     0x00006848      0xa1b CMakeFiles/nano_http_client.dir/C_/Users/yoyom/Desktop/Pico/pico-sdk/lib/tinyusb/src/device/usbd.c.obj
                               0x19d3 (size before relaxing)
 .debug_str     0x00007263      0x108 CMakeFiles/nano_http_client.dir/C_/Users/yoyom/Desktop/Pico/pico-sdk/lib/tinyusb/src/device/usbd_control.c.obj
                                0x68f (size before relaxing)
 .debug_str     0x0000736b      0x78e CMakeFiles/nano_http_client.dir/C_/Users/yoyom/Desktop/Pico/pico-sdk/lib/tinyusb/src/class/cdc/cdc_device.c.obj
                               0x16e2 (size before relaxing)
 .debug_str     0x00007af9      0x1a5 CMakeFiles/nano_http_client.dir/C_/Users/yoyom/Desktop/Pico/pico-sdk/lib/tinyusb/src/class/vendor/vendor_device.c.obj
                                0xcd5 (size before relaxing)
 .debug_str     0x00007c9e      0x247 CMakeFiles/nano_http_client.dir/C_/Users/yoyom/Desktop/Pico/pico-sdk/lib/tinyusb/src/tusb.c.obj
                                0xb0d (size before relaxing)
 .debug_str     0x00007ee5      0x290 CMakeFiles/nano_http_client.dir/C_/Users/yoyom/Desktop/Pico/pico-sdk/lib/tinyusb/src/common/tusb_fifo.c.obj
                                0x62a (size before relaxing)
 .debug_str     0x00008175       0xd4 CMakeFiles/nano_http_client.dir/C_/Users/yoyom/Desktop/Pico/pico-sdk/lib/lwip/src/core/def.c.obj
                                0x2a4 (size before relaxing)
 .debug_str     0x00008249      0x13b CMakeFiles/nano_http_client.dir/C_/Users/yoyom/Desktop/Pico/pico-sdk/lib/lwip/src/core/inet_chksum.c.obj
                                0x364 (size before relaxing)
 .debug_str     0x00008384      0x11b CMakeFiles/nano_http_client.dir/C_/Users/yoyom/Desktop/Pico/pico-sdk/lib/lwip/src/core/mem.c.obj
                                0x42b (size before relaxing)
 .debug_str     0x0000849f      0x2eb CMakeFiles/nano_http_client.dir/C_/Users/yoyom/Desktop/Pico/pico-sdk/lib/lwip/src/core/memp.c.obj
                                0x5d7 (size before relaxing)
 .debug_str     0x0000878a      0x3b8 CMakeFiles/nano_http_client.dir/C_/Users/yoyom/Desktop/Pico/pico-sdk/lib/lwip/src/core/netif.c.obj
                                0x7e3 (size before relaxing)
 .debug_str     0x00008b42      0x476 CMakeFiles/nano_http_client.dir/C_/Users/yoyom/Desktop/Pico/pico-sdk/lib/lwip/src/core/pbuf.c.obj
                                0xc76 (size before relaxing)
 .debug_str     0x00008fb8       0xaf CMakeFiles/nano_http_client.dir/C_/Users/yoyom/Desktop/Pico/pico-sdk/lib/lwip/src/core/stats.c.obj
                                0x2b6 (size before relaxing)
 .debug_str     0x00009067      0x5c1 CMakeFiles/nano_http_client.dir/C_/Users/yoyom/Desktop/Pico/pico-sdk/lib/lwip/src/core/tcp.c.obj
                                0xf21 (size before relaxing)
 .debug_str     0x00009628      0x321 CMakeFiles/nano_http_client.dir/C_/Users/yoyom/Desktop/Pico/pico-sdk/lib/lwip/src/core/tcp_in.c.obj
                                0xdb7 (size before relaxing)
 .debug_str     0x00009949      0x26b CMakeFiles/nano_http_client.dir/C_/Users/yoyom/Desktop/Pico/pico-sdk/lib/lwip/src/core/tcp_out.c.obj
                                0xcde (size before relaxing)
 .debug_str     0x00009bb4      0x1cc CMakeFiles/nano_http_client.dir/C_/Users/yoyom/Desktop/Pico/pico-sdk/lib/lwip/src/core/timeouts.c.obj
                                0x8b3 (size before relaxing)
 .debug_str     0x00009d80      0x26e CMakeFiles/nano_http_client.dir/C_/Users/yoyom/Desktop/Pico/pico-sdk/lib/lwip/src/core/ipv4/ip4_frag.c.obj
                                0x8fb (size before relaxing)
 .debug_str     0x00009fee      0x302 CMakeFiles/nano_http_client.dir/C_/Users/yoyom/Desktop/Pico/pico-sdk/lib/lwip/src/core/ipv4/ip4.c.obj
                                0x9da (size before relaxing)
 .debug_str     0x0000a2f0       0xba CMakeFiles/nano_http_client.dir/C_/Users/yoyom/Desktop/Pico/pico-sdk/lib/lwip/src/core/ipv4/ip4_addr.c.obj
                                0x503 (size before relaxing)

.debug_frame    0x00000000     0x4064
 .debug_frame   0x00000000       0xb4 CMakeFiles/nano_http_client.dir/main.c.obj
 .debug_frame   0x000000b4       0x20 CMakeFiles/nano_http_client.dir/C_/Users/yoyom/Desktop/Pico/pico-sdk/src/rp2040/pico_platform/platform.c.obj
 .debug_frame   0x000000d4       0x44 CMakeFiles/nano_http_client.dir/C_/Users/yoyom/Desktop/Pico/pico-sdk/src/rp2_common/pico_platform_panic/panic.c.obj
 .debug_frame   0x00000118       0xa0 CMakeFiles/nano_http_client.dir/C_/Users/yoyom/Desktop/Pico/pico-sdk/src/common/hardware_claim/claim.c.obj
 .debug_frame   0x000001b8       0xa4 CMakeFiles/nano_http_client.dir/C_/Users/yoyom/Desktop/Pico/pico-sdk/src/rp2_common/hardware_sync/sync.c.obj
 .debug_frame   0x0000025c       0x30 CMakeFiles/nano_http_client.dir/C_/Users/yoyom/Desktop/Pico/pico-sdk/src/rp2_common/hardware_sync_spin_lock/sync_spin_lock.c.obj
 .debug_frame   0x0000028c      0x1b8 CMakeFiles/nano_http_client.dir/C_/Users/yoyom/Desktop/Pico/pico-sdk/src/rp2_common/hardware_irq/irq.c.obj
 .debug_frame   0x00000444       0x20 CMakeFiles/nano_http_client.dir/C_/Users/yoyom/Desktop/Pico/pico-sdk/src/common/pico_sync/lock_core.c.obj
 .debug_frame   0x00000464      0x1e4 CMakeFiles/nano_http_client.dir/C_/Users/yoyom/Desktop/Pico/pico-sdk/src/common/pico_sync/mutex.c.obj
 .debug_frame   0x00000648       0x50 CMakeFiles/nano_http_client.dir/C_/Users/yoyom/Desktop/Pico/pico-sdk/src/common/pico_sync/critical_section.c.obj
 .debug_frame   0x00000698      0x2d4 CMakeFiles/nano_http_client.dir/C_/Users/yoyom/Desktop/Pico/pico-sdk/src/common/pico_time/time.c.obj
 .debug_frame   0x0000096c      0x2bc CMakeFiles/nano_http_client.dir/C_/Users/yoyom/Desktop/Pico/pico-sdk/src/rp2_common/hardware_timer/timer.c.obj
 .debug_frame   0x00000c28      0x1f4 CMakeFiles/nano_http_client.dir/C_/Users/yoyom/Desktop/Pico/pico-sdk/src/rp2_common/hardware_clocks/clocks.c.obj
 .debug_frame   0x00000e1c       0x40 CMakeFiles/nano_http_client.dir/C_/Users/yoyom/Desktop/Pico/pico-sdk/src/rp2_common/hardware_pll/pll.c.obj
 .debug_frame   0x00000e5c       0xc0 CMakeFiles/nano_http_client.dir/C_/Users/yoyom/Desktop/Pico/pico-sdk/src/rp2_common/hardware_watchdog/watchdog.c.obj
 .debug_frame   0x00000f1c       0x40 CMakeFiles/nano_http_client.dir/C_/Users/yoyom/Desktop/Pico/pico-sdk/src/rp2_common/hardware_ticks/ticks.c.obj
 .debug_frame   0x00000f5c       0xa0 CMakeFiles/nano_http_client.dir/C_/Users/yoyom/Desktop/Pico/pico-sdk/src/rp2_common/pico_bootrom/bootrom.c.obj
 .debug_frame   0x00000ffc       0x40 CMakeFiles/nano_http_client.dir/C_/Users/yoyom/Desktop/Pico/pico-sdk/src/rp2_common/hardware_xosc/xosc.c.obj
 .debug_frame   0x0000103c       0x70 CMakeFiles/nano_http_client.dir/C_/Users/yoyom/Desktop/Pico/pico-sdk/src/rp2_common/pico_runtime/runtime.c.obj
 .debug_frame   0x000010ac       0x84 CMakeFiles/nano_http_client.dir/C_/Users/yoyom/Desktop/Pico/pico-sdk/src/rp2_common/pico_runtime_init/runtime_init.c.obj
 .debug_frame   0x00001130       0x2c CMakeFiles/nano_http_client.dir/C_/Users/yoyom/Desktop/Pico/pico-sdk/src/rp2_common/pico_runtime_init/runtime_init_clocks.c.obj
 .debug_frame   0x0000115c       0x44 CMakeFiles/nano_http_client.dir/C_/Users/yoyom/Desktop/Pico/pico-sdk/src/rp2_common/pico_double/double_init_rom_rp2040.c.obj
 .debug_frame   0x000011a0       0x40 CMakeFiles/nano_http_client.dir/C_/Users/yoyom/Desktop/Pico/pico-sdk/src/rp2_common/pico_float/float_init_rom_rp2040.c.obj
 .debug_frame   0x000011e0      0x1e8 CMakeFiles/nano_http_client.dir/C_/Users/yoyom/Desktop/Pico/pico-sdk/src/rp2_common/pico_printf/printf.c.obj
 .debug_frame   0x000013c8      0x178 CMakeFiles/nano_http_client.dir/C_/Users/yoyom/Desktop/Pico/pico-sdk/src/rp2_common/pico_clib_interface/newlib_interface.c.obj
 .debug_frame   0x00001540      0x2a4 CMakeFiles/nano_http_client.dir/C_/Users/yoyom/Desktop/Pico/pico-sdk/src/rp2_common/pico_stdio/stdio.c.obj
 .debug_frame   0x000017e4       0xbc CMakeFiles/nano_http_client.dir/C_/Users/yoyom/Desktop/Pico/pico-sdk/src/rp2_common/pico_stdio_usb/reset_interface.c.obj
 .debug_frame   0x000018a0      0x118 CMakeFiles/nano_http_client.dir/C_/Users/yoyom/Desktop/Pico/pico-sdk/src/rp2_common/pico_stdio_usb/stdio_usb.c.obj
 .debug_frame   0x000019b8       0x4c CMakeFiles/nano_http_client.dir/C_/Users/yoyom/Desktop/Pico/pico-sdk/src/rp2_common/pico_stdio_usb/stdio_usb_descriptors.c.obj
 .debug_frame   0x00001a04       0x5c CMakeFiles/nano_http_client.dir/C_/Users/yoyom/Desktop/Pico/pico-sdk/src/rp2_common/pico_unique_id/unique_id.c.obj
 .debug_frame   0x00001a60      0x110 CMakeFiles/nano_http_client.dir/C_/Users/yoyom/Desktop/Pico/pico-sdk/src/rp2_common/hardware_flash/flash.c.obj
 .debug_frame   0x00001b70      0x204 CMakeFiles/nano_http_client.dir/C_/Users/yoyom/Desktop/Pico/pico-sdk/lib/tinyusb/src/portable/raspberrypi/rp2040/dcd_rp2040.c.obj
 .debug_frame   0x00001d74      0x12c CMakeFiles/nano_http_client.dir/C_/Users/yoyom/Desktop/Pico/pico-sdk/lib/tinyusb/src/portable/raspberrypi/rp2040/rp2040_usb.c.obj
 .debug_frame   0x00001ea0      0x3e8 CMakeFiles/nano_http_client.dir/C_/Users/yoyom/Desktop/Pico/pico-sdk/lib/tinyusb/src/device/usbd.c.obj
 .debug_frame   0x00002288       0xc4 CMakeFiles/nano_http_client.dir/C_/Users/yoyom/Desktop/Pico/pico-sdk/lib/tinyusb/src/device/usbd_control.c.obj
 .debug_frame   0x0000234c      0x244 CMakeFiles/nano_http_client.dir/C_/Users/yoyom/Desktop/Pico/pico-sdk/lib/tinyusb/src/class/cdc/cdc_device.c.obj
 .debug_frame   0x00002590      0x174 CMakeFiles/nano_http_client.dir/C_/Users/yoyom/Desktop/Pico/pico-sdk/lib/tinyusb/src/class/vendor/vendor_device.c.obj
 .debug_frame   0x00002704      0x1d4 CMakeFiles/nano_http_client.dir/C_/Users/yoyom/Desktop/Pico/pico-sdk/lib/tinyusb/src/tusb.c.obj
 .debug_frame   0x000028d8      0x220 CMakeFiles/nano_http_client.dir/C_/Users/yoyom/Desktop/Pico/pico-sdk/lib/tinyusb/src/common/tusb_fifo.c.obj
 .debug_frame   0x00002af8       0xe0 CMakeFiles/nano_http_client.dir/C_/Users/yoyom/Desktop/Pico/pico-sdk/lib/lwip/src/core/def.c.obj
 .debug_frame   0x00002bd8       0xf8 CMakeFiles/nano_http_client.dir/C_/Users/yoyom/Desktop/Pico/pico-sdk/lib/lwip/src/core/inet_chksum.c.obj
 .debug_frame   0x00002cd0       0xb0 CMakeFiles/nano_http_client.dir/C_/Users/yoyom/Desktop/Pico/pico-sdk/lib/lwip/src/core/mem.c.obj
 .debug_frame   0x00002d80       0xb8 CMakeFiles/nano_http_client.dir/C_/Users/yoyom/Desktop/Pico/pico-sdk/lib/lwip/src/core/memp.c.obj
 .debug_frame   0x00002e38      0x224 CMakeFiles/nano_http_client.dir/C_/Users/yoyom/Desktop/Pico/pico-sdk/lib/lwip/src/core/netif.c.obj
 .debug_frame   0x0000305c      0x394 CMakeFiles/nano_http_client.dir/C_/Users/yoyom/Desktop/Pico/pico-sdk/lib/lwip/src/core/pbuf.c.obj
 .debug_frame   0x000033f0       0x20 CMakeFiles/nano_http_client.dir/C_/Users/yoyom/Desktop/Pico/pico-sdk/lib/lwip/src/core/stats.c.obj
 .debug_frame   0x00003410      0x4c8 CMakeFiles/nano_http_client.dir/C_/Users/yoyom/Desktop/Pico/pico-sdk/lib/lwip/src/core/tcp.c.obj
 .debug_frame   0x000038d8       0xf8 CMakeFiles/nano_http_client.dir/C_/Users/yoyom/Desktop/Pico/pico-sdk/lib/lwip/src/core/tcp_in.c.obj
 .debug_frame   0x000039d0      0x2ac CMakeFiles/nano_http_client.dir/C_/Users/yoyom/Desktop/Pico/pico-sdk/lib/lwip/src/core/tcp_out.c.obj
 .debug_frame   0x00003c7c      0x12c CMakeFiles/nano_http_client.dir/C_/Users/yoyom/Desktop/Pico/pico-sdk/lib/lwip/src/core/timeouts.c.obj
 .debug_frame   0x00003da8       0xd8 CMakeFiles/nano_http_client.dir/C_/Users/yoyom/Desktop/Pico/pico-sdk/lib/lwip/src/core/ipv4/ip4_frag.c.obj
 .debug_frame   0x00003e80       0xe0 CMakeFiles/nano_http_client.dir/C_/Users/yoyom/Desktop/Pico/pico-sdk/lib/lwip/src/core/ipv4/ip4.c.obj
 .debug_frame   0x00003f60       0xdc CMakeFiles/nano_http_client.dir/C_/Users/yoyom/Desktop/Pico/pico-sdk/lib/lwip/src/core/ipv4/ip4_addr.c.obj
 .debug_frame   0x0000403c       0x28 c:/vsarm/armcc/102021~1.10/bin/../lib/gcc/arm-none-eabi/10.3.1/../../../../arm-none-eabi/lib/thumb/v6-m/nofp\libg.a(lib_a-strlen-stub.o)
